
As-needed library included to satisfy reference by file (symbol)

libarsal.so                   /home/heratom/Firefly-project/out/arsdk-native/build/libARCommands/obj/gen/Sources/ARCOMMANDS_Decoder.c.o (ARSAL_Mutex_Lock)
libc.so.6                     /home/heratom/Firefly-project/out/arsdk-native/build/libARCommands/obj/gen/Sources/ARCOMMANDS_ReadWrite.c.o (strcpy@@GLIBC_2.2.5)

Discarded input sections

 .text          0x0000000000000000        0x0 /usr/lib/gcc/x86_64-linux-gnu/4.8/../../../x86_64-linux-gnu/crti.o
 .data          0x0000000000000000        0x0 /usr/lib/gcc/x86_64-linux-gnu/4.8/../../../x86_64-linux-gnu/crti.o
 .bss           0x0000000000000000        0x0 /usr/lib/gcc/x86_64-linux-gnu/4.8/../../../x86_64-linux-gnu/crti.o
 .note.GNU-stack
                0x0000000000000000        0x0 /usr/lib/gcc/x86_64-linux-gnu/4.8/../../../x86_64-linux-gnu/crti.o
 .gnu_debuglink
                0x0000000000000000        0xc /usr/lib/gcc/x86_64-linux-gnu/4.8/../../../x86_64-linux-gnu/crti.o
 .data          0x0000000000000000        0x0 /usr/lib/gcc/x86_64-linux-gnu/4.8/crtbeginS.o
 .note.GNU-stack
                0x0000000000000000        0x0 /usr/lib/gcc/x86_64-linux-gnu/4.8/crtbeginS.o
 .text          0x0000000000000000        0x0 /home/heratom/Firefly-project/out/arsdk-native/build/libARCommands/obj/gen/Sources/ARCOMMANDS_Generator.c.o
 .data          0x0000000000000000        0x0 /home/heratom/Firefly-project/out/arsdk-native/build/libARCommands/obj/gen/Sources/ARCOMMANDS_Generator.c.o
 .bss           0x0000000000000000        0x0 /home/heratom/Firefly-project/out/arsdk-native/build/libARCommands/obj/gen/Sources/ARCOMMANDS_Generator.c.o
 .note.GNU-stack
                0x0000000000000000        0x0 /home/heratom/Firefly-project/out/arsdk-native/build/libARCommands/obj/gen/Sources/ARCOMMANDS_Generator.c.o
 .text          0x0000000000000000        0x0 /home/heratom/Firefly-project/out/arsdk-native/build/libARCommands/obj/gen/Sources/ARCOMMANDS_Decoder.c.o
 .data          0x0000000000000000        0x0 /home/heratom/Firefly-project/out/arsdk-native/build/libARCommands/obj/gen/Sources/ARCOMMANDS_Decoder.c.o
 .note.GNU-stack
                0x0000000000000000        0x0 /home/heratom/Firefly-project/out/arsdk-native/build/libARCommands/obj/gen/Sources/ARCOMMANDS_Decoder.c.o
 .text          0x0000000000000000        0x0 /home/heratom/Firefly-project/out/arsdk-native/build/libARCommands/obj/gen/Sources/ARCOMMANDS_Filter.c.o
 .data          0x0000000000000000        0x0 /home/heratom/Firefly-project/out/arsdk-native/build/libARCommands/obj/gen/Sources/ARCOMMANDS_Filter.c.o
 .bss           0x0000000000000000        0x0 /home/heratom/Firefly-project/out/arsdk-native/build/libARCommands/obj/gen/Sources/ARCOMMANDS_Filter.c.o
 .note.GNU-stack
                0x0000000000000000        0x0 /home/heratom/Firefly-project/out/arsdk-native/build/libARCommands/obj/gen/Sources/ARCOMMANDS_Filter.c.o
 .text          0x0000000000000000        0x0 /home/heratom/Firefly-project/out/arsdk-native/build/libARCommands/obj/gen/Sources/ARCOMMANDS_ReadWrite.c.o
 .data          0x0000000000000000        0x0 /home/heratom/Firefly-project/out/arsdk-native/build/libARCommands/obj/gen/Sources/ARCOMMANDS_ReadWrite.c.o
 .bss           0x0000000000000000        0x0 /home/heratom/Firefly-project/out/arsdk-native/build/libARCommands/obj/gen/Sources/ARCOMMANDS_ReadWrite.c.o
 .note.GNU-stack
                0x0000000000000000        0x0 /home/heratom/Firefly-project/out/arsdk-native/build/libARCommands/obj/gen/Sources/ARCOMMANDS_ReadWrite.c.o
 .text          0x0000000000000000        0x0 /home/heratom/Firefly-project/out/arsdk-native/build/libARCommands/obj/Sources/ARCOMMANDS_Version.c.o
 .data          0x0000000000000000        0x0 /home/heratom/Firefly-project/out/arsdk-native/build/libARCommands/obj/Sources/ARCOMMANDS_Version.c.o
 .bss           0x0000000000000000        0x0 /home/heratom/Firefly-project/out/arsdk-native/build/libARCommands/obj/Sources/ARCOMMANDS_Version.c.o
 .note.GNU-stack
                0x0000000000000000        0x0 /home/heratom/Firefly-project/out/arsdk-native/build/libARCommands/obj/Sources/ARCOMMANDS_Version.c.o
 .text          0x0000000000000000        0x0 /usr/lib/gcc/x86_64-linux-gnu/4.8/crtendS.o
 .data          0x0000000000000000        0x0 /usr/lib/gcc/x86_64-linux-gnu/4.8/crtendS.o
 .bss           0x0000000000000000        0x0 /usr/lib/gcc/x86_64-linux-gnu/4.8/crtendS.o
 .note.GNU-stack
                0x0000000000000000        0x0 /usr/lib/gcc/x86_64-linux-gnu/4.8/crtendS.o
 .text          0x0000000000000000        0x0 /usr/lib/gcc/x86_64-linux-gnu/4.8/../../../x86_64-linux-gnu/crtn.o
 .data          0x0000000000000000        0x0 /usr/lib/gcc/x86_64-linux-gnu/4.8/../../../x86_64-linux-gnu/crtn.o
 .bss           0x0000000000000000        0x0 /usr/lib/gcc/x86_64-linux-gnu/4.8/../../../x86_64-linux-gnu/crtn.o
 .note.GNU-stack
                0x0000000000000000        0x0 /usr/lib/gcc/x86_64-linux-gnu/4.8/../../../x86_64-linux-gnu/crtn.o
 .gnu_debuglink
                0x0000000000000000        0xc /usr/lib/gcc/x86_64-linux-gnu/4.8/../../../x86_64-linux-gnu/crtn.o

Memory Configuration

Name             Origin             Length             Attributes
*default*        0x0000000000000000 0xffffffffffffffff

Linker script and memory map

LOAD /usr/lib/gcc/x86_64-linux-gnu/4.8/../../../x86_64-linux-gnu/crti.o
LOAD /usr/lib/gcc/x86_64-linux-gnu/4.8/crtbeginS.o
LOAD /home/heratom/Firefly-project/out/arsdk-native/build/libARCommands/obj/gen/Sources/ARCOMMANDS_Generator.c.o
LOAD /home/heratom/Firefly-project/out/arsdk-native/build/libARCommands/obj/gen/Sources/ARCOMMANDS_Decoder.c.o
LOAD /home/heratom/Firefly-project/out/arsdk-native/build/libARCommands/obj/gen/Sources/ARCOMMANDS_Filter.c.o
LOAD /home/heratom/Firefly-project/out/arsdk-native/build/libARCommands/obj/gen/Sources/ARCOMMANDS_ReadWrite.c.o
LOAD /home/heratom/Firefly-project/out/arsdk-native/build/libARCommands/obj/Sources/ARCOMMANDS_Version.c.o
LOAD /home/heratom/Firefly-project/out/arsdk-native/staging/usr/lib/libarsal.so
LOAD /usr/lib/gcc/x86_64-linux-gnu/4.8/../../../x86_64-linux-gnu/librt.so
LOAD /usr/lib/gcc/x86_64-linux-gnu/4.8/libstdc++.so
LOAD /usr/lib/gcc/x86_64-linux-gnu/4.8/../../../x86_64-linux-gnu/libm.so
LOAD /usr/lib/gcc/x86_64-linux-gnu/4.8/libgcc_s.so
LOAD /usr/lib/gcc/x86_64-linux-gnu/4.8/../../../x86_64-linux-gnu/libpthread.so
START GROUP
LOAD /lib/x86_64-linux-gnu/libpthread.so.0
LOAD /usr/lib/x86_64-linux-gnu/libpthread_nonshared.a
END GROUP
LOAD /usr/lib/gcc/x86_64-linux-gnu/4.8/../../../x86_64-linux-gnu/libc.so
START GROUP
LOAD /lib/x86_64-linux-gnu/libc.so.6
LOAD /usr/lib/x86_64-linux-gnu/libc_nonshared.a
LOAD /lib/x86_64-linux-gnu/ld-linux-x86-64.so.2
END GROUP
LOAD /usr/lib/gcc/x86_64-linux-gnu/4.8/libgcc_s.so
LOAD /usr/lib/gcc/x86_64-linux-gnu/4.8/crtendS.o
LOAD /usr/lib/gcc/x86_64-linux-gnu/4.8/../../../x86_64-linux-gnu/crtn.o
                0x00000000000001c8                . = (0x0 + SIZEOF_HEADERS)

.note.gnu.build-id
                0x00000000000001c8       0x24
 *(.note.gnu.build-id)
 .note.gnu.build-id
                0x00000000000001c8       0x24 /usr/lib/gcc/x86_64-linux-gnu/4.8/../../../x86_64-linux-gnu/crti.o

.hash
 *(.hash)

.gnu.hash       0x00000000000001f0     0x2a38
 *(.gnu.hash)
 .gnu.hash      0x00000000000001f0     0x2a38 /usr/lib/gcc/x86_64-linux-gnu/4.8/../../../x86_64-linux-gnu/crti.o

.dynsym         0x0000000000002c28     0x8628
 *(.dynsym)
 .dynsym        0x0000000000002c28     0x8628 /usr/lib/gcc/x86_64-linux-gnu/4.8/../../../x86_64-linux-gnu/crti.o

.dynstr         0x000000000000b250    0x16c19
 *(.dynstr)
 .dynstr        0x000000000000b250    0x16c19 /usr/lib/gcc/x86_64-linux-gnu/4.8/../../../x86_64-linux-gnu/crti.o

.gnu.version    0x0000000000021e6a      0xb2e
 *(.gnu.version)
 .gnu.version   0x0000000000021e6a      0xb2e /usr/lib/gcc/x86_64-linux-gnu/4.8/../../../x86_64-linux-gnu/crti.o

.gnu.version_d  0x0000000000022998        0x0
 *(.gnu.version_d)
 .gnu.version_d
                0x0000000000000000        0x0 /usr/lib/gcc/x86_64-linux-gnu/4.8/../../../x86_64-linux-gnu/crti.o

.gnu.version_r  0x0000000000022998       0x40
 *(.gnu.version_r)
 .gnu.version_r
                0x0000000000022998       0x40 /usr/lib/gcc/x86_64-linux-gnu/4.8/../../../x86_64-linux-gnu/crti.o

.rela.dyn       0x00000000000229d8       0xc0
 *(.rela.init)
 *(.rela.text .rela.text.* .rela.gnu.linkonce.t.*)
 .rela.text     0x0000000000000000        0x0 /usr/lib/gcc/x86_64-linux-gnu/4.8/../../../x86_64-linux-gnu/crti.o
 *(.rela.fini)
 *(.rela.rodata .rela.rodata.* .rela.gnu.linkonce.r.*)
 *(.rela.data .rela.data.* .rela.gnu.linkonce.d.*)
 .rela.data.rel
                0x00000000000229d8       0x18 /usr/lib/gcc/x86_64-linux-gnu/4.8/../../../x86_64-linux-gnu/crti.o
 *(.rela.tdata .rela.tdata.* .rela.gnu.linkonce.td.*)
 *(.rela.tbss .rela.tbss.* .rela.gnu.linkonce.tb.*)
 *(.rela.ctors)
 *(.rela.dtors)
 *(.rela.got)
 .rela.got      0x00000000000229f0       0x78 /usr/lib/gcc/x86_64-linux-gnu/4.8/../../../x86_64-linux-gnu/crti.o
 *(.rela.bss .rela.bss.* .rela.gnu.linkonce.b.*)
 *(.rela.ldata .rela.ldata.* .rela.gnu.linkonce.l.*)
 *(.rela.lbss .rela.lbss.* .rela.gnu.linkonce.lb.*)
 *(.rela.lrodata .rela.lrodata.* .rela.gnu.linkonce.lr.*)
 *(.rela.ifunc)
 .rela.ifunc    0x0000000000000000        0x0 /usr/lib/gcc/x86_64-linux-gnu/4.8/../../../x86_64-linux-gnu/crti.o
 .rela.fini_array
                0x0000000000022a68       0x18 /usr/lib/gcc/x86_64-linux-gnu/4.8/../../../x86_64-linux-gnu/crti.o
 .rela.init_array
                0x0000000000022a80       0x18 /usr/lib/gcc/x86_64-linux-gnu/4.8/../../../x86_64-linux-gnu/crti.o

.rela.plt       0x0000000000022a98      0x390
 *(.rela.plt)
 .rela.plt      0x0000000000022a98      0x390 /usr/lib/gcc/x86_64-linux-gnu/4.8/../../../x86_64-linux-gnu/crti.o
 *(.rela.iplt)

.init           0x0000000000022e28       0x1a
 *(SORT(.init))
 .init          0x0000000000022e28       0x15 /usr/lib/gcc/x86_64-linux-gnu/4.8/../../../x86_64-linux-gnu/crti.o
                0x0000000000022e28                _init
 .init          0x0000000000022e3d        0x5 /usr/lib/gcc/x86_64-linux-gnu/4.8/../../../x86_64-linux-gnu/crtn.o

.plt            0x0000000000022e50      0x270
 *(.plt)
 .plt           0x0000000000022e50      0x270 /usr/lib/gcc/x86_64-linux-gnu/4.8/../../../x86_64-linux-gnu/crti.o
 *(.iplt)

.text           0x00000000000230c0    0x44a13
 *(.text.unlikely .text.*_unlikely .text.unlikely.*)
 *(.text.exit .text.exit.*)
 *(.text.startup .text.startup.*)
 *(.text.hot .text.hot.*)
 *(.text .stub .text.* .gnu.linkonce.t.*)
 .text          0x00000000000230c0       0xe5 /usr/lib/gcc/x86_64-linux-gnu/4.8/crtbeginS.o
 *fill*         0x00000000000231a5        0xb 
 .text.ARCOMMANDS_Generator_GenerateGenericDefault
                0x00000000000231b0       0x7a /home/heratom/Firefly-project/out/arsdk-native/build/libARCommands/obj/gen/Sources/ARCOMMANDS_Generator.c.o
                0x00000000000231b0                ARCOMMANDS_Generator_GenerateGenericDefault
 *fill*         0x000000000002322a        0x6 
 .text.ARCOMMANDS_Generator_GenerateARDrone3PilotingFlatTrim
                0x0000000000023230       0x7a /home/heratom/Firefly-project/out/arsdk-native/build/libARCommands/obj/gen/Sources/ARCOMMANDS_Generator.c.o
                0x0000000000023230                ARCOMMANDS_Generator_GenerateARDrone3PilotingFlatTrim
 *fill*         0x00000000000232aa        0x6 
 .text.ARCOMMANDS_Generator_GenerateARDrone3PilotingTakeOff
                0x00000000000232b0       0x7a /home/heratom/Firefly-project/out/arsdk-native/build/libARCommands/obj/gen/Sources/ARCOMMANDS_Generator.c.o
                0x00000000000232b0                ARCOMMANDS_Generator_GenerateARDrone3PilotingTakeOff
 *fill*         0x000000000002332a        0x6 
 .text.ARCOMMANDS_Generator_GenerateARDrone3PilotingPCMD
                0x0000000000023330      0x14c /home/heratom/Firefly-project/out/arsdk-native/build/libARCommands/obj/gen/Sources/ARCOMMANDS_Generator.c.o
                0x0000000000023330                ARCOMMANDS_Generator_GenerateARDrone3PilotingPCMD
 *fill*         0x000000000002347c        0x4 
 .text.ARCOMMANDS_Generator_GenerateARDrone3PilotingLanding
                0x0000000000023480       0x7a /home/heratom/Firefly-project/out/arsdk-native/build/libARCommands/obj/gen/Sources/ARCOMMANDS_Generator.c.o
                0x0000000000023480                ARCOMMANDS_Generator_GenerateARDrone3PilotingLanding
 *fill*         0x00000000000234fa        0x6 
 .text.ARCOMMANDS_Generator_GenerateARDrone3PilotingEmergency
                0x0000000000023500       0x7a /home/heratom/Firefly-project/out/arsdk-native/build/libARCommands/obj/gen/Sources/ARCOMMANDS_Generator.c.o
                0x0000000000023500                ARCOMMANDS_Generator_GenerateARDrone3PilotingEmergency
 *fill*         0x000000000002357a        0x6 
 .text.ARCOMMANDS_Generator_GenerateARDrone3PilotingNavigateHome
                0x0000000000023580       0xa0 /home/heratom/Firefly-project/out/arsdk-native/build/libARCommands/obj/gen/Sources/ARCOMMANDS_Generator.c.o
                0x0000000000023580                ARCOMMANDS_Generator_GenerateARDrone3PilotingNavigateHome
 .text.ARCOMMANDS_Generator_GenerateARDrone3PilotingAutoTakeOffMode
                0x0000000000023620       0xa0 /home/heratom/Firefly-project/out/arsdk-native/build/libARCommands/obj/gen/Sources/ARCOMMANDS_Generator.c.o
                0x0000000000023620                ARCOMMANDS_Generator_GenerateARDrone3PilotingAutoTakeOffMode
 .text.ARCOMMANDS_Generator_GenerateARDrone3PilotingMoveBy
                0x00000000000236c0       0xfe /home/heratom/Firefly-project/out/arsdk-native/build/libARCommands/obj/gen/Sources/ARCOMMANDS_Generator.c.o
                0x00000000000236c0                ARCOMMANDS_Generator_GenerateARDrone3PilotingMoveBy
 *fill*         0x00000000000237be        0x2 
 .text.ARCOMMANDS_Generator_GenerateARDrone3PilotingUserTakeOff
                0x00000000000237c0       0xa0 /home/heratom/Firefly-project/out/arsdk-native/build/libARCommands/obj/gen/Sources/ARCOMMANDS_Generator.c.o
                0x00000000000237c0                ARCOMMANDS_Generator_GenerateARDrone3PilotingUserTakeOff
 .text.ARCOMMANDS_Generator_GenerateARDrone3PilotingCircle
                0x0000000000023860       0xa0 /home/heratom/Firefly-project/out/arsdk-native/build/libARCommands/obj/gen/Sources/ARCOMMANDS_Generator.c.o
                0x0000000000023860                ARCOMMANDS_Generator_GenerateARDrone3PilotingCircle
 .text.ARCOMMANDS_Generator_GenerateARDrone3AnimationsFlip
                0x0000000000023900       0xa0 /home/heratom/Firefly-project/out/arsdk-native/build/libARCommands/obj/gen/Sources/ARCOMMANDS_Generator.c.o
                0x0000000000023900                ARCOMMANDS_Generator_GenerateARDrone3AnimationsFlip
 .text.ARCOMMANDS_Generator_GenerateARDrone3CameraOrientation
                0x00000000000239a0       0xb6 /home/heratom/Firefly-project/out/arsdk-native/build/libARCommands/obj/gen/Sources/ARCOMMANDS_Generator.c.o
                0x00000000000239a0                ARCOMMANDS_Generator_GenerateARDrone3CameraOrientation
 *fill*         0x0000000000023a56        0xa 
 .text.ARCOMMANDS_Generator_GenerateARDrone3MediaRecordPicture
                0x0000000000023a60       0xa0 /home/heratom/Firefly-project/out/arsdk-native/build/libARCommands/obj/gen/Sources/ARCOMMANDS_Generator.c.o
                0x0000000000023a60                ARCOMMANDS_Generator_GenerateARDrone3MediaRecordPicture
 .text.ARCOMMANDS_Generator_GenerateARDrone3MediaRecordVideo
                0x0000000000023b00       0xb6 /home/heratom/Firefly-project/out/arsdk-native/build/libARCommands/obj/gen/Sources/ARCOMMANDS_Generator.c.o
                0x0000000000023b00                ARCOMMANDS_Generator_GenerateARDrone3MediaRecordVideo
 *fill*         0x0000000000023bb6        0xa 
 .text.ARCOMMANDS_Generator_GenerateARDrone3MediaRecordPictureV2
                0x0000000000023bc0       0x82 /home/heratom/Firefly-project/out/arsdk-native/build/libARCommands/obj/gen/Sources/ARCOMMANDS_Generator.c.o
                0x0000000000023bc0                ARCOMMANDS_Generator_GenerateARDrone3MediaRecordPictureV2
 *fill*         0x0000000000023c42        0xe 
 .text.ARCOMMANDS_Generator_GenerateARDrone3MediaRecordVideoV2
                0x0000000000023c50       0xa0 /home/heratom/Firefly-project/out/arsdk-native/build/libARCommands/obj/gen/Sources/ARCOMMANDS_Generator.c.o
                0x0000000000023c50                ARCOMMANDS_Generator_GenerateARDrone3MediaRecordVideoV2
 .text.ARCOMMANDS_Generator_GenerateARDrone3NetworkWifiScan
                0x0000000000023cf0       0xa0 /home/heratom/Firefly-project/out/arsdk-native/build/libARCommands/obj/gen/Sources/ARCOMMANDS_Generator.c.o
                0x0000000000023cf0                ARCOMMANDS_Generator_GenerateARDrone3NetworkWifiScan
 .text.ARCOMMANDS_Generator_GenerateARDrone3NetworkWifiAuthChannel
                0x0000000000023d90       0x82 /home/heratom/Firefly-project/out/arsdk-native/build/libARCommands/obj/gen/Sources/ARCOMMANDS_Generator.c.o
                0x0000000000023d90                ARCOMMANDS_Generator_GenerateARDrone3NetworkWifiAuthChannel
 *fill*         0x0000000000023e12        0xe 
 .text.ARCOMMANDS_Generator_GenerateARDrone3PilotingSettingsMaxAltitude
                0x0000000000023e20       0x9e /home/heratom/Firefly-project/out/arsdk-native/build/libARCommands/obj/gen/Sources/ARCOMMANDS_Generator.c.o
                0x0000000000023e20                ARCOMMANDS_Generator_GenerateARDrone3PilotingSettingsMaxAltitude
 *fill*         0x0000000000023ebe        0x2 
 .text.ARCOMMANDS_Generator_GenerateARDrone3PilotingSettingsMaxTilt
                0x0000000000023ec0       0x9e /home/heratom/Firefly-project/out/arsdk-native/build/libARCommands/obj/gen/Sources/ARCOMMANDS_Generator.c.o
                0x0000000000023ec0                ARCOMMANDS_Generator_GenerateARDrone3PilotingSettingsMaxTilt
 *fill*         0x0000000000023f5e        0x2 
 .text.ARCOMMANDS_Generator_GenerateARDrone3PilotingSettingsAbsolutControl
                0x0000000000023f60       0xa8 /home/heratom/Firefly-project/out/arsdk-native/build/libARCommands/obj/gen/Sources/ARCOMMANDS_Generator.c.o
                0x0000000000023f60                ARCOMMANDS_Generator_GenerateARDrone3PilotingSettingsAbsolutControl
 *fill*         0x0000000000024008        0x8 
 .text.ARCOMMANDS_Generator_GenerateARDrone3PilotingSettingsMaxDistance
                0x0000000000024010       0x9e /home/heratom/Firefly-project/out/arsdk-native/build/libARCommands/obj/gen/Sources/ARCOMMANDS_Generator.c.o
                0x0000000000024010                ARCOMMANDS_Generator_GenerateARDrone3PilotingSettingsMaxDistance
 *fill*         0x00000000000240ae        0x2 
 .text.ARCOMMANDS_Generator_GenerateARDrone3PilotingSettingsNoFlyOverMaxDistance
                0x00000000000240b0       0xa8 /home/heratom/Firefly-project/out/arsdk-native/build/libARCommands/obj/gen/Sources/ARCOMMANDS_Generator.c.o
                0x00000000000240b0                ARCOMMANDS_Generator_GenerateARDrone3PilotingSettingsNoFlyOverMaxDistance
 *fill*         0x0000000000024158        0x8 
 .text.ARCOMMANDS_Generator_GenerateARDrone3PilotingSettingsSetAutonomousFlightMaxHorizontalSpeed
                0x0000000000024160       0x9e /home/heratom/Firefly-project/out/arsdk-native/build/libARCommands/obj/gen/Sources/ARCOMMANDS_Generator.c.o
                0x0000000000024160                ARCOMMANDS_Generator_GenerateARDrone3PilotingSettingsSetAutonomousFlightMaxHorizontalSpeed
 *fill*         0x00000000000241fe        0x2 
 .text.ARCOMMANDS_Generator_GenerateARDrone3PilotingSettingsSetAutonomousFlightMaxVerticalSpeed
                0x0000000000024200       0x9e /home/heratom/Firefly-project/out/arsdk-native/build/libARCommands/obj/gen/Sources/ARCOMMANDS_Generator.c.o
                0x0000000000024200                ARCOMMANDS_Generator_GenerateARDrone3PilotingSettingsSetAutonomousFlightMaxVerticalSpeed
 *fill*         0x000000000002429e        0x2 
 .text.ARCOMMANDS_Generator_GenerateARDrone3PilotingSettingsSetAutonomousFlightMaxHorizontalAcceleration
                0x00000000000242a0       0x9e /home/heratom/Firefly-project/out/arsdk-native/build/libARCommands/obj/gen/Sources/ARCOMMANDS_Generator.c.o
                0x00000000000242a0                ARCOMMANDS_Generator_GenerateARDrone3PilotingSettingsSetAutonomousFlightMaxHorizontalAcceleration
 *fill*         0x000000000002433e        0x2 
 .text.ARCOMMANDS_Generator_GenerateARDrone3PilotingSettingsSetAutonomousFlightMaxVerticalAcceleration
                0x0000000000024340       0x9e /home/heratom/Firefly-project/out/arsdk-native/build/libARCommands/obj/gen/Sources/ARCOMMANDS_Generator.c.o
                0x0000000000024340                ARCOMMANDS_Generator_GenerateARDrone3PilotingSettingsSetAutonomousFlightMaxVerticalAcceleration
 *fill*         0x00000000000243de        0x2 
 .text.ARCOMMANDS_Generator_GenerateARDrone3PilotingSettingsSetAutonomousFlightMaxRotationSpeed
                0x00000000000243e0       0x9e /home/heratom/Firefly-project/out/arsdk-native/build/libARCommands/obj/gen/Sources/ARCOMMANDS_Generator.c.o
                0x00000000000243e0                ARCOMMANDS_Generator_GenerateARDrone3PilotingSettingsSetAutonomousFlightMaxRotationSpeed
 *fill*         0x000000000002447e        0x2 
 .text.ARCOMMANDS_Generator_GenerateARDrone3PilotingSettingsBankedTurn
                0x0000000000024480       0xa8 /home/heratom/Firefly-project/out/arsdk-native/build/libARCommands/obj/gen/Sources/ARCOMMANDS_Generator.c.o
                0x0000000000024480                ARCOMMANDS_Generator_GenerateARDrone3PilotingSettingsBankedTurn
 *fill*         0x0000000000024528        0x8 
 .text.ARCOMMANDS_Generator_GenerateARDrone3PilotingSettingsMinAltitude
                0x0000000000024530       0x9e /home/heratom/Firefly-project/out/arsdk-native/build/libARCommands/obj/gen/Sources/ARCOMMANDS_Generator.c.o
                0x0000000000024530                ARCOMMANDS_Generator_GenerateARDrone3PilotingSettingsMinAltitude
 *fill*         0x00000000000245ce        0x2 
 .text.ARCOMMANDS_Generator_GenerateARDrone3PilotingSettingsCirclingDirection
                0x00000000000245d0       0xa0 /home/heratom/Firefly-project/out/arsdk-native/build/libARCommands/obj/gen/Sources/ARCOMMANDS_Generator.c.o
                0x00000000000245d0                ARCOMMANDS_Generator_GenerateARDrone3PilotingSettingsCirclingDirection
 .text.ARCOMMANDS_Generator_GenerateARDrone3PilotingSettingsCirclingRadius
                0x0000000000024670       0xa8 /home/heratom/Firefly-project/out/arsdk-native/build/libARCommands/obj/gen/Sources/ARCOMMANDS_Generator.c.o
                0x0000000000024670                ARCOMMANDS_Generator_GenerateARDrone3PilotingSettingsCirclingRadius
 *fill*         0x0000000000024718        0x8 
 .text.ARCOMMANDS_Generator_GenerateARDrone3PilotingSettingsCirclingAltitude
                0x0000000000024720       0xa8 /home/heratom/Firefly-project/out/arsdk-native/build/libARCommands/obj/gen/Sources/ARCOMMANDS_Generator.c.o
                0x0000000000024720                ARCOMMANDS_Generator_GenerateARDrone3PilotingSettingsCirclingAltitude
 *fill*         0x00000000000247c8        0x8 
 .text.ARCOMMANDS_Generator_GenerateARDrone3PilotingSettingsPitchMode
                0x00000000000247d0       0xa0 /home/heratom/Firefly-project/out/arsdk-native/build/libARCommands/obj/gen/Sources/ARCOMMANDS_Generator.c.o
                0x00000000000247d0                ARCOMMANDS_Generator_GenerateARDrone3PilotingSettingsPitchMode
 .text.ARCOMMANDS_Generator_GenerateARDrone3PilotingSettingsLandingMode
                0x0000000000024870       0xa0 /home/heratom/Firefly-project/out/arsdk-native/build/libARCommands/obj/gen/Sources/ARCOMMANDS_Generator.c.o
                0x0000000000024870                ARCOMMANDS_Generator_GenerateARDrone3PilotingSettingsLandingMode
 .text.ARCOMMANDS_Generator_GenerateARDrone3SpeedSettingsMaxVerticalSpeed
                0x0000000000024910       0x9e /home/heratom/Firefly-project/out/arsdk-native/build/libARCommands/obj/gen/Sources/ARCOMMANDS_Generator.c.o
                0x0000000000024910                ARCOMMANDS_Generator_GenerateARDrone3SpeedSettingsMaxVerticalSpeed
 *fill*         0x00000000000249ae        0x2 
 .text.ARCOMMANDS_Generator_GenerateARDrone3SpeedSettingsMaxRotationSpeed
                0x00000000000249b0       0x9e /home/heratom/Firefly-project/out/arsdk-native/build/libARCommands/obj/gen/Sources/ARCOMMANDS_Generator.c.o
                0x00000000000249b0                ARCOMMANDS_Generator_GenerateARDrone3SpeedSettingsMaxRotationSpeed
 *fill*         0x0000000000024a4e        0x2 
 .text.ARCOMMANDS_Generator_GenerateARDrone3SpeedSettingsHullProtection
                0x0000000000024a50       0xa8 /home/heratom/Firefly-project/out/arsdk-native/build/libARCommands/obj/gen/Sources/ARCOMMANDS_Generator.c.o
                0x0000000000024a50                ARCOMMANDS_Generator_GenerateARDrone3SpeedSettingsHullProtection
 *fill*         0x0000000000024af8        0x8 
 .text.ARCOMMANDS_Generator_GenerateARDrone3SpeedSettingsOutdoor
                0x0000000000024b00       0xa8 /home/heratom/Firefly-project/out/arsdk-native/build/libARCommands/obj/gen/Sources/ARCOMMANDS_Generator.c.o
                0x0000000000024b00                ARCOMMANDS_Generator_GenerateARDrone3SpeedSettingsOutdoor
 *fill*         0x0000000000024ba8        0x8 
 .text.ARCOMMANDS_Generator_GenerateARDrone3SpeedSettingsMaxPitchRollRotationSpeed
                0x0000000000024bb0       0x9e /home/heratom/Firefly-project/out/arsdk-native/build/libARCommands/obj/gen/Sources/ARCOMMANDS_Generator.c.o
                0x0000000000024bb0                ARCOMMANDS_Generator_GenerateARDrone3SpeedSettingsMaxPitchRollRotationSpeed
 *fill*         0x0000000000024c4e        0x2 
 .text.ARCOMMANDS_Generator_GenerateARDrone3NetworkSettingsWifiSelection
                0x0000000000024c50       0xe4 /home/heratom/Firefly-project/out/arsdk-native/build/libARCommands/obj/gen/Sources/ARCOMMANDS_Generator.c.o
                0x0000000000024c50                ARCOMMANDS_Generator_GenerateARDrone3NetworkSettingsWifiSelection
 *fill*         0x0000000000024d34        0xc 
 .text.ARCOMMANDS_Generator_GenerateARDrone3NetworkSettingsWifiSecurity
                0x0000000000024d40      0x10c /home/heratom/Firefly-project/out/arsdk-native/build/libARCommands/obj/gen/Sources/ARCOMMANDS_Generator.c.o
                0x0000000000024d40                ARCOMMANDS_Generator_GenerateARDrone3NetworkSettingsWifiSecurity
 *fill*         0x0000000000024e4c        0x4 
 .text.ARCOMMANDS_Generator_GenerateARDrone3PictureSettingsPictureFormatSelection
                0x0000000000024e50       0xa0 /home/heratom/Firefly-project/out/arsdk-native/build/libARCommands/obj/gen/Sources/ARCOMMANDS_Generator.c.o
                0x0000000000024e50                ARCOMMANDS_Generator_GenerateARDrone3PictureSettingsPictureFormatSelection
 .text.ARCOMMANDS_Generator_GenerateARDrone3PictureSettingsAutoWhiteBalanceSelection
                0x0000000000024ef0       0xa0 /home/heratom/Firefly-project/out/arsdk-native/build/libARCommands/obj/gen/Sources/ARCOMMANDS_Generator.c.o
                0x0000000000024ef0                ARCOMMANDS_Generator_GenerateARDrone3PictureSettingsAutoWhiteBalanceSelection
 .text.ARCOMMANDS_Generator_GenerateARDrone3PictureSettingsExpositionSelection
                0x0000000000024f90       0x9e /home/heratom/Firefly-project/out/arsdk-native/build/libARCommands/obj/gen/Sources/ARCOMMANDS_Generator.c.o
                0x0000000000024f90                ARCOMMANDS_Generator_GenerateARDrone3PictureSettingsExpositionSelection
 *fill*         0x000000000002502e        0x2 
 .text.ARCOMMANDS_Generator_GenerateARDrone3PictureSettingsSaturationSelection
                0x0000000000025030       0x9e /home/heratom/Firefly-project/out/arsdk-native/build/libARCommands/obj/gen/Sources/ARCOMMANDS_Generator.c.o
                0x0000000000025030                ARCOMMANDS_Generator_GenerateARDrone3PictureSettingsSaturationSelection
 *fill*         0x00000000000250ce        0x2 
 .text.ARCOMMANDS_Generator_GenerateARDrone3PictureSettingsTimelapseSelection
                0x00000000000250d0       0xc8 /home/heratom/Firefly-project/out/arsdk-native/build/libARCommands/obj/gen/Sources/ARCOMMANDS_Generator.c.o
                0x00000000000250d0                ARCOMMANDS_Generator_GenerateARDrone3PictureSettingsTimelapseSelection
 *fill*         0x0000000000025198        0x8 
 .text.ARCOMMANDS_Generator_GenerateARDrone3PictureSettingsVideoAutorecordSelection
                0x00000000000251a0       0xb6 /home/heratom/Firefly-project/out/arsdk-native/build/libARCommands/obj/gen/Sources/ARCOMMANDS_Generator.c.o
                0x00000000000251a0                ARCOMMANDS_Generator_GenerateARDrone3PictureSettingsVideoAutorecordSelection
 *fill*         0x0000000000025256        0xa 
 .text.ARCOMMANDS_Generator_GenerateARDrone3PictureSettingsVideoStabilizationMode
                0x0000000000025260       0xa0 /home/heratom/Firefly-project/out/arsdk-native/build/libARCommands/obj/gen/Sources/ARCOMMANDS_Generator.c.o
                0x0000000000025260                ARCOMMANDS_Generator_GenerateARDrone3PictureSettingsVideoStabilizationMode
 .text.ARCOMMANDS_Generator_GenerateARDrone3MediaStreamingVideoEnable
                0x0000000000025300       0xa0 /home/heratom/Firefly-project/out/arsdk-native/build/libARCommands/obj/gen/Sources/ARCOMMANDS_Generator.c.o
                0x0000000000025300                ARCOMMANDS_Generator_GenerateARDrone3MediaStreamingVideoEnable
 .text.ARCOMMANDS_Generator_GenerateARDrone3GPSSettingsSetHome
                0x00000000000253a0       0xde /home/heratom/Firefly-project/out/arsdk-native/build/libARCommands/obj/gen/Sources/ARCOMMANDS_Generator.c.o
                0x00000000000253a0                ARCOMMANDS_Generator_GenerateARDrone3GPSSettingsSetHome
 *fill*         0x000000000002547e        0x2 
 .text.ARCOMMANDS_Generator_GenerateARDrone3GPSSettingsResetHome
                0x0000000000025480       0x82 /home/heratom/Firefly-project/out/arsdk-native/build/libARCommands/obj/gen/Sources/ARCOMMANDS_Generator.c.o
                0x0000000000025480                ARCOMMANDS_Generator_GenerateARDrone3GPSSettingsResetHome
 *fill*         0x0000000000025502        0xe 
 .text.ARCOMMANDS_Generator_GenerateARDrone3GPSSettingsSendControllerGPS
                0x0000000000025510      0x11e /home/heratom/Firefly-project/out/arsdk-native/build/libARCommands/obj/gen/Sources/ARCOMMANDS_Generator.c.o
                0x0000000000025510                ARCOMMANDS_Generator_GenerateARDrone3GPSSettingsSendControllerGPS
 *fill*         0x000000000002562e        0x2 
 .text.ARCOMMANDS_Generator_GenerateARDrone3GPSSettingsHomeType
                0x0000000000025630       0xa0 /home/heratom/Firefly-project/out/arsdk-native/build/libARCommands/obj/gen/Sources/ARCOMMANDS_Generator.c.o
                0x0000000000025630                ARCOMMANDS_Generator_GenerateARDrone3GPSSettingsHomeType
 .text.ARCOMMANDS_Generator_GenerateARDrone3GPSSettingsReturnHomeDelay
                0x00000000000256d0       0xa8 /home/heratom/Firefly-project/out/arsdk-native/build/libARCommands/obj/gen/Sources/ARCOMMANDS_Generator.c.o
                0x00000000000256d0                ARCOMMANDS_Generator_GenerateARDrone3GPSSettingsReturnHomeDelay
 *fill*         0x0000000000025778        0x8 
 .text.ARCOMMANDS_Generator_GenerateARDrone3AntiflickeringElectricFrequency
                0x0000000000025780       0xa0 /home/heratom/Firefly-project/out/arsdk-native/build/libARCommands/obj/gen/Sources/ARCOMMANDS_Generator.c.o
                0x0000000000025780                ARCOMMANDS_Generator_GenerateARDrone3AntiflickeringElectricFrequency
 .text.ARCOMMANDS_Generator_GenerateARDrone3AntiflickeringSetMode
                0x0000000000025820       0xa0 /home/heratom/Firefly-project/out/arsdk-native/build/libARCommands/obj/gen/Sources/ARCOMMANDS_Generator.c.o
                0x0000000000025820                ARCOMMANDS_Generator_GenerateARDrone3AntiflickeringSetMode
 .text.ARCOMMANDS_Generator_GenerateARDrone3MediaRecordStatePictureStateChanged
                0x00000000000258c0       0xb6 /home/heratom/Firefly-project/out/arsdk-native/build/libARCommands/obj/gen/Sources/ARCOMMANDS_Generator.c.o
                0x00000000000258c0                ARCOMMANDS_Generator_GenerateARDrone3MediaRecordStatePictureStateChanged
 *fill*         0x0000000000025976        0xa 
 .text.ARCOMMANDS_Generator_GenerateARDrone3MediaRecordStateVideoStateChanged
                0x0000000000025980       0xb6 /home/heratom/Firefly-project/out/arsdk-native/build/libARCommands/obj/gen/Sources/ARCOMMANDS_Generator.c.o
                0x0000000000025980                ARCOMMANDS_Generator_GenerateARDrone3MediaRecordStateVideoStateChanged
 *fill*         0x0000000000025a36        0xa 
 .text.ARCOMMANDS_Generator_GenerateARDrone3MediaRecordStatePictureStateChangedV2
                0x0000000000025a40       0xb6 /home/heratom/Firefly-project/out/arsdk-native/build/libARCommands/obj/gen/Sources/ARCOMMANDS_Generator.c.o
                0x0000000000025a40                ARCOMMANDS_Generator_GenerateARDrone3MediaRecordStatePictureStateChangedV2
 *fill*         0x0000000000025af6        0xa 
 .text.ARCOMMANDS_Generator_GenerateARDrone3MediaRecordStateVideoStateChangedV2
                0x0000000000025b00       0xb6 /home/heratom/Firefly-project/out/arsdk-native/build/libARCommands/obj/gen/Sources/ARCOMMANDS_Generator.c.o
                0x0000000000025b00                ARCOMMANDS_Generator_GenerateARDrone3MediaRecordStateVideoStateChangedV2
 *fill*         0x0000000000025bb6        0xa 
 .text.ARCOMMANDS_Generator_GenerateARDrone3MediaRecordEventPictureEventChanged
                0x0000000000025bc0       0xae /home/heratom/Firefly-project/out/arsdk-native/build/libARCommands/obj/gen/Sources/ARCOMMANDS_Generator.c.o
                0x0000000000025bc0                ARCOMMANDS_Generator_GenerateARDrone3MediaRecordEventPictureEventChanged
 *fill*         0x0000000000025c6e        0x2 
 .text.ARCOMMANDS_Generator_GenerateARDrone3MediaRecordEventVideoEventChanged
                0x0000000000025c70       0xb6 /home/heratom/Firefly-project/out/arsdk-native/build/libARCommands/obj/gen/Sources/ARCOMMANDS_Generator.c.o
                0x0000000000025c70                ARCOMMANDS_Generator_GenerateARDrone3MediaRecordEventVideoEventChanged
 *fill*         0x0000000000025d26        0xa 
 .text.ARCOMMANDS_Generator_GenerateARDrone3PilotingStateFlatTrimChanged
                0x0000000000025d30       0x7a /home/heratom/Firefly-project/out/arsdk-native/build/libARCommands/obj/gen/Sources/ARCOMMANDS_Generator.c.o
                0x0000000000025d30                ARCOMMANDS_Generator_GenerateARDrone3PilotingStateFlatTrimChanged
 *fill*         0x0000000000025daa        0x6 
 .text.ARCOMMANDS_Generator_GenerateARDrone3PilotingStateFlyingStateChanged
                0x0000000000025db0       0xa0 /home/heratom/Firefly-project/out/arsdk-native/build/libARCommands/obj/gen/Sources/ARCOMMANDS_Generator.c.o
                0x0000000000025db0                ARCOMMANDS_Generator_GenerateARDrone3PilotingStateFlyingStateChanged
 .text.ARCOMMANDS_Generator_GenerateARDrone3PilotingStateAlertStateChanged
                0x0000000000025e50       0xa0 /home/heratom/Firefly-project/out/arsdk-native/build/libARCommands/obj/gen/Sources/ARCOMMANDS_Generator.c.o
                0x0000000000025e50                ARCOMMANDS_Generator_GenerateARDrone3PilotingStateAlertStateChanged
 .text.ARCOMMANDS_Generator_GenerateARDrone3PilotingStateNavigateHomeStateChanged
                0x0000000000025ef0       0xb6 /home/heratom/Firefly-project/out/arsdk-native/build/libARCommands/obj/gen/Sources/ARCOMMANDS_Generator.c.o
                0x0000000000025ef0                ARCOMMANDS_Generator_GenerateARDrone3PilotingStateNavigateHomeStateChanged
 *fill*         0x0000000000025fa6        0xa 
 .text.ARCOMMANDS_Generator_GenerateARDrone3PilotingStatePositionChanged
                0x0000000000025fb0       0xde /home/heratom/Firefly-project/out/arsdk-native/build/libARCommands/obj/gen/Sources/ARCOMMANDS_Generator.c.o
                0x0000000000025fb0                ARCOMMANDS_Generator_GenerateARDrone3PilotingStatePositionChanged
 *fill*         0x000000000002608e        0x2 
 .text.ARCOMMANDS_Generator_GenerateARDrone3PilotingStateSpeedChanged
                0x0000000000026090       0xde /home/heratom/Firefly-project/out/arsdk-native/build/libARCommands/obj/gen/Sources/ARCOMMANDS_Generator.c.o
                0x0000000000026090                ARCOMMANDS_Generator_GenerateARDrone3PilotingStateSpeedChanged
 *fill*         0x000000000002616e        0x2 
 .text.ARCOMMANDS_Generator_GenerateARDrone3PilotingStateAttitudeChanged
                0x0000000000026170       0xde /home/heratom/Firefly-project/out/arsdk-native/build/libARCommands/obj/gen/Sources/ARCOMMANDS_Generator.c.o
                0x0000000000026170                ARCOMMANDS_Generator_GenerateARDrone3PilotingStateAttitudeChanged
 *fill*         0x000000000002624e        0x2 
 .text.ARCOMMANDS_Generator_GenerateARDrone3PilotingStateAutoTakeOffModeChanged
                0x0000000000026250       0xa8 /home/heratom/Firefly-project/out/arsdk-native/build/libARCommands/obj/gen/Sources/ARCOMMANDS_Generator.c.o
                0x0000000000026250                ARCOMMANDS_Generator_GenerateARDrone3PilotingStateAutoTakeOffModeChanged
 *fill*         0x00000000000262f8        0x8 
 .text.ARCOMMANDS_Generator_GenerateARDrone3PilotingStateAltitudeChanged
                0x0000000000026300       0x9e /home/heratom/Firefly-project/out/arsdk-native/build/libARCommands/obj/gen/Sources/ARCOMMANDS_Generator.c.o
                0x0000000000026300                ARCOMMANDS_Generator_GenerateARDrone3PilotingStateAltitudeChanged
 *fill*         0x000000000002639e        0x2 
 .text.ARCOMMANDS_Generator_GenerateARDrone3PilotingEventMoveByEnd
                0x00000000000263a0      0x120 /home/heratom/Firefly-project/out/arsdk-native/build/libARCommands/obj/gen/Sources/ARCOMMANDS_Generator.c.o
                0x00000000000263a0                ARCOMMANDS_Generator_GenerateARDrone3PilotingEventMoveByEnd
 .text.ARCOMMANDS_Generator_GenerateARDrone3NetworkStateWifiScanListChanged
                0x00000000000264c0      0x12c /home/heratom/Firefly-project/out/arsdk-native/build/libARCommands/obj/gen/Sources/ARCOMMANDS_Generator.c.o
                0x00000000000264c0                ARCOMMANDS_Generator_GenerateARDrone3NetworkStateWifiScanListChanged
 *fill*         0x00000000000265ec        0x4 
 .text.ARCOMMANDS_Generator_GenerateARDrone3NetworkStateAllWifiScanChanged
                0x00000000000265f0       0x82 /home/heratom/Firefly-project/out/arsdk-native/build/libARCommands/obj/gen/Sources/ARCOMMANDS_Generator.c.o
                0x00000000000265f0                ARCOMMANDS_Generator_GenerateARDrone3NetworkStateAllWifiScanChanged
 *fill*         0x0000000000026672        0xe 
 .text.ARCOMMANDS_Generator_GenerateARDrone3NetworkStateWifiAuthChannelListChanged
                0x0000000000026680       0xe4 /home/heratom/Firefly-project/out/arsdk-native/build/libARCommands/obj/gen/Sources/ARCOMMANDS_Generator.c.o
                0x0000000000026680                ARCOMMANDS_Generator_GenerateARDrone3NetworkStateWifiAuthChannelListChanged
 *fill*         0x0000000000026764        0xc 
 .text.ARCOMMANDS_Generator_GenerateARDrone3NetworkStateAllWifiAuthChannelChanged
                0x0000000000026770       0x82 /home/heratom/Firefly-project/out/arsdk-native/build/libARCommands/obj/gen/Sources/ARCOMMANDS_Generator.c.o
                0x0000000000026770                ARCOMMANDS_Generator_GenerateARDrone3NetworkStateAllWifiAuthChannelChanged
 *fill*         0x00000000000267f2        0xe 
 .text.ARCOMMANDS_Generator_GenerateARDrone3PilotingSettingsStateMaxAltitudeChanged
                0x0000000000026800       0xde /home/heratom/Firefly-project/out/arsdk-native/build/libARCommands/obj/gen/Sources/ARCOMMANDS_Generator.c.o
                0x0000000000026800                ARCOMMANDS_Generator_GenerateARDrone3PilotingSettingsStateMaxAltitudeChanged
 *fill*         0x00000000000268de        0x2 
 .text.ARCOMMANDS_Generator_GenerateARDrone3PilotingSettingsStateMaxTiltChanged
                0x00000000000268e0       0xde /home/heratom/Firefly-project/out/arsdk-native/build/libARCommands/obj/gen/Sources/ARCOMMANDS_Generator.c.o
                0x00000000000268e0                ARCOMMANDS_Generator_GenerateARDrone3PilotingSettingsStateMaxTiltChanged
 *fill*         0x00000000000269be        0x2 
 .text.ARCOMMANDS_Generator_GenerateARDrone3PilotingSettingsStateAbsolutControlChanged
                0x00000000000269c0       0xa8 /home/heratom/Firefly-project/out/arsdk-native/build/libARCommands/obj/gen/Sources/ARCOMMANDS_Generator.c.o
                0x00000000000269c0                ARCOMMANDS_Generator_GenerateARDrone3PilotingSettingsStateAbsolutControlChanged
 *fill*         0x0000000000026a68        0x8 
 .text.ARCOMMANDS_Generator_GenerateARDrone3PilotingSettingsStateMaxDistanceChanged
                0x0000000000026a70       0xde /home/heratom/Firefly-project/out/arsdk-native/build/libARCommands/obj/gen/Sources/ARCOMMANDS_Generator.c.o
                0x0000000000026a70                ARCOMMANDS_Generator_GenerateARDrone3PilotingSettingsStateMaxDistanceChanged
 *fill*         0x0000000000026b4e        0x2 
 .text.ARCOMMANDS_Generator_GenerateARDrone3PilotingSettingsStateNoFlyOverMaxDistanceChanged
                0x0000000000026b50       0xa8 /home/heratom/Firefly-project/out/arsdk-native/build/libARCommands/obj/gen/Sources/ARCOMMANDS_Generator.c.o
                0x0000000000026b50                ARCOMMANDS_Generator_GenerateARDrone3PilotingSettingsStateNoFlyOverMaxDistanceChanged
 *fill*         0x0000000000026bf8        0x8 
 .text.ARCOMMANDS_Generator_GenerateARDrone3PilotingSettingsStateAutonomousFlightMaxHorizontalSpeed
                0x0000000000026c00       0x9e /home/heratom/Firefly-project/out/arsdk-native/build/libARCommands/obj/gen/Sources/ARCOMMANDS_Generator.c.o
                0x0000000000026c00                ARCOMMANDS_Generator_GenerateARDrone3PilotingSettingsStateAutonomousFlightMaxHorizontalSpeed
 *fill*         0x0000000000026c9e        0x2 
 .text.ARCOMMANDS_Generator_GenerateARDrone3PilotingSettingsStateAutonomousFlightMaxVerticalSpeed
                0x0000000000026ca0       0x9e /home/heratom/Firefly-project/out/arsdk-native/build/libARCommands/obj/gen/Sources/ARCOMMANDS_Generator.c.o
                0x0000000000026ca0                ARCOMMANDS_Generator_GenerateARDrone3PilotingSettingsStateAutonomousFlightMaxVerticalSpeed
 *fill*         0x0000000000026d3e        0x2 
 .text.ARCOMMANDS_Generator_GenerateARDrone3PilotingSettingsStateAutonomousFlightMaxHorizontalAcceleration
                0x0000000000026d40       0x9e /home/heratom/Firefly-project/out/arsdk-native/build/libARCommands/obj/gen/Sources/ARCOMMANDS_Generator.c.o
                0x0000000000026d40                ARCOMMANDS_Generator_GenerateARDrone3PilotingSettingsStateAutonomousFlightMaxHorizontalAcceleration
 *fill*         0x0000000000026dde        0x2 
 .text.ARCOMMANDS_Generator_GenerateARDrone3PilotingSettingsStateAutonomousFlightMaxVerticalAcceleration
                0x0000000000026de0       0x9e /home/heratom/Firefly-project/out/arsdk-native/build/libARCommands/obj/gen/Sources/ARCOMMANDS_Generator.c.o
                0x0000000000026de0                ARCOMMANDS_Generator_GenerateARDrone3PilotingSettingsStateAutonomousFlightMaxVerticalAcceleration
 *fill*         0x0000000000026e7e        0x2 
 .text.ARCOMMANDS_Generator_GenerateARDrone3PilotingSettingsStateAutonomousFlightMaxRotationSpeed
                0x0000000000026e80       0x9e /home/heratom/Firefly-project/out/arsdk-native/build/libARCommands/obj/gen/Sources/ARCOMMANDS_Generator.c.o
                0x0000000000026e80                ARCOMMANDS_Generator_GenerateARDrone3PilotingSettingsStateAutonomousFlightMaxRotationSpeed
 *fill*         0x0000000000026f1e        0x2 
 .text.ARCOMMANDS_Generator_GenerateARDrone3PilotingSettingsStateBankedTurnChanged
                0x0000000000026f20       0xa8 /home/heratom/Firefly-project/out/arsdk-native/build/libARCommands/obj/gen/Sources/ARCOMMANDS_Generator.c.o
                0x0000000000026f20                ARCOMMANDS_Generator_GenerateARDrone3PilotingSettingsStateBankedTurnChanged
 *fill*         0x0000000000026fc8        0x8 
 .text.ARCOMMANDS_Generator_GenerateARDrone3PilotingSettingsStateMinAltitudeChanged
                0x0000000000026fd0       0xde /home/heratom/Firefly-project/out/arsdk-native/build/libARCommands/obj/gen/Sources/ARCOMMANDS_Generator.c.o
                0x0000000000026fd0                ARCOMMANDS_Generator_GenerateARDrone3PilotingSettingsStateMinAltitudeChanged
 *fill*         0x00000000000270ae        0x2 
 .text.ARCOMMANDS_Generator_GenerateARDrone3PilotingSettingsStateCirclingDirectionChanged
                0x00000000000270b0       0xa0 /home/heratom/Firefly-project/out/arsdk-native/build/libARCommands/obj/gen/Sources/ARCOMMANDS_Generator.c.o
                0x00000000000270b0                ARCOMMANDS_Generator_GenerateARDrone3PilotingSettingsStateCirclingDirectionChanged
 .text.ARCOMMANDS_Generator_GenerateARDrone3PilotingSettingsStateCirclingRadiusChanged
                0x0000000000027150       0xe4 /home/heratom/Firefly-project/out/arsdk-native/build/libARCommands/obj/gen/Sources/ARCOMMANDS_Generator.c.o
                0x0000000000027150                ARCOMMANDS_Generator_GenerateARDrone3PilotingSettingsStateCirclingRadiusChanged
 *fill*         0x0000000000027234        0xc 
 .text.ARCOMMANDS_Generator_GenerateARDrone3PilotingSettingsStateCirclingAltitudeChanged
                0x0000000000027240       0xe4 /home/heratom/Firefly-project/out/arsdk-native/build/libARCommands/obj/gen/Sources/ARCOMMANDS_Generator.c.o
                0x0000000000027240                ARCOMMANDS_Generator_GenerateARDrone3PilotingSettingsStateCirclingAltitudeChanged
 *fill*         0x0000000000027324        0xc 
 .text.ARCOMMANDS_Generator_GenerateARDrone3PilotingSettingsStatePitchModeChanged
                0x0000000000027330       0xa0 /home/heratom/Firefly-project/out/arsdk-native/build/libARCommands/obj/gen/Sources/ARCOMMANDS_Generator.c.o
                0x0000000000027330                ARCOMMANDS_Generator_GenerateARDrone3PilotingSettingsStatePitchModeChanged
 .text.ARCOMMANDS_Generator_GenerateARDrone3PilotingSettingsStateLandingModeChanged
                0x00000000000273d0       0xa0 /home/heratom/Firefly-project/out/arsdk-native/build/libARCommands/obj/gen/Sources/ARCOMMANDS_Generator.c.o
                0x00000000000273d0                ARCOMMANDS_Generator_GenerateARDrone3PilotingSettingsStateLandingModeChanged
 .text.ARCOMMANDS_Generator_GenerateARDrone3SpeedSettingsStateMaxVerticalSpeedChanged
                0x0000000000027470       0xde /home/heratom/Firefly-project/out/arsdk-native/build/libARCommands/obj/gen/Sources/ARCOMMANDS_Generator.c.o
                0x0000000000027470                ARCOMMANDS_Generator_GenerateARDrone3SpeedSettingsStateMaxVerticalSpeedChanged
 *fill*         0x000000000002754e        0x2 
 .text.ARCOMMANDS_Generator_GenerateARDrone3SpeedSettingsStateMaxRotationSpeedChanged
                0x0000000000027550       0xde /home/heratom/Firefly-project/out/arsdk-native/build/libARCommands/obj/gen/Sources/ARCOMMANDS_Generator.c.o
                0x0000000000027550                ARCOMMANDS_Generator_GenerateARDrone3SpeedSettingsStateMaxRotationSpeedChanged
 *fill*         0x000000000002762e        0x2 
 .text.ARCOMMANDS_Generator_GenerateARDrone3SpeedSettingsStateHullProtectionChanged
                0x0000000000027630       0xa8 /home/heratom/Firefly-project/out/arsdk-native/build/libARCommands/obj/gen/Sources/ARCOMMANDS_Generator.c.o
                0x0000000000027630                ARCOMMANDS_Generator_GenerateARDrone3SpeedSettingsStateHullProtectionChanged
 *fill*         0x00000000000276d8        0x8 
 .text.ARCOMMANDS_Generator_GenerateARDrone3SpeedSettingsStateOutdoorChanged
                0x00000000000276e0       0xa8 /home/heratom/Firefly-project/out/arsdk-native/build/libARCommands/obj/gen/Sources/ARCOMMANDS_Generator.c.o
                0x00000000000276e0                ARCOMMANDS_Generator_GenerateARDrone3SpeedSettingsStateOutdoorChanged
 *fill*         0x0000000000027788        0x8 
 .text.ARCOMMANDS_Generator_GenerateARDrone3SpeedSettingsStateMaxPitchRollRotationSpeedChanged
                0x0000000000027790       0xde /home/heratom/Firefly-project/out/arsdk-native/build/libARCommands/obj/gen/Sources/ARCOMMANDS_Generator.c.o
                0x0000000000027790                ARCOMMANDS_Generator_GenerateARDrone3SpeedSettingsStateMaxPitchRollRotationSpeedChanged
 *fill*         0x000000000002786e        0x2 
 .text.ARCOMMANDS_Generator_GenerateARDrone3NetworkSettingsStateWifiSelectionChanged
                0x0000000000027870       0xe4 /home/heratom/Firefly-project/out/arsdk-native/build/libARCommands/obj/gen/Sources/ARCOMMANDS_Generator.c.o
                0x0000000000027870                ARCOMMANDS_Generator_GenerateARDrone3NetworkSettingsStateWifiSelectionChanged
 *fill*         0x0000000000027954        0xc 
 .text.ARCOMMANDS_Generator_GenerateARDrone3NetworkSettingsStateWifiSecurityChanged
                0x0000000000027960       0xa0 /home/heratom/Firefly-project/out/arsdk-native/build/libARCommands/obj/gen/Sources/ARCOMMANDS_Generator.c.o
                0x0000000000027960                ARCOMMANDS_Generator_GenerateARDrone3NetworkSettingsStateWifiSecurityChanged
 .text.ARCOMMANDS_Generator_GenerateARDrone3NetworkSettingsStateWifiSecurity
                0x0000000000027a00      0x10c /home/heratom/Firefly-project/out/arsdk-native/build/libARCommands/obj/gen/Sources/ARCOMMANDS_Generator.c.o
                0x0000000000027a00                ARCOMMANDS_Generator_GenerateARDrone3NetworkSettingsStateWifiSecurity
 *fill*         0x0000000000027b0c        0x4 
 .text.ARCOMMANDS_Generator_GenerateARDrone3SettingsStateProductMotorVersionListChanged
                0x0000000000027b10      0x13c /home/heratom/Firefly-project/out/arsdk-native/build/libARCommands/obj/gen/Sources/ARCOMMANDS_Generator.c.o
                0x0000000000027b10                ARCOMMANDS_Generator_GenerateARDrone3SettingsStateProductMotorVersionListChanged
 *fill*         0x0000000000027c4c        0x4 
 .text.ARCOMMANDS_Generator_GenerateARDrone3SettingsStateProductGPSVersionChanged
                0x0000000000027c50       0xe0 /home/heratom/Firefly-project/out/arsdk-native/build/libARCommands/obj/gen/Sources/ARCOMMANDS_Generator.c.o
                0x0000000000027c50                ARCOMMANDS_Generator_GenerateARDrone3SettingsStateProductGPSVersionChanged
 .text.ARCOMMANDS_Generator_GenerateARDrone3SettingsStateMotorErrorStateChanged
                0x0000000000027d30       0xb6 /home/heratom/Firefly-project/out/arsdk-native/build/libARCommands/obj/gen/Sources/ARCOMMANDS_Generator.c.o
                0x0000000000027d30                ARCOMMANDS_Generator_GenerateARDrone3SettingsStateMotorErrorStateChanged
 *fill*         0x0000000000027de6        0xa 
 .text.ARCOMMANDS_Generator_GenerateARDrone3SettingsStateMotorSoftwareVersionChanged
                0x0000000000027df0       0xb0 /home/heratom/Firefly-project/out/arsdk-native/build/libARCommands/obj/gen/Sources/ARCOMMANDS_Generator.c.o
                0x0000000000027df0                ARCOMMANDS_Generator_GenerateARDrone3SettingsStateMotorSoftwareVersionChanged
 .text.ARCOMMANDS_Generator_GenerateARDrone3SettingsStateMotorFlightsStatusChanged
                0x0000000000027ea0       0xe4 /home/heratom/Firefly-project/out/arsdk-native/build/libARCommands/obj/gen/Sources/ARCOMMANDS_Generator.c.o
                0x0000000000027ea0                ARCOMMANDS_Generator_GenerateARDrone3SettingsStateMotorFlightsStatusChanged
 *fill*         0x0000000000027f84        0xc 
 .text.ARCOMMANDS_Generator_GenerateARDrone3SettingsStateMotorErrorLastErrorChanged
                0x0000000000027f90       0xa0 /home/heratom/Firefly-project/out/arsdk-native/build/libARCommands/obj/gen/Sources/ARCOMMANDS_Generator.c.o
                0x0000000000027f90                ARCOMMANDS_Generator_GenerateARDrone3SettingsStateMotorErrorLastErrorChanged
 .text.ARCOMMANDS_Generator_GenerateARDrone3SettingsStateP7ID
                0x0000000000028030       0xb0 /home/heratom/Firefly-project/out/arsdk-native/build/libARCommands/obj/gen/Sources/ARCOMMANDS_Generator.c.o
                0x0000000000028030                ARCOMMANDS_Generator_GenerateARDrone3SettingsStateP7ID
 .text.ARCOMMANDS_Generator_GenerateARDrone3PictureSettingsStatePictureFormatChanged
                0x00000000000280e0       0xa0 /home/heratom/Firefly-project/out/arsdk-native/build/libARCommands/obj/gen/Sources/ARCOMMANDS_Generator.c.o
                0x00000000000280e0                ARCOMMANDS_Generator_GenerateARDrone3PictureSettingsStatePictureFormatChanged
 .text.ARCOMMANDS_Generator_GenerateARDrone3PictureSettingsStateAutoWhiteBalanceChanged
                0x0000000000028180       0xa0 /home/heratom/Firefly-project/out/arsdk-native/build/libARCommands/obj/gen/Sources/ARCOMMANDS_Generator.c.o
                0x0000000000028180                ARCOMMANDS_Generator_GenerateARDrone3PictureSettingsStateAutoWhiteBalanceChanged
 .text.ARCOMMANDS_Generator_GenerateARDrone3PictureSettingsStateExpositionChanged
                0x0000000000028220       0xde /home/heratom/Firefly-project/out/arsdk-native/build/libARCommands/obj/gen/Sources/ARCOMMANDS_Generator.c.o
                0x0000000000028220                ARCOMMANDS_Generator_GenerateARDrone3PictureSettingsStateExpositionChanged
 *fill*         0x00000000000282fe        0x2 
 .text.ARCOMMANDS_Generator_GenerateARDrone3PictureSettingsStateSaturationChanged
                0x0000000000028300       0xde /home/heratom/Firefly-project/out/arsdk-native/build/libARCommands/obj/gen/Sources/ARCOMMANDS_Generator.c.o
                0x0000000000028300                ARCOMMANDS_Generator_GenerateARDrone3PictureSettingsStateSaturationChanged
 *fill*         0x00000000000283de        0x2 
 .text.ARCOMMANDS_Generator_GenerateARDrone3PictureSettingsStateTimelapseChanged
                0x00000000000283e0      0x100 /home/heratom/Firefly-project/out/arsdk-native/build/libARCommands/obj/gen/Sources/ARCOMMANDS_Generator.c.o
                0x00000000000283e0                ARCOMMANDS_Generator_GenerateARDrone3PictureSettingsStateTimelapseChanged
 .text.ARCOMMANDS_Generator_GenerateARDrone3PictureSettingsStateVideoAutorecordChanged
                0x00000000000284e0       0xb6 /home/heratom/Firefly-project/out/arsdk-native/build/libARCommands/obj/gen/Sources/ARCOMMANDS_Generator.c.o
                0x00000000000284e0                ARCOMMANDS_Generator_GenerateARDrone3PictureSettingsStateVideoAutorecordChanged
 *fill*         0x0000000000028596        0xa 
 .text.ARCOMMANDS_Generator_GenerateARDrone3PictureSettingsStateVideoStabilizationModeChanged
                0x00000000000285a0       0xa0 /home/heratom/Firefly-project/out/arsdk-native/build/libARCommands/obj/gen/Sources/ARCOMMANDS_Generator.c.o
                0x00000000000285a0                ARCOMMANDS_Generator_GenerateARDrone3PictureSettingsStateVideoStabilizationModeChanged
 .text.ARCOMMANDS_Generator_GenerateARDrone3MediaStreamingStateVideoEnableChanged
                0x0000000000028640       0xa0 /home/heratom/Firefly-project/out/arsdk-native/build/libARCommands/obj/gen/Sources/ARCOMMANDS_Generator.c.o
                0x0000000000028640                ARCOMMANDS_Generator_GenerateARDrone3MediaStreamingStateVideoEnableChanged
 .text.ARCOMMANDS_Generator_GenerateARDrone3GPSSettingsStateHomeChanged
                0x00000000000286e0       0xde /home/heratom/Firefly-project/out/arsdk-native/build/libARCommands/obj/gen/Sources/ARCOMMANDS_Generator.c.o
                0x00000000000286e0                ARCOMMANDS_Generator_GenerateARDrone3GPSSettingsStateHomeChanged
 *fill*         0x00000000000287be        0x2 
 .text.ARCOMMANDS_Generator_GenerateARDrone3GPSSettingsStateResetHomeChanged
                0x00000000000287c0       0xde /home/heratom/Firefly-project/out/arsdk-native/build/libARCommands/obj/gen/Sources/ARCOMMANDS_Generator.c.o
                0x00000000000287c0                ARCOMMANDS_Generator_GenerateARDrone3GPSSettingsStateResetHomeChanged
 *fill*         0x000000000002889e        0x2 
 .text.ARCOMMANDS_Generator_GenerateARDrone3GPSSettingsStateGPSFixStateChanged
                0x00000000000288a0       0xa8 /home/heratom/Firefly-project/out/arsdk-native/build/libARCommands/obj/gen/Sources/ARCOMMANDS_Generator.c.o
                0x00000000000288a0                ARCOMMANDS_Generator_GenerateARDrone3GPSSettingsStateGPSFixStateChanged
 *fill*         0x0000000000028948        0x8 
 .text.ARCOMMANDS_Generator_GenerateARDrone3GPSSettingsStateGPSUpdateStateChanged
                0x0000000000028950       0xa0 /home/heratom/Firefly-project/out/arsdk-native/build/libARCommands/obj/gen/Sources/ARCOMMANDS_Generator.c.o
                0x0000000000028950                ARCOMMANDS_Generator_GenerateARDrone3GPSSettingsStateGPSUpdateStateChanged
 .text.ARCOMMANDS_Generator_GenerateARDrone3GPSSettingsStateHomeTypeChanged
                0x00000000000289f0       0xa0 /home/heratom/Firefly-project/out/arsdk-native/build/libARCommands/obj/gen/Sources/ARCOMMANDS_Generator.c.o
                0x00000000000289f0                ARCOMMANDS_Generator_GenerateARDrone3GPSSettingsStateHomeTypeChanged
 .text.ARCOMMANDS_Generator_GenerateARDrone3GPSSettingsStateReturnHomeDelayChanged
                0x0000000000028a90       0xa8 /home/heratom/Firefly-project/out/arsdk-native/build/libARCommands/obj/gen/Sources/ARCOMMANDS_Generator.c.o
                0x0000000000028a90                ARCOMMANDS_Generator_GenerateARDrone3GPSSettingsStateReturnHomeDelayChanged
 *fill*         0x0000000000028b38        0x8 
 .text.ARCOMMANDS_Generator_GenerateARDrone3CameraStateOrientation
                0x0000000000028b40       0xb6 /home/heratom/Firefly-project/out/arsdk-native/build/libARCommands/obj/gen/Sources/ARCOMMANDS_Generator.c.o
                0x0000000000028b40                ARCOMMANDS_Generator_GenerateARDrone3CameraStateOrientation
 *fill*         0x0000000000028bf6        0xa 
 .text.ARCOMMANDS_Generator_GenerateARDrone3CameraStateDefaultCameraOrientation
                0x0000000000028c00       0xb6 /home/heratom/Firefly-project/out/arsdk-native/build/libARCommands/obj/gen/Sources/ARCOMMANDS_Generator.c.o
                0x0000000000028c00                ARCOMMANDS_Generator_GenerateARDrone3CameraStateDefaultCameraOrientation
 *fill*         0x0000000000028cb6        0xa 
 .text.ARCOMMANDS_Generator_GenerateARDrone3AntiflickeringStateElectricFrequencyChanged
                0x0000000000028cc0       0xa0 /home/heratom/Firefly-project/out/arsdk-native/build/libARCommands/obj/gen/Sources/ARCOMMANDS_Generator.c.o
                0x0000000000028cc0                ARCOMMANDS_Generator_GenerateARDrone3AntiflickeringStateElectricFrequencyChanged
 .text.ARCOMMANDS_Generator_GenerateARDrone3AntiflickeringStateModeChanged
                0x0000000000028d60       0xa0 /home/heratom/Firefly-project/out/arsdk-native/build/libARCommands/obj/gen/Sources/ARCOMMANDS_Generator.c.o
                0x0000000000028d60                ARCOMMANDS_Generator_GenerateARDrone3AntiflickeringStateModeChanged
 .text.ARCOMMANDS_Generator_GenerateARDrone3GPSStateNumberOfSatelliteChanged
                0x0000000000028e00       0xa0 /home/heratom/Firefly-project/out/arsdk-native/build/libARCommands/obj/gen/Sources/ARCOMMANDS_Generator.c.o
                0x0000000000028e00                ARCOMMANDS_Generator_GenerateARDrone3GPSStateNumberOfSatelliteChanged
 .text.ARCOMMANDS_Generator_GenerateARDrone3GPSStateHomeTypeAvailabilityChanged
                0x0000000000028ea0       0xb6 /home/heratom/Firefly-project/out/arsdk-native/build/libARCommands/obj/gen/Sources/ARCOMMANDS_Generator.c.o
                0x0000000000028ea0                ARCOMMANDS_Generator_GenerateARDrone3GPSStateHomeTypeAvailabilityChanged
 *fill*         0x0000000000028f56        0xa 
 .text.ARCOMMANDS_Generator_GenerateARDrone3GPSStateHomeTypeChosenChanged
                0x0000000000028f60       0xa0 /home/heratom/Firefly-project/out/arsdk-native/build/libARCommands/obj/gen/Sources/ARCOMMANDS_Generator.c.o
                0x0000000000028f60                ARCOMMANDS_Generator_GenerateARDrone3GPSStateHomeTypeChosenChanged
 .text.ARCOMMANDS_Generator_GenerateARDrone3PROStateFeatures
                0x0000000000029000       0xa0 /home/heratom/Firefly-project/out/arsdk-native/build/libARCommands/obj/gen/Sources/ARCOMMANDS_Generator.c.o
                0x0000000000029000                ARCOMMANDS_Generator_GenerateARDrone3PROStateFeatures
 .text.ARCOMMANDS_Generator_GenerateJumpingSumoPilotingPCMD
                0x00000000000290a0       0xe4 /home/heratom/Firefly-project/out/arsdk-native/build/libARCommands/obj/gen/Sources/ARCOMMANDS_Generator.c.o
                0x00000000000290a0                ARCOMMANDS_Generator_GenerateJumpingSumoPilotingPCMD
 *fill*         0x0000000000029184        0xc 
 .text.ARCOMMANDS_Generator_GenerateJumpingSumoPilotingPosture
                0x0000000000029190       0xa0 /home/heratom/Firefly-project/out/arsdk-native/build/libARCommands/obj/gen/Sources/ARCOMMANDS_Generator.c.o
                0x0000000000029190                ARCOMMANDS_Generator_GenerateJumpingSumoPilotingPosture
 .text.ARCOMMANDS_Generator_GenerateJumpingSumoPilotingAddCapOffset
                0x0000000000029230       0x9e /home/heratom/Firefly-project/out/arsdk-native/build/libARCommands/obj/gen/Sources/ARCOMMANDS_Generator.c.o
                0x0000000000029230                ARCOMMANDS_Generator_GenerateJumpingSumoPilotingAddCapOffset
 *fill*         0x00000000000292ce        0x2 
 .text.ARCOMMANDS_Generator_GenerateJumpingSumoAnimationsJumpStop
                0x00000000000292d0       0x7a /home/heratom/Firefly-project/out/arsdk-native/build/libARCommands/obj/gen/Sources/ARCOMMANDS_Generator.c.o
                0x00000000000292d0                ARCOMMANDS_Generator_GenerateJumpingSumoAnimationsJumpStop
 *fill*         0x000000000002934a        0x6 
 .text.ARCOMMANDS_Generator_GenerateJumpingSumoAnimationsJumpCancel
                0x0000000000029350       0x82 /home/heratom/Firefly-project/out/arsdk-native/build/libARCommands/obj/gen/Sources/ARCOMMANDS_Generator.c.o
                0x0000000000029350                ARCOMMANDS_Generator_GenerateJumpingSumoAnimationsJumpCancel
 *fill*         0x00000000000293d2        0xe 
 .text.ARCOMMANDS_Generator_GenerateJumpingSumoAnimationsJumpLoad
                0x00000000000293e0       0x82 /home/heratom/Firefly-project/out/arsdk-native/build/libARCommands/obj/gen/Sources/ARCOMMANDS_Generator.c.o
                0x00000000000293e0                ARCOMMANDS_Generator_GenerateJumpingSumoAnimationsJumpLoad
 *fill*         0x0000000000029462        0xe 
 .text.ARCOMMANDS_Generator_GenerateJumpingSumoAnimationsJump
                0x0000000000029470       0xa0 /home/heratom/Firefly-project/out/arsdk-native/build/libARCommands/obj/gen/Sources/ARCOMMANDS_Generator.c.o
                0x0000000000029470                ARCOMMANDS_Generator_GenerateJumpingSumoAnimationsJump
 .text.ARCOMMANDS_Generator_GenerateJumpingSumoAnimationsSimpleAnimation
                0x0000000000029510       0xa0 /home/heratom/Firefly-project/out/arsdk-native/build/libARCommands/obj/gen/Sources/ARCOMMANDS_Generator.c.o
                0x0000000000029510                ARCOMMANDS_Generator_GenerateJumpingSumoAnimationsSimpleAnimation
 .text.ARCOMMANDS_Generator_GenerateJumpingSumoMediaRecordPicture
                0x00000000000295b0       0xa0 /home/heratom/Firefly-project/out/arsdk-native/build/libARCommands/obj/gen/Sources/ARCOMMANDS_Generator.c.o
                0x00000000000295b0                ARCOMMANDS_Generator_GenerateJumpingSumoMediaRecordPicture
 .text.ARCOMMANDS_Generator_GenerateJumpingSumoMediaRecordVideo
                0x0000000000029650       0xb6 /home/heratom/Firefly-project/out/arsdk-native/build/libARCommands/obj/gen/Sources/ARCOMMANDS_Generator.c.o
                0x0000000000029650                ARCOMMANDS_Generator_GenerateJumpingSumoMediaRecordVideo
 *fill*         0x0000000000029706        0xa 
 .text.ARCOMMANDS_Generator_GenerateJumpingSumoMediaRecordPictureV2
                0x0000000000029710       0x82 /home/heratom/Firefly-project/out/arsdk-native/build/libARCommands/obj/gen/Sources/ARCOMMANDS_Generator.c.o
                0x0000000000029710                ARCOMMANDS_Generator_GenerateJumpingSumoMediaRecordPictureV2
 *fill*         0x0000000000029792        0xe 
 .text.ARCOMMANDS_Generator_GenerateJumpingSumoMediaRecordVideoV2
                0x00000000000297a0       0xa0 /home/heratom/Firefly-project/out/arsdk-native/build/libARCommands/obj/gen/Sources/ARCOMMANDS_Generator.c.o
                0x00000000000297a0                ARCOMMANDS_Generator_GenerateJumpingSumoMediaRecordVideoV2
 .text.ARCOMMANDS_Generator_GenerateJumpingSumoNetworkSettingsWifiSelection
                0x0000000000029840       0xe4 /home/heratom/Firefly-project/out/arsdk-native/build/libARCommands/obj/gen/Sources/ARCOMMANDS_Generator.c.o
                0x0000000000029840                ARCOMMANDS_Generator_GenerateJumpingSumoNetworkSettingsWifiSelection
 *fill*         0x0000000000029924        0xc 
 .text.ARCOMMANDS_Generator_GenerateJumpingSumoNetworkWifiScan
                0x0000000000029930       0xa0 /home/heratom/Firefly-project/out/arsdk-native/build/libARCommands/obj/gen/Sources/ARCOMMANDS_Generator.c.o
                0x0000000000029930                ARCOMMANDS_Generator_GenerateJumpingSumoNetworkWifiScan
 .text.ARCOMMANDS_Generator_GenerateJumpingSumoNetworkWifiAuthChannel
                0x00000000000299d0       0x82 /home/heratom/Firefly-project/out/arsdk-native/build/libARCommands/obj/gen/Sources/ARCOMMANDS_Generator.c.o
                0x00000000000299d0                ARCOMMANDS_Generator_GenerateJumpingSumoNetworkWifiAuthChannel
 *fill*         0x0000000000029a52        0xe 
 .text.ARCOMMANDS_Generator_GenerateJumpingSumoAudioSettingsMasterVolume
                0x0000000000029a60       0xa0 /home/heratom/Firefly-project/out/arsdk-native/build/libARCommands/obj/gen/Sources/ARCOMMANDS_Generator.c.o
                0x0000000000029a60                ARCOMMANDS_Generator_GenerateJumpingSumoAudioSettingsMasterVolume
 .text.ARCOMMANDS_Generator_GenerateJumpingSumoAudioSettingsTheme
                0x0000000000029b00       0xa0 /home/heratom/Firefly-project/out/arsdk-native/build/libARCommands/obj/gen/Sources/ARCOMMANDS_Generator.c.o
                0x0000000000029b00                ARCOMMANDS_Generator_GenerateJumpingSumoAudioSettingsTheme
 .text.ARCOMMANDS_Generator_GenerateJumpingSumoRoadPlanAllScriptsMetadata
                0x0000000000029ba0       0x7a /home/heratom/Firefly-project/out/arsdk-native/build/libARCommands/obj/gen/Sources/ARCOMMANDS_Generator.c.o
                0x0000000000029ba0                ARCOMMANDS_Generator_GenerateJumpingSumoRoadPlanAllScriptsMetadata
 *fill*         0x0000000000029c1a        0x6 
 .text.ARCOMMANDS_Generator_GenerateJumpingSumoRoadPlanScriptUploaded
                0x0000000000029c20       0xe0 /home/heratom/Firefly-project/out/arsdk-native/build/libARCommands/obj/gen/Sources/ARCOMMANDS_Generator.c.o
                0x0000000000029c20                ARCOMMANDS_Generator_GenerateJumpingSumoRoadPlanScriptUploaded
 .text.ARCOMMANDS_Generator_GenerateJumpingSumoRoadPlanScriptDelete
                0x0000000000029d00       0xb0 /home/heratom/Firefly-project/out/arsdk-native/build/libARCommands/obj/gen/Sources/ARCOMMANDS_Generator.c.o
                0x0000000000029d00                ARCOMMANDS_Generator_GenerateJumpingSumoRoadPlanScriptDelete
 .text.ARCOMMANDS_Generator_GenerateJumpingSumoRoadPlanPlayScript
                0x0000000000029db0       0xb0 /home/heratom/Firefly-project/out/arsdk-native/build/libARCommands/obj/gen/Sources/ARCOMMANDS_Generator.c.o
                0x0000000000029db0                ARCOMMANDS_Generator_GenerateJumpingSumoRoadPlanPlayScript
 .text.ARCOMMANDS_Generator_GenerateJumpingSumoSpeedSettingsOutdoor
                0x0000000000029e60       0xa0 /home/heratom/Firefly-project/out/arsdk-native/build/libARCommands/obj/gen/Sources/ARCOMMANDS_Generator.c.o
                0x0000000000029e60                ARCOMMANDS_Generator_GenerateJumpingSumoSpeedSettingsOutdoor
 .text.ARCOMMANDS_Generator_GenerateJumpingSumoMediaStreamingVideoEnable
                0x0000000000029f00       0xa0 /home/heratom/Firefly-project/out/arsdk-native/build/libARCommands/obj/gen/Sources/ARCOMMANDS_Generator.c.o
                0x0000000000029f00                ARCOMMANDS_Generator_GenerateJumpingSumoMediaStreamingVideoEnable
 .text.ARCOMMANDS_Generator_GenerateJumpingSumoVideoSettingsAutorecord
                0x0000000000029fa0       0xa0 /home/heratom/Firefly-project/out/arsdk-native/build/libARCommands/obj/gen/Sources/ARCOMMANDS_Generator.c.o
                0x0000000000029fa0                ARCOMMANDS_Generator_GenerateJumpingSumoVideoSettingsAutorecord
 .text.ARCOMMANDS_Generator_GenerateJumpingSumoPilotingStatePostureChanged
                0x000000000002a040       0xa0 /home/heratom/Firefly-project/out/arsdk-native/build/libARCommands/obj/gen/Sources/ARCOMMANDS_Generator.c.o
                0x000000000002a040                ARCOMMANDS_Generator_GenerateJumpingSumoPilotingStatePostureChanged
 .text.ARCOMMANDS_Generator_GenerateJumpingSumoPilotingStateAlertStateChanged
                0x000000000002a0e0       0xa0 /home/heratom/Firefly-project/out/arsdk-native/build/libARCommands/obj/gen/Sources/ARCOMMANDS_Generator.c.o
                0x000000000002a0e0                ARCOMMANDS_Generator_GenerateJumpingSumoPilotingStateAlertStateChanged
 .text.ARCOMMANDS_Generator_GenerateJumpingSumoPilotingStateSpeedChanged
                0x000000000002a180       0xb6 /home/heratom/Firefly-project/out/arsdk-native/build/libARCommands/obj/gen/Sources/ARCOMMANDS_Generator.c.o
                0x000000000002a180                ARCOMMANDS_Generator_GenerateJumpingSumoPilotingStateSpeedChanged
 *fill*         0x000000000002a236        0xa 
 .text.ARCOMMANDS_Generator_GenerateJumpingSumoAnimationsStateJumpLoadChanged
                0x000000000002a240       0xa0 /home/heratom/Firefly-project/out/arsdk-native/build/libARCommands/obj/gen/Sources/ARCOMMANDS_Generator.c.o
                0x000000000002a240                ARCOMMANDS_Generator_GenerateJumpingSumoAnimationsStateJumpLoadChanged
 .text.ARCOMMANDS_Generator_GenerateJumpingSumoAnimationsStateJumpTypeChanged
                0x000000000002a2e0       0xa0 /home/heratom/Firefly-project/out/arsdk-native/build/libARCommands/obj/gen/Sources/ARCOMMANDS_Generator.c.o
                0x000000000002a2e0                ARCOMMANDS_Generator_GenerateJumpingSumoAnimationsStateJumpTypeChanged
 .text.ARCOMMANDS_Generator_GenerateJumpingSumoAnimationsStateJumpMotorProblemChanged
                0x000000000002a380       0xa0 /home/heratom/Firefly-project/out/arsdk-native/build/libARCommands/obj/gen/Sources/ARCOMMANDS_Generator.c.o
                0x000000000002a380                ARCOMMANDS_Generator_GenerateJumpingSumoAnimationsStateJumpMotorProblemChanged
 .text.ARCOMMANDS_Generator_GenerateJumpingSumoSettingsStateProductGPSVersionChanged
                0x000000000002a420       0xe0 /home/heratom/Firefly-project/out/arsdk-native/build/libARCommands/obj/gen/Sources/ARCOMMANDS_Generator.c.o
                0x000000000002a420                ARCOMMANDS_Generator_GenerateJumpingSumoSettingsStateProductGPSVersionChanged
 .text.ARCOMMANDS_Generator_GenerateJumpingSumoMediaRecordStatePictureStateChanged
                0x000000000002a500       0xb6 /home/heratom/Firefly-project/out/arsdk-native/build/libARCommands/obj/gen/Sources/ARCOMMANDS_Generator.c.o
                0x000000000002a500                ARCOMMANDS_Generator_GenerateJumpingSumoMediaRecordStatePictureStateChanged
 *fill*         0x000000000002a5b6        0xa 
 .text.ARCOMMANDS_Generator_GenerateJumpingSumoMediaRecordStateVideoStateChanged
                0x000000000002a5c0       0xb6 /home/heratom/Firefly-project/out/arsdk-native/build/libARCommands/obj/gen/Sources/ARCOMMANDS_Generator.c.o
                0x000000000002a5c0                ARCOMMANDS_Generator_GenerateJumpingSumoMediaRecordStateVideoStateChanged
 *fill*         0x000000000002a676        0xa 
 .text.ARCOMMANDS_Generator_GenerateJumpingSumoMediaRecordStatePictureStateChangedV2
                0x000000000002a680       0xb6 /home/heratom/Firefly-project/out/arsdk-native/build/libARCommands/obj/gen/Sources/ARCOMMANDS_Generator.c.o
                0x000000000002a680                ARCOMMANDS_Generator_GenerateJumpingSumoMediaRecordStatePictureStateChangedV2
 *fill*         0x000000000002a736        0xa 
 .text.ARCOMMANDS_Generator_GenerateJumpingSumoMediaRecordStateVideoStateChangedV2
                0x000000000002a740       0xb6 /home/heratom/Firefly-project/out/arsdk-native/build/libARCommands/obj/gen/Sources/ARCOMMANDS_Generator.c.o
                0x000000000002a740                ARCOMMANDS_Generator_GenerateJumpingSumoMediaRecordStateVideoStateChangedV2
 *fill*         0x000000000002a7f6        0xa 
 .text.ARCOMMANDS_Generator_GenerateJumpingSumoMediaRecordEventPictureEventChanged
                0x000000000002a800       0xae /home/heratom/Firefly-project/out/arsdk-native/build/libARCommands/obj/gen/Sources/ARCOMMANDS_Generator.c.o
                0x000000000002a800                ARCOMMANDS_Generator_GenerateJumpingSumoMediaRecordEventPictureEventChanged
 *fill*         0x000000000002a8ae        0x2 
 .text.ARCOMMANDS_Generator_GenerateJumpingSumoMediaRecordEventVideoEventChanged
                0x000000000002a8b0       0xb6 /home/heratom/Firefly-project/out/arsdk-native/build/libARCommands/obj/gen/Sources/ARCOMMANDS_Generator.c.o
                0x000000000002a8b0                ARCOMMANDS_Generator_GenerateJumpingSumoMediaRecordEventVideoEventChanged
 *fill*         0x000000000002a966        0xa 
 .text.ARCOMMANDS_Generator_GenerateJumpingSumoNetworkSettingsStateWifiSelectionChanged
                0x000000000002a970       0xe4 /home/heratom/Firefly-project/out/arsdk-native/build/libARCommands/obj/gen/Sources/ARCOMMANDS_Generator.c.o
                0x000000000002a970                ARCOMMANDS_Generator_GenerateJumpingSumoNetworkSettingsStateWifiSelectionChanged
 *fill*         0x000000000002aa54        0xc 
 .text.ARCOMMANDS_Generator_GenerateJumpingSumoNetworkStateWifiScanListChanged
                0x000000000002aa60      0x12c /home/heratom/Firefly-project/out/arsdk-native/build/libARCommands/obj/gen/Sources/ARCOMMANDS_Generator.c.o
                0x000000000002aa60                ARCOMMANDS_Generator_GenerateJumpingSumoNetworkStateWifiScanListChanged
 *fill*         0x000000000002ab8c        0x4 
 .text.ARCOMMANDS_Generator_GenerateJumpingSumoNetworkStateAllWifiScanChanged
                0x000000000002ab90       0x82 /home/heratom/Firefly-project/out/arsdk-native/build/libARCommands/obj/gen/Sources/ARCOMMANDS_Generator.c.o
                0x000000000002ab90                ARCOMMANDS_Generator_GenerateJumpingSumoNetworkStateAllWifiScanChanged
 *fill*         0x000000000002ac12        0xe 
 .text.ARCOMMANDS_Generator_GenerateJumpingSumoNetworkStateWifiAuthChannelListChanged
                0x000000000002ac20       0xe4 /home/heratom/Firefly-project/out/arsdk-native/build/libARCommands/obj/gen/Sources/ARCOMMANDS_Generator.c.o
                0x000000000002ac20                ARCOMMANDS_Generator_GenerateJumpingSumoNetworkStateWifiAuthChannelListChanged
 *fill*         0x000000000002ad04        0xc 
 .text.ARCOMMANDS_Generator_GenerateJumpingSumoNetworkStateAllWifiAuthChannelChanged
                0x000000000002ad10       0x82 /home/heratom/Firefly-project/out/arsdk-native/build/libARCommands/obj/gen/Sources/ARCOMMANDS_Generator.c.o
                0x000000000002ad10                ARCOMMANDS_Generator_GenerateJumpingSumoNetworkStateAllWifiAuthChannelChanged
 *fill*         0x000000000002ad92        0xe 
 .text.ARCOMMANDS_Generator_GenerateJumpingSumoNetworkStateLinkQualityChanged
                0x000000000002ada0       0xa8 /home/heratom/Firefly-project/out/arsdk-native/build/libARCommands/obj/gen/Sources/ARCOMMANDS_Generator.c.o
                0x000000000002ada0                ARCOMMANDS_Generator_GenerateJumpingSumoNetworkStateLinkQualityChanged
 *fill*         0x000000000002ae48        0x8 
 .text.ARCOMMANDS_Generator_GenerateJumpingSumoAudioSettingsStateMasterVolumeChanged
                0x000000000002ae50       0xa0 /home/heratom/Firefly-project/out/arsdk-native/build/libARCommands/obj/gen/Sources/ARCOMMANDS_Generator.c.o
                0x000000000002ae50                ARCOMMANDS_Generator_GenerateJumpingSumoAudioSettingsStateMasterVolumeChanged
 .text.ARCOMMANDS_Generator_GenerateJumpingSumoAudioSettingsStateThemeChanged
                0x000000000002aef0       0xa0 /home/heratom/Firefly-project/out/arsdk-native/build/libARCommands/obj/gen/Sources/ARCOMMANDS_Generator.c.o
                0x000000000002aef0                ARCOMMANDS_Generator_GenerateJumpingSumoAudioSettingsStateThemeChanged
 .text.ARCOMMANDS_Generator_GenerateJumpingSumoRoadPlanStateScriptMetadataListChanged
                0x000000000002af90      0x14c /home/heratom/Firefly-project/out/arsdk-native/build/libARCommands/obj/gen/Sources/ARCOMMANDS_Generator.c.o
                0x000000000002af90                ARCOMMANDS_Generator_GenerateJumpingSumoRoadPlanStateScriptMetadataListChanged
 *fill*         0x000000000002b0dc        0x4 
 .text.ARCOMMANDS_Generator_GenerateJumpingSumoRoadPlanStateAllScriptsMetadataChanged
                0x000000000002b0e0       0x82 /home/heratom/Firefly-project/out/arsdk-native/build/libARCommands/obj/gen/Sources/ARCOMMANDS_Generator.c.o
                0x000000000002b0e0                ARCOMMANDS_Generator_GenerateJumpingSumoRoadPlanStateAllScriptsMetadataChanged
 *fill*         0x000000000002b162        0xe 
 .text.ARCOMMANDS_Generator_GenerateJumpingSumoRoadPlanStateScriptUploadChanged
                0x000000000002b170       0xa0 /home/heratom/Firefly-project/out/arsdk-native/build/libARCommands/obj/gen/Sources/ARCOMMANDS_Generator.c.o
                0x000000000002b170                ARCOMMANDS_Generator_GenerateJumpingSumoRoadPlanStateScriptUploadChanged
 .text.ARCOMMANDS_Generator_GenerateJumpingSumoRoadPlanStateScriptDeleteChanged
                0x000000000002b210       0xa0 /home/heratom/Firefly-project/out/arsdk-native/build/libARCommands/obj/gen/Sources/ARCOMMANDS_Generator.c.o
                0x000000000002b210                ARCOMMANDS_Generator_GenerateJumpingSumoRoadPlanStateScriptDeleteChanged
 .text.ARCOMMANDS_Generator_GenerateJumpingSumoRoadPlanStatePlayScriptChanged
                0x000000000002b2b0       0xa0 /home/heratom/Firefly-project/out/arsdk-native/build/libARCommands/obj/gen/Sources/ARCOMMANDS_Generator.c.o
                0x000000000002b2b0                ARCOMMANDS_Generator_GenerateJumpingSumoRoadPlanStatePlayScriptChanged
 .text.ARCOMMANDS_Generator_GenerateJumpingSumoSpeedSettingsStateOutdoorChanged
                0x000000000002b350       0xa0 /home/heratom/Firefly-project/out/arsdk-native/build/libARCommands/obj/gen/Sources/ARCOMMANDS_Generator.c.o
                0x000000000002b350                ARCOMMANDS_Generator_GenerateJumpingSumoSpeedSettingsStateOutdoorChanged
 .text.ARCOMMANDS_Generator_GenerateJumpingSumoMediaStreamingStateVideoEnableChanged
                0x000000000002b3f0       0xa0 /home/heratom/Firefly-project/out/arsdk-native/build/libARCommands/obj/gen/Sources/ARCOMMANDS_Generator.c.o
                0x000000000002b3f0                ARCOMMANDS_Generator_GenerateJumpingSumoMediaStreamingStateVideoEnableChanged
 .text.ARCOMMANDS_Generator_GenerateJumpingSumoVideoSettingsStateAutorecordChanged
                0x000000000002b490       0xa0 /home/heratom/Firefly-project/out/arsdk-native/build/libARCommands/obj/gen/Sources/ARCOMMANDS_Generator.c.o
                0x000000000002b490                ARCOMMANDS_Generator_GenerateJumpingSumoVideoSettingsStateAutorecordChanged
 .text.ARCOMMANDS_Generator_GenerateMiniDronePilotingFlatTrim
                0x000000000002b530       0x7a /home/heratom/Firefly-project/out/arsdk-native/build/libARCommands/obj/gen/Sources/ARCOMMANDS_Generator.c.o
                0x000000000002b530                ARCOMMANDS_Generator_GenerateMiniDronePilotingFlatTrim
 *fill*         0x000000000002b5aa        0x6 
 .text.ARCOMMANDS_Generator_GenerateMiniDronePilotingTakeOff
                0x000000000002b5b0       0x7a /home/heratom/Firefly-project/out/arsdk-native/build/libARCommands/obj/gen/Sources/ARCOMMANDS_Generator.c.o
                0x000000000002b5b0                ARCOMMANDS_Generator_GenerateMiniDronePilotingTakeOff
 *fill*         0x000000000002b62a        0x6 
 .text.ARCOMMANDS_Generator_GenerateMiniDronePilotingPCMD
                0x000000000002b630      0x14c /home/heratom/Firefly-project/out/arsdk-native/build/libARCommands/obj/gen/Sources/ARCOMMANDS_Generator.c.o
                0x000000000002b630                ARCOMMANDS_Generator_GenerateMiniDronePilotingPCMD
 *fill*         0x000000000002b77c        0x4 
 .text.ARCOMMANDS_Generator_GenerateMiniDronePilotingLanding
                0x000000000002b780       0x7a /home/heratom/Firefly-project/out/arsdk-native/build/libARCommands/obj/gen/Sources/ARCOMMANDS_Generator.c.o
                0x000000000002b780                ARCOMMANDS_Generator_GenerateMiniDronePilotingLanding
 *fill*         0x000000000002b7fa        0x6 
 .text.ARCOMMANDS_Generator_GenerateMiniDronePilotingEmergency
                0x000000000002b800       0x7a /home/heratom/Firefly-project/out/arsdk-native/build/libARCommands/obj/gen/Sources/ARCOMMANDS_Generator.c.o
                0x000000000002b800                ARCOMMANDS_Generator_GenerateMiniDronePilotingEmergency
 *fill*         0x000000000002b87a        0x6 
 .text.ARCOMMANDS_Generator_GenerateMiniDronePilotingAutoTakeOffMode
                0x000000000002b880       0xa0 /home/heratom/Firefly-project/out/arsdk-native/build/libARCommands/obj/gen/Sources/ARCOMMANDS_Generator.c.o
                0x000000000002b880                ARCOMMANDS_Generator_GenerateMiniDronePilotingAutoTakeOffMode
 .text.ARCOMMANDS_Generator_GenerateMiniDroneAnimationsFlip
                0x000000000002b920       0xa0 /home/heratom/Firefly-project/out/arsdk-native/build/libARCommands/obj/gen/Sources/ARCOMMANDS_Generator.c.o
                0x000000000002b920                ARCOMMANDS_Generator_GenerateMiniDroneAnimationsFlip
 .text.ARCOMMANDS_Generator_GenerateMiniDroneAnimationsCap
                0x000000000002b9c0       0xa8 /home/heratom/Firefly-project/out/arsdk-native/build/libARCommands/obj/gen/Sources/ARCOMMANDS_Generator.c.o
                0x000000000002b9c0                ARCOMMANDS_Generator_GenerateMiniDroneAnimationsCap
 *fill*         0x000000000002ba68        0x8 
 .text.ARCOMMANDS_Generator_GenerateMiniDroneMediaRecordPicture
                0x000000000002ba70       0xa0 /home/heratom/Firefly-project/out/arsdk-native/build/libARCommands/obj/gen/Sources/ARCOMMANDS_Generator.c.o
                0x000000000002ba70                ARCOMMANDS_Generator_GenerateMiniDroneMediaRecordPicture
 .text.ARCOMMANDS_Generator_GenerateMiniDroneMediaRecordPictureV2
                0x000000000002bb10       0x82 /home/heratom/Firefly-project/out/arsdk-native/build/libARCommands/obj/gen/Sources/ARCOMMANDS_Generator.c.o
                0x000000000002bb10                ARCOMMANDS_Generator_GenerateMiniDroneMediaRecordPictureV2
 *fill*         0x000000000002bb92        0xe 
 .text.ARCOMMANDS_Generator_GenerateMiniDronePilotingSettingsMaxAltitude
                0x000000000002bba0       0x9e /home/heratom/Firefly-project/out/arsdk-native/build/libARCommands/obj/gen/Sources/ARCOMMANDS_Generator.c.o
                0x000000000002bba0                ARCOMMANDS_Generator_GenerateMiniDronePilotingSettingsMaxAltitude
 *fill*         0x000000000002bc3e        0x2 
 .text.ARCOMMANDS_Generator_GenerateMiniDronePilotingSettingsMaxTilt
                0x000000000002bc40       0x9e /home/heratom/Firefly-project/out/arsdk-native/build/libARCommands/obj/gen/Sources/ARCOMMANDS_Generator.c.o
                0x000000000002bc40                ARCOMMANDS_Generator_GenerateMiniDronePilotingSettingsMaxTilt
 *fill*         0x000000000002bcde        0x2 
 .text.ARCOMMANDS_Generator_GenerateMiniDroneSpeedSettingsMaxVerticalSpeed
                0x000000000002bce0       0x9e /home/heratom/Firefly-project/out/arsdk-native/build/libARCommands/obj/gen/Sources/ARCOMMANDS_Generator.c.o
                0x000000000002bce0                ARCOMMANDS_Generator_GenerateMiniDroneSpeedSettingsMaxVerticalSpeed
 *fill*         0x000000000002bd7e        0x2 
 .text.ARCOMMANDS_Generator_GenerateMiniDroneSpeedSettingsMaxRotationSpeed
                0x000000000002bd80       0x9e /home/heratom/Firefly-project/out/arsdk-native/build/libARCommands/obj/gen/Sources/ARCOMMANDS_Generator.c.o
                0x000000000002bd80                ARCOMMANDS_Generator_GenerateMiniDroneSpeedSettingsMaxRotationSpeed
 *fill*         0x000000000002be1e        0x2 
 .text.ARCOMMANDS_Generator_GenerateMiniDroneSpeedSettingsWheels
                0x000000000002be20       0xa8 /home/heratom/Firefly-project/out/arsdk-native/build/libARCommands/obj/gen/Sources/ARCOMMANDS_Generator.c.o
                0x000000000002be20                ARCOMMANDS_Generator_GenerateMiniDroneSpeedSettingsWheels
 *fill*         0x000000000002bec8        0x8 
 .text.ARCOMMANDS_Generator_GenerateMiniDroneSpeedSettingsMaxHorizontalSpeed
                0x000000000002bed0       0x9e /home/heratom/Firefly-project/out/arsdk-native/build/libARCommands/obj/gen/Sources/ARCOMMANDS_Generator.c.o
                0x000000000002bed0                ARCOMMANDS_Generator_GenerateMiniDroneSpeedSettingsMaxHorizontalSpeed
 *fill*         0x000000000002bf6e        0x2 
 .text.ARCOMMANDS_Generator_GenerateMiniDroneSettingsCutOutMode
                0x000000000002bf70       0xa0 /home/heratom/Firefly-project/out/arsdk-native/build/libARCommands/obj/gen/Sources/ARCOMMANDS_Generator.c.o
                0x000000000002bf70                ARCOMMANDS_Generator_GenerateMiniDroneSettingsCutOutMode
 .text.ARCOMMANDS_Generator_GenerateMiniDroneGPSControllerLatitudeForRun
                0x000000000002c010       0x9e /home/heratom/Firefly-project/out/arsdk-native/build/libARCommands/obj/gen/Sources/ARCOMMANDS_Generator.c.o
                0x000000000002c010                ARCOMMANDS_Generator_GenerateMiniDroneGPSControllerLatitudeForRun
 *fill*         0x000000000002c0ae        0x2 
 .text.ARCOMMANDS_Generator_GenerateMiniDroneGPSControllerLongitudeForRun
                0x000000000002c0b0       0x9e /home/heratom/Firefly-project/out/arsdk-native/build/libARCommands/obj/gen/Sources/ARCOMMANDS_Generator.c.o
                0x000000000002c0b0                ARCOMMANDS_Generator_GenerateMiniDroneGPSControllerLongitudeForRun
 *fill*         0x000000000002c14e        0x2 
 .text.ARCOMMANDS_Generator_GenerateMiniDroneConfigurationControllerType
                0x000000000002c150       0xb0 /home/heratom/Firefly-project/out/arsdk-native/build/libARCommands/obj/gen/Sources/ARCOMMANDS_Generator.c.o
                0x000000000002c150                ARCOMMANDS_Generator_GenerateMiniDroneConfigurationControllerType
 .text.ARCOMMANDS_Generator_GenerateMiniDroneConfigurationControllerName
                0x000000000002c200       0xb0 /home/heratom/Firefly-project/out/arsdk-native/build/libARCommands/obj/gen/Sources/ARCOMMANDS_Generator.c.o
                0x000000000002c200                ARCOMMANDS_Generator_GenerateMiniDroneConfigurationControllerName
 .text.ARCOMMANDS_Generator_GenerateMiniDronePilotingStateFlatTrimChanged
                0x000000000002c2b0       0x7a /home/heratom/Firefly-project/out/arsdk-native/build/libARCommands/obj/gen/Sources/ARCOMMANDS_Generator.c.o
                0x000000000002c2b0                ARCOMMANDS_Generator_GenerateMiniDronePilotingStateFlatTrimChanged
 *fill*         0x000000000002c32a        0x6 
 .text.ARCOMMANDS_Generator_GenerateMiniDronePilotingStateFlyingStateChanged
                0x000000000002c330       0xa0 /home/heratom/Firefly-project/out/arsdk-native/build/libARCommands/obj/gen/Sources/ARCOMMANDS_Generator.c.o
                0x000000000002c330                ARCOMMANDS_Generator_GenerateMiniDronePilotingStateFlyingStateChanged
 .text.ARCOMMANDS_Generator_GenerateMiniDronePilotingStateAlertStateChanged
                0x000000000002c3d0       0xa0 /home/heratom/Firefly-project/out/arsdk-native/build/libARCommands/obj/gen/Sources/ARCOMMANDS_Generator.c.o
                0x000000000002c3d0                ARCOMMANDS_Generator_GenerateMiniDronePilotingStateAlertStateChanged
 .text.ARCOMMANDS_Generator_GenerateMiniDronePilotingStateAutoTakeOffModeChanged
                0x000000000002c470       0xa8 /home/heratom/Firefly-project/out/arsdk-native/build/libARCommands/obj/gen/Sources/ARCOMMANDS_Generator.c.o
                0x000000000002c470                ARCOMMANDS_Generator_GenerateMiniDronePilotingStateAutoTakeOffModeChanged
 *fill*         0x000000000002c518        0x8 
 .text.ARCOMMANDS_Generator_GenerateMiniDroneMediaRecordStatePictureStateChanged
                0x000000000002c520       0xb6 /home/heratom/Firefly-project/out/arsdk-native/build/libARCommands/obj/gen/Sources/ARCOMMANDS_Generator.c.o
                0x000000000002c520                ARCOMMANDS_Generator_GenerateMiniDroneMediaRecordStatePictureStateChanged
 *fill*         0x000000000002c5d6        0xa 
 .text.ARCOMMANDS_Generator_GenerateMiniDroneMediaRecordStatePictureStateChangedV2
                0x000000000002c5e0       0xb6 /home/heratom/Firefly-project/out/arsdk-native/build/libARCommands/obj/gen/Sources/ARCOMMANDS_Generator.c.o
                0x000000000002c5e0                ARCOMMANDS_Generator_GenerateMiniDroneMediaRecordStatePictureStateChangedV2
 *fill*         0x000000000002c696        0xa 
 .text.ARCOMMANDS_Generator_GenerateMiniDroneMediaRecordEventPictureEventChanged
                0x000000000002c6a0       0xae /home/heratom/Firefly-project/out/arsdk-native/build/libARCommands/obj/gen/Sources/ARCOMMANDS_Generator.c.o
                0x000000000002c6a0                ARCOMMANDS_Generator_GenerateMiniDroneMediaRecordEventPictureEventChanged
 *fill*         0x000000000002c74e        0x2 
 .text.ARCOMMANDS_Generator_GenerateMiniDronePilotingSettingsStateMaxAltitudeChanged
                0x000000000002c750       0xde /home/heratom/Firefly-project/out/arsdk-native/build/libARCommands/obj/gen/Sources/ARCOMMANDS_Generator.c.o
                0x000000000002c750                ARCOMMANDS_Generator_GenerateMiniDronePilotingSettingsStateMaxAltitudeChanged
 *fill*         0x000000000002c82e        0x2 
 .text.ARCOMMANDS_Generator_GenerateMiniDronePilotingSettingsStateMaxTiltChanged
                0x000000000002c830       0xde /home/heratom/Firefly-project/out/arsdk-native/build/libARCommands/obj/gen/Sources/ARCOMMANDS_Generator.c.o
                0x000000000002c830                ARCOMMANDS_Generator_GenerateMiniDronePilotingSettingsStateMaxTiltChanged
 *fill*         0x000000000002c90e        0x2 
 .text.ARCOMMANDS_Generator_GenerateMiniDroneSpeedSettingsStateMaxVerticalSpeedChanged
                0x000000000002c910       0xde /home/heratom/Firefly-project/out/arsdk-native/build/libARCommands/obj/gen/Sources/ARCOMMANDS_Generator.c.o
                0x000000000002c910                ARCOMMANDS_Generator_GenerateMiniDroneSpeedSettingsStateMaxVerticalSpeedChanged
 *fill*         0x000000000002c9ee        0x2 
 .text.ARCOMMANDS_Generator_GenerateMiniDroneSpeedSettingsStateMaxRotationSpeedChanged
                0x000000000002c9f0       0xde /home/heratom/Firefly-project/out/arsdk-native/build/libARCommands/obj/gen/Sources/ARCOMMANDS_Generator.c.o
                0x000000000002c9f0                ARCOMMANDS_Generator_GenerateMiniDroneSpeedSettingsStateMaxRotationSpeedChanged
 *fill*         0x000000000002cace        0x2 
 .text.ARCOMMANDS_Generator_GenerateMiniDroneSpeedSettingsStateWheelsChanged
                0x000000000002cad0       0xa8 /home/heratom/Firefly-project/out/arsdk-native/build/libARCommands/obj/gen/Sources/ARCOMMANDS_Generator.c.o
                0x000000000002cad0                ARCOMMANDS_Generator_GenerateMiniDroneSpeedSettingsStateWheelsChanged
 *fill*         0x000000000002cb78        0x8 
 .text.ARCOMMANDS_Generator_GenerateMiniDroneSpeedSettingsStateMaxHorizontalSpeedChanged
                0x000000000002cb80       0xde /home/heratom/Firefly-project/out/arsdk-native/build/libARCommands/obj/gen/Sources/ARCOMMANDS_Generator.c.o
                0x000000000002cb80                ARCOMMANDS_Generator_GenerateMiniDroneSpeedSettingsStateMaxHorizontalSpeedChanged
 *fill*         0x000000000002cc5e        0x2 
 .text.ARCOMMANDS_Generator_GenerateMiniDroneSettingsStateProductMotorsVersionChanged
                0x000000000002cc60      0x13c /home/heratom/Firefly-project/out/arsdk-native/build/libARCommands/obj/gen/Sources/ARCOMMANDS_Generator.c.o
                0x000000000002cc60                ARCOMMANDS_Generator_GenerateMiniDroneSettingsStateProductMotorsVersionChanged
 *fill*         0x000000000002cd9c        0x4 
 .text.ARCOMMANDS_Generator_GenerateMiniDroneSettingsStateProductInertialVersionChanged
                0x000000000002cda0       0xe0 /home/heratom/Firefly-project/out/arsdk-native/build/libARCommands/obj/gen/Sources/ARCOMMANDS_Generator.c.o
                0x000000000002cda0                ARCOMMANDS_Generator_GenerateMiniDroneSettingsStateProductInertialVersionChanged
 .text.ARCOMMANDS_Generator_GenerateMiniDroneSettingsStateCutOutModeChanged
                0x000000000002ce80       0xa8 /home/heratom/Firefly-project/out/arsdk-native/build/libARCommands/obj/gen/Sources/ARCOMMANDS_Generator.c.o
                0x000000000002ce80                ARCOMMANDS_Generator_GenerateMiniDroneSettingsStateCutOutModeChanged
 *fill*         0x000000000002cf28        0x8 
 .text.ARCOMMANDS_Generator_GenerateMiniDroneFloodControlStateFloodControlChanged
                0x000000000002cf30       0xa0 /home/heratom/Firefly-project/out/arsdk-native/build/libARCommands/obj/gen/Sources/ARCOMMANDS_Generator.c.o
                0x000000000002cf30                ARCOMMANDS_Generator_GenerateMiniDroneFloodControlStateFloodControlChanged
 .text.ARCOMMANDS_Generator_GenerateSkyControllerWifiRequestWifiList
                0x000000000002cfd0       0x7a /home/heratom/Firefly-project/out/arsdk-native/build/libARCommands/obj/gen/Sources/ARCOMMANDS_Generator.c.o
                0x000000000002cfd0                ARCOMMANDS_Generator_GenerateSkyControllerWifiRequestWifiList
 *fill*         0x000000000002d04a        0x6 
 .text.ARCOMMANDS_Generator_GenerateSkyControllerWifiRequestCurrentWifi
                0x000000000002d050       0x82 /home/heratom/Firefly-project/out/arsdk-native/build/libARCommands/obj/gen/Sources/ARCOMMANDS_Generator.c.o
                0x000000000002d050                ARCOMMANDS_Generator_GenerateSkyControllerWifiRequestCurrentWifi
 *fill*         0x000000000002d0d2        0xe 
 .text.ARCOMMANDS_Generator_GenerateSkyControllerWifiConnectToWifi
                0x000000000002d0e0      0x10c /home/heratom/Firefly-project/out/arsdk-native/build/libARCommands/obj/gen/Sources/ARCOMMANDS_Generator.c.o
                0x000000000002d0e0                ARCOMMANDS_Generator_GenerateSkyControllerWifiConnectToWifi
 *fill*         0x000000000002d1ec        0x4 
 .text.ARCOMMANDS_Generator_GenerateSkyControllerWifiForgetWifi
                0x000000000002d1f0       0xb0 /home/heratom/Firefly-project/out/arsdk-native/build/libARCommands/obj/gen/Sources/ARCOMMANDS_Generator.c.o
                0x000000000002d1f0                ARCOMMANDS_Generator_GenerateSkyControllerWifiForgetWifi
 .text.ARCOMMANDS_Generator_GenerateSkyControllerWifiWifiAuthChannel
                0x000000000002d2a0       0x82 /home/heratom/Firefly-project/out/arsdk-native/build/libARCommands/obj/gen/Sources/ARCOMMANDS_Generator.c.o
                0x000000000002d2a0                ARCOMMANDS_Generator_GenerateSkyControllerWifiWifiAuthChannel
 *fill*         0x000000000002d322        0xe 
 .text.ARCOMMANDS_Generator_GenerateSkyControllerDeviceRequestDeviceList
                0x000000000002d330       0x7a /home/heratom/Firefly-project/out/arsdk-native/build/libARCommands/obj/gen/Sources/ARCOMMANDS_Generator.c.o
                0x000000000002d330                ARCOMMANDS_Generator_GenerateSkyControllerDeviceRequestDeviceList
 *fill*         0x000000000002d3aa        0x6 
 .text.ARCOMMANDS_Generator_GenerateSkyControllerDeviceRequestCurrentDevice
                0x000000000002d3b0       0x82 /home/heratom/Firefly-project/out/arsdk-native/build/libARCommands/obj/gen/Sources/ARCOMMANDS_Generator.c.o
                0x000000000002d3b0                ARCOMMANDS_Generator_GenerateSkyControllerDeviceRequestCurrentDevice
 *fill*         0x000000000002d432        0xe 
 .text.ARCOMMANDS_Generator_GenerateSkyControllerDeviceConnectToDevice
                0x000000000002d440       0xb0 /home/heratom/Firefly-project/out/arsdk-native/build/libARCommands/obj/gen/Sources/ARCOMMANDS_Generator.c.o
                0x000000000002d440                ARCOMMANDS_Generator_GenerateSkyControllerDeviceConnectToDevice
 .text.ARCOMMANDS_Generator_GenerateSkyControllerSettingsAllSettings
                0x000000000002d4f0       0x7a /home/heratom/Firefly-project/out/arsdk-native/build/libARCommands/obj/gen/Sources/ARCOMMANDS_Generator.c.o
                0x000000000002d4f0                ARCOMMANDS_Generator_GenerateSkyControllerSettingsAllSettings
 *fill*         0x000000000002d56a        0x6 
 .text.ARCOMMANDS_Generator_GenerateSkyControllerSettingsReset
                0x000000000002d570       0x82 /home/heratom/Firefly-project/out/arsdk-native/build/libARCommands/obj/gen/Sources/ARCOMMANDS_Generator.c.o
                0x000000000002d570                ARCOMMANDS_Generator_GenerateSkyControllerSettingsReset
 *fill*         0x000000000002d5f2        0xe 
 .text.ARCOMMANDS_Generator_GenerateSkyControllerCommonAllStates
                0x000000000002d600       0x7a /home/heratom/Firefly-project/out/arsdk-native/build/libARCommands/obj/gen/Sources/ARCOMMANDS_Generator.c.o
                0x000000000002d600                ARCOMMANDS_Generator_GenerateSkyControllerCommonAllStates
 *fill*         0x000000000002d67a        0x6 
 .text.ARCOMMANDS_Generator_GenerateSkyControllerAccessPointSettingsAccessPointSSID
                0x000000000002d680       0xb0 /home/heratom/Firefly-project/out/arsdk-native/build/libARCommands/obj/gen/Sources/ARCOMMANDS_Generator.c.o
                0x000000000002d680                ARCOMMANDS_Generator_GenerateSkyControllerAccessPointSettingsAccessPointSSID
 .text.ARCOMMANDS_Generator_GenerateSkyControllerAccessPointSettingsAccessPointChannel
                0x000000000002d730       0xa8 /home/heratom/Firefly-project/out/arsdk-native/build/libARCommands/obj/gen/Sources/ARCOMMANDS_Generator.c.o
                0x000000000002d730                ARCOMMANDS_Generator_GenerateSkyControllerAccessPointSettingsAccessPointChannel
 *fill*         0x000000000002d7d8        0x8 
 .text.ARCOMMANDS_Generator_GenerateSkyControllerAccessPointSettingsWifiSelection
                0x000000000002d7e0       0xe4 /home/heratom/Firefly-project/out/arsdk-native/build/libARCommands/obj/gen/Sources/ARCOMMANDS_Generator.c.o
                0x000000000002d7e0                ARCOMMANDS_Generator_GenerateSkyControllerAccessPointSettingsWifiSelection
 *fill*         0x000000000002d8c4        0xc 
 .text.ARCOMMANDS_Generator_GenerateSkyControllerCameraResetOrientation
                0x000000000002d8d0       0x7a /home/heratom/Firefly-project/out/arsdk-native/build/libARCommands/obj/gen/Sources/ARCOMMANDS_Generator.c.o
                0x000000000002d8d0                ARCOMMANDS_Generator_GenerateSkyControllerCameraResetOrientation
 *fill*         0x000000000002d94a        0x6 
 .text.ARCOMMANDS_Generator_GenerateSkyControllerGamepadInfosGetGamepadControls
                0x000000000002d950       0x7a /home/heratom/Firefly-project/out/arsdk-native/build/libARCommands/obj/gen/Sources/ARCOMMANDS_Generator.c.o
                0x000000000002d950                ARCOMMANDS_Generator_GenerateSkyControllerGamepadInfosGetGamepadControls
 *fill*         0x000000000002d9ca        0x6 
 .text.ARCOMMANDS_Generator_GenerateSkyControllerButtonMappingsGetCurrentButtonMappings
                0x000000000002d9d0       0x7a /home/heratom/Firefly-project/out/arsdk-native/build/libARCommands/obj/gen/Sources/ARCOMMANDS_Generator.c.o
                0x000000000002d9d0                ARCOMMANDS_Generator_GenerateSkyControllerButtonMappingsGetCurrentButtonMappings
 *fill*         0x000000000002da4a        0x6 
 .text.ARCOMMANDS_Generator_GenerateSkyControllerButtonMappingsGetAvailableButtonMappings
                0x000000000002da50       0x82 /home/heratom/Firefly-project/out/arsdk-native/build/libARCommands/obj/gen/Sources/ARCOMMANDS_Generator.c.o
                0x000000000002da50                ARCOMMANDS_Generator_GenerateSkyControllerButtonMappingsGetAvailableButtonMappings
 *fill*         0x000000000002dad2        0xe 
 .text.ARCOMMANDS_Generator_GenerateSkyControllerButtonMappingsSetButtonMapping
                0x000000000002dae0       0xce /home/heratom/Firefly-project/out/arsdk-native/build/libARCommands/obj/gen/Sources/ARCOMMANDS_Generator.c.o
                0x000000000002dae0                ARCOMMANDS_Generator_GenerateSkyControllerButtonMappingsSetButtonMapping
 *fill*         0x000000000002dbae        0x2 
 .text.ARCOMMANDS_Generator_GenerateSkyControllerButtonMappingsDefaultButtonMapping
                0x000000000002dbb0       0x82 /home/heratom/Firefly-project/out/arsdk-native/build/libARCommands/obj/gen/Sources/ARCOMMANDS_Generator.c.o
                0x000000000002dbb0                ARCOMMANDS_Generator_GenerateSkyControllerButtonMappingsDefaultButtonMapping
 *fill*         0x000000000002dc32        0xe 
 .text.ARCOMMANDS_Generator_GenerateSkyControllerAxisMappingsGetCurrentAxisMappings
                0x000000000002dc40       0x7a /home/heratom/Firefly-project/out/arsdk-native/build/libARCommands/obj/gen/Sources/ARCOMMANDS_Generator.c.o
                0x000000000002dc40                ARCOMMANDS_Generator_GenerateSkyControllerAxisMappingsGetCurrentAxisMappings
 *fill*         0x000000000002dcba        0x6 
 .text.ARCOMMANDS_Generator_GenerateSkyControllerAxisMappingsGetAvailableAxisMappings
                0x000000000002dcc0       0x82 /home/heratom/Firefly-project/out/arsdk-native/build/libARCommands/obj/gen/Sources/ARCOMMANDS_Generator.c.o
                0x000000000002dcc0                ARCOMMANDS_Generator_GenerateSkyControllerAxisMappingsGetAvailableAxisMappings
 *fill*         0x000000000002dd42        0xe 
 .text.ARCOMMANDS_Generator_GenerateSkyControllerAxisMappingsSetAxisMapping
                0x000000000002dd50       0xce /home/heratom/Firefly-project/out/arsdk-native/build/libARCommands/obj/gen/Sources/ARCOMMANDS_Generator.c.o
                0x000000000002dd50                ARCOMMANDS_Generator_GenerateSkyControllerAxisMappingsSetAxisMapping
 *fill*         0x000000000002de1e        0x2 
 .text.ARCOMMANDS_Generator_GenerateSkyControllerAxisMappingsDefaultAxisMapping
                0x000000000002de20       0x82 /home/heratom/Firefly-project/out/arsdk-native/build/libARCommands/obj/gen/Sources/ARCOMMANDS_Generator.c.o
                0x000000000002de20                ARCOMMANDS_Generator_GenerateSkyControllerAxisMappingsDefaultAxisMapping
 *fill*         0x000000000002dea2        0xe 
 .text.ARCOMMANDS_Generator_GenerateSkyControllerAxisFiltersGetCurrentAxisFilters
                0x000000000002deb0       0x7a /home/heratom/Firefly-project/out/arsdk-native/build/libARCommands/obj/gen/Sources/ARCOMMANDS_Generator.c.o
                0x000000000002deb0                ARCOMMANDS_Generator_GenerateSkyControllerAxisFiltersGetCurrentAxisFilters
 *fill*         0x000000000002df2a        0x6 
 .text.ARCOMMANDS_Generator_GenerateSkyControllerAxisFiltersGetPresetAxisFilters
                0x000000000002df30       0x82 /home/heratom/Firefly-project/out/arsdk-native/build/libARCommands/obj/gen/Sources/ARCOMMANDS_Generator.c.o
                0x000000000002df30                ARCOMMANDS_Generator_GenerateSkyControllerAxisFiltersGetPresetAxisFilters
 *fill*         0x000000000002dfb2        0xe 
 .text.ARCOMMANDS_Generator_GenerateSkyControllerAxisFiltersSetAxisFilter
                0x000000000002dfc0       0xce /home/heratom/Firefly-project/out/arsdk-native/build/libARCommands/obj/gen/Sources/ARCOMMANDS_Generator.c.o
                0x000000000002dfc0                ARCOMMANDS_Generator_GenerateSkyControllerAxisFiltersSetAxisFilter
 *fill*         0x000000000002e08e        0x2 
 .text.ARCOMMANDS_Generator_GenerateSkyControllerAxisFiltersDefaultAxisFilters
                0x000000000002e090       0x82 /home/heratom/Firefly-project/out/arsdk-native/build/libARCommands/obj/gen/Sources/ARCOMMANDS_Generator.c.o
                0x000000000002e090                ARCOMMANDS_Generator_GenerateSkyControllerAxisFiltersDefaultAxisFilters
 *fill*         0x000000000002e112        0xe 
 .text.ARCOMMANDS_Generator_GenerateSkyControllerCoPilotingSetPilotingSource
                0x000000000002e120       0xa0 /home/heratom/Firefly-project/out/arsdk-native/build/libARCommands/obj/gen/Sources/ARCOMMANDS_Generator.c.o
                0x000000000002e120                ARCOMMANDS_Generator_GenerateSkyControllerCoPilotingSetPilotingSource
 .text.ARCOMMANDS_Generator_GenerateSkyControllerCalibrationEnableMagnetoCalibrationQualityUpdates
                0x000000000002e1c0       0xa0 /home/heratom/Firefly-project/out/arsdk-native/build/libARCommands/obj/gen/Sources/ARCOMMANDS_Generator.c.o
                0x000000000002e1c0                ARCOMMANDS_Generator_GenerateSkyControllerCalibrationEnableMagnetoCalibrationQualityUpdates
 .text.ARCOMMANDS_Generator_GenerateSkyControllerWifiStateWifiList
                0x000000000002e260      0x144 /home/heratom/Firefly-project/out/arsdk-native/build/libARCommands/obj/gen/Sources/ARCOMMANDS_Generator.c.o
                0x000000000002e260                ARCOMMANDS_Generator_GenerateSkyControllerWifiStateWifiList
 *fill*         0x000000000002e3a4        0xc 
 .text.ARCOMMANDS_Generator_GenerateSkyControllerWifiStateConnexionChanged
                0x000000000002e3b0       0xce /home/heratom/Firefly-project/out/arsdk-native/build/libARCommands/obj/gen/Sources/ARCOMMANDS_Generator.c.o
                0x000000000002e3b0                ARCOMMANDS_Generator_GenerateSkyControllerWifiStateConnexionChanged
 *fill*         0x000000000002e47e        0x2 
 .text.ARCOMMANDS_Generator_GenerateSkyControllerWifiStateWifiAuthChannelListChanged
                0x000000000002e480       0xe4 /home/heratom/Firefly-project/out/arsdk-native/build/libARCommands/obj/gen/Sources/ARCOMMANDS_Generator.c.o
                0x000000000002e480                ARCOMMANDS_Generator_GenerateSkyControllerWifiStateWifiAuthChannelListChanged
 *fill*         0x000000000002e564        0xc 
 .text.ARCOMMANDS_Generator_GenerateSkyControllerWifiStateAllWifiAuthChannelChanged
                0x000000000002e570       0x7a /home/heratom/Firefly-project/out/arsdk-native/build/libARCommands/obj/gen/Sources/ARCOMMANDS_Generator.c.o
                0x000000000002e570                ARCOMMANDS_Generator_GenerateSkyControllerWifiStateAllWifiAuthChannelChanged
 *fill*         0x000000000002e5ea        0x6 
 .text.ARCOMMANDS_Generator_GenerateSkyControllerWifiStateWifiSignalChanged
                0x000000000002e5f0       0xa0 /home/heratom/Firefly-project/out/arsdk-native/build/libARCommands/obj/gen/Sources/ARCOMMANDS_Generator.c.o
                0x000000000002e5f0                ARCOMMANDS_Generator_GenerateSkyControllerWifiStateWifiSignalChanged
 .text.ARCOMMANDS_Generator_GenerateSkyControllerDeviceStateDeviceList
                0x000000000002e690       0xb0 /home/heratom/Firefly-project/out/arsdk-native/build/libARCommands/obj/gen/Sources/ARCOMMANDS_Generator.c.o
                0x000000000002e690                ARCOMMANDS_Generator_GenerateSkyControllerDeviceStateDeviceList
 .text.ARCOMMANDS_Generator_GenerateSkyControllerDeviceStateConnexionChanged
                0x000000000002e740      0x10c /home/heratom/Firefly-project/out/arsdk-native/build/libARCommands/obj/gen/Sources/ARCOMMANDS_Generator.c.o
                0x000000000002e740                ARCOMMANDS_Generator_GenerateSkyControllerDeviceStateConnexionChanged
 *fill*         0x000000000002e84c        0x4 
 .text.ARCOMMANDS_Generator_GenerateSkyControllerSettingsStateAllSettingsChanged
                0x000000000002e850       0x7a /home/heratom/Firefly-project/out/arsdk-native/build/libARCommands/obj/gen/Sources/ARCOMMANDS_Generator.c.o
                0x000000000002e850                ARCOMMANDS_Generator_GenerateSkyControllerSettingsStateAllSettingsChanged
 *fill*         0x000000000002e8ca        0x6 
 .text.ARCOMMANDS_Generator_GenerateSkyControllerSettingsStateResetChanged
                0x000000000002e8d0       0x82 /home/heratom/Firefly-project/out/arsdk-native/build/libARCommands/obj/gen/Sources/ARCOMMANDS_Generator.c.o
                0x000000000002e8d0                ARCOMMANDS_Generator_GenerateSkyControllerSettingsStateResetChanged
 *fill*         0x000000000002e952        0xe 
 .text.ARCOMMANDS_Generator_GenerateSkyControllerSettingsStateProductSerialChanged
                0x000000000002e960       0xb0 /home/heratom/Firefly-project/out/arsdk-native/build/libARCommands/obj/gen/Sources/ARCOMMANDS_Generator.c.o
                0x000000000002e960                ARCOMMANDS_Generator_GenerateSkyControllerSettingsStateProductSerialChanged
 .text.ARCOMMANDS_Generator_GenerateSkyControllerSettingsStateProductVariantChanged
                0x000000000002ea10       0xa0 /home/heratom/Firefly-project/out/arsdk-native/build/libARCommands/obj/gen/Sources/ARCOMMANDS_Generator.c.o
                0x000000000002ea10                ARCOMMANDS_Generator_GenerateSkyControllerSettingsStateProductVariantChanged
 .text.ARCOMMANDS_Generator_GenerateSkyControllerCommonStateAllStatesChanged
                0x000000000002eab0       0x7a /home/heratom/Firefly-project/out/arsdk-native/build/libARCommands/obj/gen/Sources/ARCOMMANDS_Generator.c.o
                0x000000000002eab0                ARCOMMANDS_Generator_GenerateSkyControllerCommonStateAllStatesChanged
 *fill*         0x000000000002eb2a        0x6 
 .text.ARCOMMANDS_Generator_GenerateSkyControllerSkyControllerStateBatteryChanged
                0x000000000002eb30       0xa0 /home/heratom/Firefly-project/out/arsdk-native/build/libARCommands/obj/gen/Sources/ARCOMMANDS_Generator.c.o
                0x000000000002eb30                ARCOMMANDS_Generator_GenerateSkyControllerSkyControllerStateBatteryChanged
 .text.ARCOMMANDS_Generator_GenerateSkyControllerSkyControllerStateGpsFixChanged
                0x000000000002ebd0       0xa8 /home/heratom/Firefly-project/out/arsdk-native/build/libARCommands/obj/gen/Sources/ARCOMMANDS_Generator.c.o
                0x000000000002ebd0                ARCOMMANDS_Generator_GenerateSkyControllerSkyControllerStateGpsFixChanged
 *fill*         0x000000000002ec78        0x8 
 .text.ARCOMMANDS_Generator_GenerateSkyControllerSkyControllerStateGpsPositionChanged
                0x000000000002ec80       0xfe /home/heratom/Firefly-project/out/arsdk-native/build/libARCommands/obj/gen/Sources/ARCOMMANDS_Generator.c.o
                0x000000000002ec80                ARCOMMANDS_Generator_GenerateSkyControllerSkyControllerStateGpsPositionChanged
 *fill*         0x000000000002ed7e        0x2 
 .text.ARCOMMANDS_Generator_GenerateSkyControllerAccessPointSettingsStateAccessPointSSIDChanged
                0x000000000002ed80       0xb0 /home/heratom/Firefly-project/out/arsdk-native/build/libARCommands/obj/gen/Sources/ARCOMMANDS_Generator.c.o
                0x000000000002ed80                ARCOMMANDS_Generator_GenerateSkyControllerAccessPointSettingsStateAccessPointSSIDChanged
 .text.ARCOMMANDS_Generator_GenerateSkyControllerAccessPointSettingsStateAccessPointChannelChanged
                0x000000000002ee30       0xa8 /home/heratom/Firefly-project/out/arsdk-native/build/libARCommands/obj/gen/Sources/ARCOMMANDS_Generator.c.o
                0x000000000002ee30                ARCOMMANDS_Generator_GenerateSkyControllerAccessPointSettingsStateAccessPointChannelChanged
 *fill*         0x000000000002eed8        0x8 
 .text.ARCOMMANDS_Generator_GenerateSkyControllerAccessPointSettingsStateWifiSelectionChanged
                0x000000000002eee0       0xe4 /home/heratom/Firefly-project/out/arsdk-native/build/libARCommands/obj/gen/Sources/ARCOMMANDS_Generator.c.o
                0x000000000002eee0                ARCOMMANDS_Generator_GenerateSkyControllerAccessPointSettingsStateWifiSelectionChanged
 *fill*         0x000000000002efc4        0xc 
 .text.ARCOMMANDS_Generator_GenerateSkyControllerGamepadInfosStateGamepadControl
                0x000000000002efd0       0xfc /home/heratom/Firefly-project/out/arsdk-native/build/libARCommands/obj/gen/Sources/ARCOMMANDS_Generator.c.o
                0x000000000002efd0                ARCOMMANDS_Generator_GenerateSkyControllerGamepadInfosStateGamepadControl
 *fill*         0x000000000002f0cc        0x4 
 .text.ARCOMMANDS_Generator_GenerateSkyControllerGamepadInfosStateAllGamepadControlsSent
                0x000000000002f0d0       0x82 /home/heratom/Firefly-project/out/arsdk-native/build/libARCommands/obj/gen/Sources/ARCOMMANDS_Generator.c.o
                0x000000000002f0d0                ARCOMMANDS_Generator_GenerateSkyControllerGamepadInfosStateAllGamepadControlsSent
 *fill*         0x000000000002f152        0xe 
 .text.ARCOMMANDS_Generator_GenerateSkyControllerButtonMappingsStateCurrentButtonMappings
                0x000000000002f160       0xce /home/heratom/Firefly-project/out/arsdk-native/build/libARCommands/obj/gen/Sources/ARCOMMANDS_Generator.c.o
                0x000000000002f160                ARCOMMANDS_Generator_GenerateSkyControllerButtonMappingsStateCurrentButtonMappings
 *fill*         0x000000000002f22e        0x2 
 .text.ARCOMMANDS_Generator_GenerateSkyControllerButtonMappingsStateAllCurrentButtonMappingsSent
                0x000000000002f230       0x82 /home/heratom/Firefly-project/out/arsdk-native/build/libARCommands/obj/gen/Sources/ARCOMMANDS_Generator.c.o
                0x000000000002f230                ARCOMMANDS_Generator_GenerateSkyControllerButtonMappingsStateAllCurrentButtonMappingsSent
 *fill*         0x000000000002f2b2        0xe 
 .text.ARCOMMANDS_Generator_GenerateSkyControllerButtonMappingsStateAvailableButtonMappings
                0x000000000002f2c0       0xe0 /home/heratom/Firefly-project/out/arsdk-native/build/libARCommands/obj/gen/Sources/ARCOMMANDS_Generator.c.o
                0x000000000002f2c0                ARCOMMANDS_Generator_GenerateSkyControllerButtonMappingsStateAvailableButtonMappings
 .text.ARCOMMANDS_Generator_GenerateSkyControllerButtonMappingsStateAllAvailableButtonsMappingsSent
                0x000000000002f3a0       0x82 /home/heratom/Firefly-project/out/arsdk-native/build/libARCommands/obj/gen/Sources/ARCOMMANDS_Generator.c.o
                0x000000000002f3a0                ARCOMMANDS_Generator_GenerateSkyControllerButtonMappingsStateAllAvailableButtonsMappingsSent
 *fill*         0x000000000002f422        0xe 
 .text.ARCOMMANDS_Generator_GenerateSkyControllerAxisMappingsStateCurrentAxisMappings
                0x000000000002f430       0xce /home/heratom/Firefly-project/out/arsdk-native/build/libARCommands/obj/gen/Sources/ARCOMMANDS_Generator.c.o
                0x000000000002f430                ARCOMMANDS_Generator_GenerateSkyControllerAxisMappingsStateCurrentAxisMappings
 *fill*         0x000000000002f4fe        0x2 
 .text.ARCOMMANDS_Generator_GenerateSkyControllerAxisMappingsStateAllCurrentAxisMappingsSent
                0x000000000002f500       0x82 /home/heratom/Firefly-project/out/arsdk-native/build/libARCommands/obj/gen/Sources/ARCOMMANDS_Generator.c.o
                0x000000000002f500                ARCOMMANDS_Generator_GenerateSkyControllerAxisMappingsStateAllCurrentAxisMappingsSent
 *fill*         0x000000000002f582        0xe 
 .text.ARCOMMANDS_Generator_GenerateSkyControllerAxisMappingsStateAvailableAxisMappings
                0x000000000002f590       0xe0 /home/heratom/Firefly-project/out/arsdk-native/build/libARCommands/obj/gen/Sources/ARCOMMANDS_Generator.c.o
                0x000000000002f590                ARCOMMANDS_Generator_GenerateSkyControllerAxisMappingsStateAvailableAxisMappings
 .text.ARCOMMANDS_Generator_GenerateSkyControllerAxisMappingsStateAllAvailableAxisMappingsSent
                0x000000000002f670       0x82 /home/heratom/Firefly-project/out/arsdk-native/build/libARCommands/obj/gen/Sources/ARCOMMANDS_Generator.c.o
                0x000000000002f670                ARCOMMANDS_Generator_GenerateSkyControllerAxisMappingsStateAllAvailableAxisMappingsSent
 *fill*         0x000000000002f6f2        0xe 
 .text.ARCOMMANDS_Generator_GenerateSkyControllerAxisFiltersStateCurrentAxisFilters
                0x000000000002f700       0xce /home/heratom/Firefly-project/out/arsdk-native/build/libARCommands/obj/gen/Sources/ARCOMMANDS_Generator.c.o
                0x000000000002f700                ARCOMMANDS_Generator_GenerateSkyControllerAxisFiltersStateCurrentAxisFilters
 *fill*         0x000000000002f7ce        0x2 
 .text.ARCOMMANDS_Generator_GenerateSkyControllerAxisFiltersStateAllCurrentFiltersSent
                0x000000000002f7d0       0x82 /home/heratom/Firefly-project/out/arsdk-native/build/libARCommands/obj/gen/Sources/ARCOMMANDS_Generator.c.o
                0x000000000002f7d0                ARCOMMANDS_Generator_GenerateSkyControllerAxisFiltersStateAllCurrentFiltersSent
 *fill*         0x000000000002f852        0xe 
 .text.ARCOMMANDS_Generator_GenerateSkyControllerAxisFiltersStatePresetAxisFilters
                0x000000000002f860       0xe0 /home/heratom/Firefly-project/out/arsdk-native/build/libARCommands/obj/gen/Sources/ARCOMMANDS_Generator.c.o
                0x000000000002f860                ARCOMMANDS_Generator_GenerateSkyControllerAxisFiltersStatePresetAxisFilters
 .text.ARCOMMANDS_Generator_GenerateSkyControllerAxisFiltersStateAllPresetFiltersSent
                0x000000000002f940       0x82 /home/heratom/Firefly-project/out/arsdk-native/build/libARCommands/obj/gen/Sources/ARCOMMANDS_Generator.c.o
                0x000000000002f940                ARCOMMANDS_Generator_GenerateSkyControllerAxisFiltersStateAllPresetFiltersSent
 *fill*         0x000000000002f9c2        0xe 
 .text.ARCOMMANDS_Generator_GenerateSkyControllerCoPilotingStatePilotingSource
                0x000000000002f9d0       0xa0 /home/heratom/Firefly-project/out/arsdk-native/build/libARCommands/obj/gen/Sources/ARCOMMANDS_Generator.c.o
                0x000000000002f9d0                ARCOMMANDS_Generator_GenerateSkyControllerCoPilotingStatePilotingSource
 .text.ARCOMMANDS_Generator_GenerateSkyControllerCalibrationStateMagnetoCalibrationState
                0x000000000002fa70      0x10c /home/heratom/Firefly-project/out/arsdk-native/build/libARCommands/obj/gen/Sources/ARCOMMANDS_Generator.c.o
                0x000000000002fa70                ARCOMMANDS_Generator_GenerateSkyControllerCalibrationStateMagnetoCalibrationState
 *fill*         0x000000000002fb7c        0x4 
 .text.ARCOMMANDS_Generator_GenerateSkyControllerCalibrationStateMagnetoCalibrationQualityUpdatesState
                0x000000000002fb80       0xa8 /home/heratom/Firefly-project/out/arsdk-native/build/libARCommands/obj/gen/Sources/ARCOMMANDS_Generator.c.o
                0x000000000002fb80                ARCOMMANDS_Generator_GenerateSkyControllerCalibrationStateMagnetoCalibrationQualityUpdatesState
 *fill*         0x000000000002fc28        0x8 
 .text.ARCOMMANDS_Generator_GenerateSkyControllerButtonEventsSettings
                0x000000000002fc30       0x7a /home/heratom/Firefly-project/out/arsdk-native/build/libARCommands/obj/gen/Sources/ARCOMMANDS_Generator.c.o
                0x000000000002fc30                ARCOMMANDS_Generator_GenerateSkyControllerButtonEventsSettings
 *fill*         0x000000000002fcaa        0x6 
 .text.ARCOMMANDS_Generator_GenerateUnknownFeature1GeographicRun
                0x000000000002fcb0      0x16c /home/heratom/Firefly-project/out/arsdk-native/build/libARCommands/obj/gen/Sources/ARCOMMANDS_Generator.c.o
                0x000000000002fcb0                ARCOMMANDS_Generator_GenerateUnknownFeature1GeographicRun
 *fill*         0x000000000002fe1c        0x4 
 .text.ARCOMMANDS_Generator_GenerateUnknownFeature1RelativeRun
                0x000000000002fe20      0x16c /home/heratom/Firefly-project/out/arsdk-native/build/libARCommands/obj/gen/Sources/ARCOMMANDS_Generator.c.o
                0x000000000002fe20                ARCOMMANDS_Generator_GenerateUnknownFeature1RelativeRun
 *fill*         0x000000000002ff8c        0x4 
 .text.ARCOMMANDS_Generator_GenerateUnknownFeature1LookAtRun
                0x000000000002ff90       0xa0 /home/heratom/Firefly-project/out/arsdk-native/build/libARCommands/obj/gen/Sources/ARCOMMANDS_Generator.c.o
                0x000000000002ff90                ARCOMMANDS_Generator_GenerateUnknownFeature1LookAtRun
 .text.ARCOMMANDS_Generator_GenerateUnknownFeature1SpiralAnimRun
                0x0000000000030030      0x16c /home/heratom/Firefly-project/out/arsdk-native/build/libARCommands/obj/gen/Sources/ARCOMMANDS_Generator.c.o
                0x0000000000030030                ARCOMMANDS_Generator_GenerateUnknownFeature1SpiralAnimRun
 *fill*         0x000000000003019c        0x4 
 .text.ARCOMMANDS_Generator_GenerateUnknownFeature1SwingAnimRun
                0x00000000000301a0      0x124 /home/heratom/Firefly-project/out/arsdk-native/build/libARCommands/obj/gen/Sources/ARCOMMANDS_Generator.c.o
                0x00000000000301a0                ARCOMMANDS_Generator_GenerateUnknownFeature1SwingAnimRun
 *fill*         0x00000000000302c4        0xc 
 .text.ARCOMMANDS_Generator_GenerateUnknownFeature1BoomerangAnimRun
                0x00000000000302d0      0x124 /home/heratom/Firefly-project/out/arsdk-native/build/libARCommands/obj/gen/Sources/ARCOMMANDS_Generator.c.o
                0x00000000000302d0                ARCOMMANDS_Generator_GenerateUnknownFeature1BoomerangAnimRun
 *fill*         0x00000000000303f4        0xc 
 .text.ARCOMMANDS_Generator_GenerateUnknownFeature1CandleAnimRun
                0x0000000000030400      0x124 /home/heratom/Firefly-project/out/arsdk-native/build/libARCommands/obj/gen/Sources/ARCOMMANDS_Generator.c.o
                0x0000000000030400                ARCOMMANDS_Generator_GenerateUnknownFeature1CandleAnimRun
 *fill*         0x0000000000030524        0xc 
 .text.ARCOMMANDS_Generator_GenerateUnknownFeature1DollySlideAnimRun
                0x0000000000030530      0x16c /home/heratom/Firefly-project/out/arsdk-native/build/libARCommands/obj/gen/Sources/ARCOMMANDS_Generator.c.o
                0x0000000000030530                ARCOMMANDS_Generator_GenerateUnknownFeature1DollySlideAnimRun
 *fill*         0x000000000003069c        0x4 
 .text.ARCOMMANDS_Generator_GenerateUnknownFeature1UserFramingPosition
                0x00000000000306a0       0xb6 /home/heratom/Firefly-project/out/arsdk-native/build/libARCommands/obj/gen/Sources/ARCOMMANDS_Generator.c.o
                0x00000000000306a0                ARCOMMANDS_Generator_GenerateUnknownFeature1UserFramingPosition
 *fill*         0x0000000000030756        0xa 
 .text.ARCOMMANDS_Generator_GenerateUnknownFeature1UserGPSData
                0x0000000000030760      0x19e /home/heratom/Firefly-project/out/arsdk-native/build/libARCommands/obj/gen/Sources/ARCOMMANDS_Generator.c.o
                0x0000000000030760                ARCOMMANDS_Generator_GenerateUnknownFeature1UserGPSData
 *fill*         0x00000000000308fe        0x2 
 .text.ARCOMMANDS_Generator_GenerateUnknownFeature1UserBaroData
                0x0000000000030900       0xbe /home/heratom/Firefly-project/out/arsdk-native/build/libARCommands/obj/gen/Sources/ARCOMMANDS_Generator.c.o
                0x0000000000030900                ARCOMMANDS_Generator_GenerateUnknownFeature1UserBaroData
 *fill*         0x00000000000309be        0x2 
 .text.ARCOMMANDS_Generator_GenerateUnknownFeature1LynxDetection
                0x00000000000309c0      0x144 /home/heratom/Firefly-project/out/arsdk-native/build/libARCommands/obj/gen/Sources/ARCOMMANDS_Generator.c.o
                0x00000000000309c0                ARCOMMANDS_Generator_GenerateUnknownFeature1LynxDetection
 *fill*         0x0000000000030b04        0xc 
 .text.ARCOMMANDS_Generator_GenerateUnknownFeature1Availability
                0x0000000000030b10       0xa0 /home/heratom/Firefly-project/out/arsdk-native/build/libARCommands/obj/gen/Sources/ARCOMMANDS_Generator.c.o
                0x0000000000030b10                ARCOMMANDS_Generator_GenerateUnknownFeature1Availability
 .text.ARCOMMANDS_Generator_GenerateUnknownFeature1Run
                0x0000000000030bb0       0xa0 /home/heratom/Firefly-project/out/arsdk-native/build/libARCommands/obj/gen/Sources/ARCOMMANDS_Generator.c.o
                0x0000000000030bb0                ARCOMMANDS_Generator_GenerateUnknownFeature1Run
 .text.ARCOMMANDS_Generator_GenerateUnknownFeature1GeographicConfigChanged
                0x0000000000030c50      0x144 /home/heratom/Firefly-project/out/arsdk-native/build/libARCommands/obj/gen/Sources/ARCOMMANDS_Generator.c.o
                0x0000000000030c50                ARCOMMANDS_Generator_GenerateUnknownFeature1GeographicConfigChanged
 *fill*         0x0000000000030d94        0xc 
 .text.ARCOMMANDS_Generator_GenerateUnknownFeature1RelativeConfigChanged
                0x0000000000030da0      0x144 /home/heratom/Firefly-project/out/arsdk-native/build/libARCommands/obj/gen/Sources/ARCOMMANDS_Generator.c.o
                0x0000000000030da0                ARCOMMANDS_Generator_GenerateUnknownFeature1RelativeConfigChanged
 *fill*         0x0000000000030ee4        0xc 
 .text.ARCOMMANDS_Generator_GenerateUnknownFeature1AnimRun
                0x0000000000030ef0       0xa0 /home/heratom/Firefly-project/out/arsdk-native/build/libARCommands/obj/gen/Sources/ARCOMMANDS_Generator.c.o
                0x0000000000030ef0                ARCOMMANDS_Generator_GenerateUnknownFeature1AnimRun
 .text.ARCOMMANDS_Generator_GenerateUnknownFeature1SpiralAnimConfigChanged
                0x0000000000030f90      0x144 /home/heratom/Firefly-project/out/arsdk-native/build/libARCommands/obj/gen/Sources/ARCOMMANDS_Generator.c.o
                0x0000000000030f90                ARCOMMANDS_Generator_GenerateUnknownFeature1SpiralAnimConfigChanged
 *fill*         0x00000000000310d4        0xc 
 .text.ARCOMMANDS_Generator_GenerateUnknownFeature1SwingAnimConfigChanged
                0x00000000000310e0      0x102 /home/heratom/Firefly-project/out/arsdk-native/build/libARCommands/obj/gen/Sources/ARCOMMANDS_Generator.c.o
                0x00000000000310e0                ARCOMMANDS_Generator_GenerateUnknownFeature1SwingAnimConfigChanged
 *fill*         0x00000000000311e2        0xe 
 .text.ARCOMMANDS_Generator_GenerateUnknownFeature1BoomerangAnimConfigChanged
                0x00000000000311f0      0x102 /home/heratom/Firefly-project/out/arsdk-native/build/libARCommands/obj/gen/Sources/ARCOMMANDS_Generator.c.o
                0x00000000000311f0                ARCOMMANDS_Generator_GenerateUnknownFeature1BoomerangAnimConfigChanged
 *fill*         0x00000000000312f2        0xe 
 .text.ARCOMMANDS_Generator_GenerateUnknownFeature1CandleAnimConfigChanged
                0x0000000000031300      0x102 /home/heratom/Firefly-project/out/arsdk-native/build/libARCommands/obj/gen/Sources/ARCOMMANDS_Generator.c.o
                0x0000000000031300                ARCOMMANDS_Generator_GenerateUnknownFeature1CandleAnimConfigChanged
 *fill*         0x0000000000031402        0xe 
 .text.ARCOMMANDS_Generator_GenerateUnknownFeature1DollySlideAnimConfigChanged
                0x0000000000031410      0x144 /home/heratom/Firefly-project/out/arsdk-native/build/libARCommands/obj/gen/Sources/ARCOMMANDS_Generator.c.o
                0x0000000000031410                ARCOMMANDS_Generator_GenerateUnknownFeature1DollySlideAnimConfigChanged
 *fill*         0x0000000000031554        0xc 
 .text.ARCOMMANDS_Generator_GenerateUnknownFeature1UserFramingPositionChanged
                0x0000000000031560       0xb6 /home/heratom/Firefly-project/out/arsdk-native/build/libARCommands/obj/gen/Sources/ARCOMMANDS_Generator.c.o
                0x0000000000031560                ARCOMMANDS_Generator_GenerateUnknownFeature1UserFramingPositionChanged
 *fill*         0x0000000000031616        0xa 
 .text.ARCOMMANDS_Generator_GenerateCommonNetworkDisconnect
                0x0000000000031620       0x7a /home/heratom/Firefly-project/out/arsdk-native/build/libARCommands/obj/gen/Sources/ARCOMMANDS_Generator.c.o
                0x0000000000031620                ARCOMMANDS_Generator_GenerateCommonNetworkDisconnect
 *fill*         0x000000000003169a        0x6 
 .text.ARCOMMANDS_Generator_GenerateCommonSettingsAllSettings
                0x00000000000316a0       0x7a /home/heratom/Firefly-project/out/arsdk-native/build/libARCommands/obj/gen/Sources/ARCOMMANDS_Generator.c.o
                0x00000000000316a0                ARCOMMANDS_Generator_GenerateCommonSettingsAllSettings
 *fill*         0x000000000003171a        0x6 
 .text.ARCOMMANDS_Generator_GenerateCommonSettingsReset
                0x0000000000031720       0x7a /home/heratom/Firefly-project/out/arsdk-native/build/libARCommands/obj/gen/Sources/ARCOMMANDS_Generator.c.o
                0x0000000000031720                ARCOMMANDS_Generator_GenerateCommonSettingsReset
 *fill*         0x000000000003179a        0x6 
 .text.ARCOMMANDS_Generator_GenerateCommonSettingsProductName
                0x00000000000317a0       0xb0 /home/heratom/Firefly-project/out/arsdk-native/build/libARCommands/obj/gen/Sources/ARCOMMANDS_Generator.c.o
                0x00000000000317a0                ARCOMMANDS_Generator_GenerateCommonSettingsProductName
 .text.ARCOMMANDS_Generator_GenerateCommonSettingsCountry
                0x0000000000031850       0xb0 /home/heratom/Firefly-project/out/arsdk-native/build/libARCommands/obj/gen/Sources/ARCOMMANDS_Generator.c.o
                0x0000000000031850                ARCOMMANDS_Generator_GenerateCommonSettingsCountry
 .text.ARCOMMANDS_Generator_GenerateCommonSettingsAutoCountry
                0x0000000000031900       0xa0 /home/heratom/Firefly-project/out/arsdk-native/build/libARCommands/obj/gen/Sources/ARCOMMANDS_Generator.c.o
                0x0000000000031900                ARCOMMANDS_Generator_GenerateCommonSettingsAutoCountry
 .text.ARCOMMANDS_Generator_GenerateCommonCommonAllStates
                0x00000000000319a0       0x7a /home/heratom/Firefly-project/out/arsdk-native/build/libARCommands/obj/gen/Sources/ARCOMMANDS_Generator.c.o
                0x00000000000319a0                ARCOMMANDS_Generator_GenerateCommonCommonAllStates
 *fill*         0x0000000000031a1a        0x6 
 .text.ARCOMMANDS_Generator_GenerateCommonCommonCurrentDate
                0x0000000000031a20       0xb0 /home/heratom/Firefly-project/out/arsdk-native/build/libARCommands/obj/gen/Sources/ARCOMMANDS_Generator.c.o
                0x0000000000031a20                ARCOMMANDS_Generator_GenerateCommonCommonCurrentDate
 .text.ARCOMMANDS_Generator_GenerateCommonCommonCurrentTime
                0x0000000000031ad0       0xb0 /home/heratom/Firefly-project/out/arsdk-native/build/libARCommands/obj/gen/Sources/ARCOMMANDS_Generator.c.o
                0x0000000000031ad0                ARCOMMANDS_Generator_GenerateCommonCommonCurrentTime
 .text.ARCOMMANDS_Generator_GenerateCommonCommonReboot
                0x0000000000031b80       0x7a /home/heratom/Firefly-project/out/arsdk-native/build/libARCommands/obj/gen/Sources/ARCOMMANDS_Generator.c.o
                0x0000000000031b80                ARCOMMANDS_Generator_GenerateCommonCommonReboot
 *fill*         0x0000000000031bfa        0x6 
 .text.ARCOMMANDS_Generator_GenerateCommonOverHeatSwitchOff
                0x0000000000031c00       0x7a /home/heratom/Firefly-project/out/arsdk-native/build/libARCommands/obj/gen/Sources/ARCOMMANDS_Generator.c.o
                0x0000000000031c00                ARCOMMANDS_Generator_GenerateCommonOverHeatSwitchOff
 *fill*         0x0000000000031c7a        0x6 
 .text.ARCOMMANDS_Generator_GenerateCommonOverHeatVentilate
                0x0000000000031c80       0x7a /home/heratom/Firefly-project/out/arsdk-native/build/libARCommands/obj/gen/Sources/ARCOMMANDS_Generator.c.o
                0x0000000000031c80                ARCOMMANDS_Generator_GenerateCommonOverHeatVentilate
 *fill*         0x0000000000031cfa        0x6 
 .text.ARCOMMANDS_Generator_GenerateCommonControllerIsPiloting
                0x0000000000031d00       0xa0 /home/heratom/Firefly-project/out/arsdk-native/build/libARCommands/obj/gen/Sources/ARCOMMANDS_Generator.c.o
                0x0000000000031d00                ARCOMMANDS_Generator_GenerateCommonControllerIsPiloting
 .text.ARCOMMANDS_Generator_GenerateCommonWifiSettingsOutdoorSetting
                0x0000000000031da0       0xa0 /home/heratom/Firefly-project/out/arsdk-native/build/libARCommands/obj/gen/Sources/ARCOMMANDS_Generator.c.o
                0x0000000000031da0                ARCOMMANDS_Generator_GenerateCommonWifiSettingsOutdoorSetting
 .text.ARCOMMANDS_Generator_GenerateCommonMavlinkStart
                0x0000000000031e40       0xce /home/heratom/Firefly-project/out/arsdk-native/build/libARCommands/obj/gen/Sources/ARCOMMANDS_Generator.c.o
                0x0000000000031e40                ARCOMMANDS_Generator_GenerateCommonMavlinkStart
 *fill*         0x0000000000031f0e        0x2 
 .text.ARCOMMANDS_Generator_GenerateCommonMavlinkPause
                0x0000000000031f10       0x7a /home/heratom/Firefly-project/out/arsdk-native/build/libARCommands/obj/gen/Sources/ARCOMMANDS_Generator.c.o
                0x0000000000031f10                ARCOMMANDS_Generator_GenerateCommonMavlinkPause
 *fill*         0x0000000000031f8a        0x6 
 .text.ARCOMMANDS_Generator_GenerateCommonMavlinkStop
                0x0000000000031f90       0x7a /home/heratom/Firefly-project/out/arsdk-native/build/libARCommands/obj/gen/Sources/ARCOMMANDS_Generator.c.o
                0x0000000000031f90                ARCOMMANDS_Generator_GenerateCommonMavlinkStop
 *fill*         0x000000000003200a        0x6 
 .text.ARCOMMANDS_Generator_GenerateCommonCalibrationMagnetoCalibration
                0x0000000000032010       0xa0 /home/heratom/Firefly-project/out/arsdk-native/build/libARCommands/obj/gen/Sources/ARCOMMANDS_Generator.c.o
                0x0000000000032010                ARCOMMANDS_Generator_GenerateCommonCalibrationMagnetoCalibration
 .text.ARCOMMANDS_Generator_GenerateCommonGPSControllerPositionForRun
                0x00000000000320b0       0xbe /home/heratom/Firefly-project/out/arsdk-native/build/libARCommands/obj/gen/Sources/ARCOMMANDS_Generator.c.o
                0x00000000000320b0                ARCOMMANDS_Generator_GenerateCommonGPSControllerPositionForRun
 *fill*         0x000000000003216e        0x2 
 .text.ARCOMMANDS_Generator_GenerateCommonAudioControllerReadyForStreaming
                0x0000000000032170       0xa0 /home/heratom/Firefly-project/out/arsdk-native/build/libARCommands/obj/gen/Sources/ARCOMMANDS_Generator.c.o
                0x0000000000032170                ARCOMMANDS_Generator_GenerateCommonAudioControllerReadyForStreaming
 .text.ARCOMMANDS_Generator_GenerateCommonHeadlightsIntensity
                0x0000000000032210       0xae /home/heratom/Firefly-project/out/arsdk-native/build/libARCommands/obj/gen/Sources/ARCOMMANDS_Generator.c.o
                0x0000000000032210                ARCOMMANDS_Generator_GenerateCommonHeadlightsIntensity
 *fill*         0x00000000000322be        0x2 
 .text.ARCOMMANDS_Generator_GenerateCommonAnimationsStartAnimation
                0x00000000000322c0       0xa0 /home/heratom/Firefly-project/out/arsdk-native/build/libARCommands/obj/gen/Sources/ARCOMMANDS_Generator.c.o
                0x00000000000322c0                ARCOMMANDS_Generator_GenerateCommonAnimationsStartAnimation
 .text.ARCOMMANDS_Generator_GenerateCommonAnimationsStopAnimation
                0x0000000000032360       0xa0 /home/heratom/Firefly-project/out/arsdk-native/build/libARCommands/obj/gen/Sources/ARCOMMANDS_Generator.c.o
                0x0000000000032360                ARCOMMANDS_Generator_GenerateCommonAnimationsStopAnimation
 .text.ARCOMMANDS_Generator_GenerateCommonAnimationsStopAllAnimations
                0x0000000000032400       0x7a /home/heratom/Firefly-project/out/arsdk-native/build/libARCommands/obj/gen/Sources/ARCOMMANDS_Generator.c.o
                0x0000000000032400                ARCOMMANDS_Generator_GenerateCommonAnimationsStopAllAnimations
 *fill*         0x000000000003247a        0x6 
 .text.ARCOMMANDS_Generator_GenerateCommonAccessoryConfig
                0x0000000000032480       0xa0 /home/heratom/Firefly-project/out/arsdk-native/build/libARCommands/obj/gen/Sources/ARCOMMANDS_Generator.c.o
                0x0000000000032480                ARCOMMANDS_Generator_GenerateCommonAccessoryConfig
 .text.ARCOMMANDS_Generator_GenerateCommonChargerSetMaxChargeRate
                0x0000000000032520       0xa0 /home/heratom/Firefly-project/out/arsdk-native/build/libARCommands/obj/gen/Sources/ARCOMMANDS_Generator.c.o
                0x0000000000032520                ARCOMMANDS_Generator_GenerateCommonChargerSetMaxChargeRate
 .text.ARCOMMANDS_Generator_GenerateCommonNetworkEventDisconnection
                0x00000000000325c0       0xa0 /home/heratom/Firefly-project/out/arsdk-native/build/libARCommands/obj/gen/Sources/ARCOMMANDS_Generator.c.o
                0x00000000000325c0                ARCOMMANDS_Generator_GenerateCommonNetworkEventDisconnection
 .text.ARCOMMANDS_Generator_GenerateCommonSettingsStateAllSettingsChanged
                0x0000000000032660       0x7a /home/heratom/Firefly-project/out/arsdk-native/build/libARCommands/obj/gen/Sources/ARCOMMANDS_Generator.c.o
                0x0000000000032660                ARCOMMANDS_Generator_GenerateCommonSettingsStateAllSettingsChanged
 *fill*         0x00000000000326da        0x6 
 .text.ARCOMMANDS_Generator_GenerateCommonSettingsStateResetChanged
                0x00000000000326e0       0x7a /home/heratom/Firefly-project/out/arsdk-native/build/libARCommands/obj/gen/Sources/ARCOMMANDS_Generator.c.o
                0x00000000000326e0                ARCOMMANDS_Generator_GenerateCommonSettingsStateResetChanged
 *fill*         0x000000000003275a        0x6 
 .text.ARCOMMANDS_Generator_GenerateCommonSettingsStateProductNameChanged
                0x0000000000032760       0xb0 /home/heratom/Firefly-project/out/arsdk-native/build/libARCommands/obj/gen/Sources/ARCOMMANDS_Generator.c.o
                0x0000000000032760                ARCOMMANDS_Generator_GenerateCommonSettingsStateProductNameChanged
 .text.ARCOMMANDS_Generator_GenerateCommonSettingsStateProductVersionChanged
                0x0000000000032810       0xe0 /home/heratom/Firefly-project/out/arsdk-native/build/libARCommands/obj/gen/Sources/ARCOMMANDS_Generator.c.o
                0x0000000000032810                ARCOMMANDS_Generator_GenerateCommonSettingsStateProductVersionChanged
 .text.ARCOMMANDS_Generator_GenerateCommonSettingsStateProductSerialHighChanged
                0x00000000000328f0       0xb0 /home/heratom/Firefly-project/out/arsdk-native/build/libARCommands/obj/gen/Sources/ARCOMMANDS_Generator.c.o
                0x00000000000328f0                ARCOMMANDS_Generator_GenerateCommonSettingsStateProductSerialHighChanged
 .text.ARCOMMANDS_Generator_GenerateCommonSettingsStateProductSerialLowChanged
                0x00000000000329a0       0xb0 /home/heratom/Firefly-project/out/arsdk-native/build/libARCommands/obj/gen/Sources/ARCOMMANDS_Generator.c.o
                0x00000000000329a0                ARCOMMANDS_Generator_GenerateCommonSettingsStateProductSerialLowChanged
 .text.ARCOMMANDS_Generator_GenerateCommonSettingsStateCountryChanged
                0x0000000000032a50       0xb0 /home/heratom/Firefly-project/out/arsdk-native/build/libARCommands/obj/gen/Sources/ARCOMMANDS_Generator.c.o
                0x0000000000032a50                ARCOMMANDS_Generator_GenerateCommonSettingsStateCountryChanged
 .text.ARCOMMANDS_Generator_GenerateCommonSettingsStateAutoCountryChanged
                0x0000000000032b00       0xa0 /home/heratom/Firefly-project/out/arsdk-native/build/libARCommands/obj/gen/Sources/ARCOMMANDS_Generator.c.o
                0x0000000000032b00                ARCOMMANDS_Generator_GenerateCommonSettingsStateAutoCountryChanged
 .text.ARCOMMANDS_Generator_GenerateCommonCommonStateAllStatesChanged
                0x0000000000032ba0       0x7a /home/heratom/Firefly-project/out/arsdk-native/build/libARCommands/obj/gen/Sources/ARCOMMANDS_Generator.c.o
                0x0000000000032ba0                ARCOMMANDS_Generator_GenerateCommonCommonStateAllStatesChanged
 *fill*         0x0000000000032c1a        0x6 
 .text.ARCOMMANDS_Generator_GenerateCommonCommonStateBatteryStateChanged
                0x0000000000032c20       0xa0 /home/heratom/Firefly-project/out/arsdk-native/build/libARCommands/obj/gen/Sources/ARCOMMANDS_Generator.c.o
                0x0000000000032c20                ARCOMMANDS_Generator_GenerateCommonCommonStateBatteryStateChanged
 .text.ARCOMMANDS_Generator_GenerateCommonCommonStateMassStorageStateListChanged
                0x0000000000032cc0       0xce /home/heratom/Firefly-project/out/arsdk-native/build/libARCommands/obj/gen/Sources/ARCOMMANDS_Generator.c.o
                0x0000000000032cc0                ARCOMMANDS_Generator_GenerateCommonCommonStateMassStorageStateListChanged
 *fill*         0x0000000000032d8e        0x2 
 .text.ARCOMMANDS_Generator_GenerateCommonCommonStateMassStorageInfoStateListChanged
                0x0000000000032d90      0x14c /home/heratom/Firefly-project/out/arsdk-native/build/libARCommands/obj/gen/Sources/ARCOMMANDS_Generator.c.o
                0x0000000000032d90                ARCOMMANDS_Generator_GenerateCommonCommonStateMassStorageInfoStateListChanged
 *fill*         0x0000000000032edc        0x4 
 .text.ARCOMMANDS_Generator_GenerateCommonCommonStateCurrentDateChanged
                0x0000000000032ee0       0xb0 /home/heratom/Firefly-project/out/arsdk-native/build/libARCommands/obj/gen/Sources/ARCOMMANDS_Generator.c.o
                0x0000000000032ee0                ARCOMMANDS_Generator_GenerateCommonCommonStateCurrentDateChanged
 .text.ARCOMMANDS_Generator_GenerateCommonCommonStateCurrentTimeChanged
                0x0000000000032f90       0xb0 /home/heratom/Firefly-project/out/arsdk-native/build/libARCommands/obj/gen/Sources/ARCOMMANDS_Generator.c.o
                0x0000000000032f90                ARCOMMANDS_Generator_GenerateCommonCommonStateCurrentTimeChanged
 .text.ARCOMMANDS_Generator_GenerateCommonCommonStateMassStorageInfoRemainingListChanged
                0x0000000000033040       0xe4 /home/heratom/Firefly-project/out/arsdk-native/build/libARCommands/obj/gen/Sources/ARCOMMANDS_Generator.c.o
                0x0000000000033040                ARCOMMANDS_Generator_GenerateCommonCommonStateMassStorageInfoRemainingListChanged
 *fill*         0x0000000000033124        0xc 
 .text.ARCOMMANDS_Generator_GenerateCommonCommonStateWifiSignalChanged
                0x0000000000033130       0xa0 /home/heratom/Firefly-project/out/arsdk-native/build/libARCommands/obj/gen/Sources/ARCOMMANDS_Generator.c.o
                0x0000000000033130                ARCOMMANDS_Generator_GenerateCommonCommonStateWifiSignalChanged
 .text.ARCOMMANDS_Generator_GenerateCommonCommonStateSensorsStatesListChanged
                0x00000000000331d0       0xae /home/heratom/Firefly-project/out/arsdk-native/build/libARCommands/obj/gen/Sources/ARCOMMANDS_Generator.c.o
                0x00000000000331d0                ARCOMMANDS_Generator_GenerateCommonCommonStateSensorsStatesListChanged
 *fill*         0x000000000003327e        0x2 
 .text.ARCOMMANDS_Generator_GenerateCommonCommonStateProductModel
                0x0000000000033280       0xa0 /home/heratom/Firefly-project/out/arsdk-native/build/libARCommands/obj/gen/Sources/ARCOMMANDS_Generator.c.o
                0x0000000000033280                ARCOMMANDS_Generator_GenerateCommonCommonStateProductModel
 .text.ARCOMMANDS_Generator_GenerateCommonCommonStateCountryListKnown
                0x0000000000033320       0xce /home/heratom/Firefly-project/out/arsdk-native/build/libARCommands/obj/gen/Sources/ARCOMMANDS_Generator.c.o
                0x0000000000033320                ARCOMMANDS_Generator_GenerateCommonCommonStateCountryListKnown
 *fill*         0x00000000000333ee        0x2 
 .text.ARCOMMANDS_Generator_GenerateCommonOverHeatStateOverHeatChanged
                0x00000000000333f0       0x7a /home/heratom/Firefly-project/out/arsdk-native/build/libARCommands/obj/gen/Sources/ARCOMMANDS_Generator.c.o
                0x00000000000333f0                ARCOMMANDS_Generator_GenerateCommonOverHeatStateOverHeatChanged
 *fill*         0x000000000003346a        0x6 
 .text.ARCOMMANDS_Generator_GenerateCommonOverHeatStateOverHeatRegulationChanged
                0x0000000000033470       0xa0 /home/heratom/Firefly-project/out/arsdk-native/build/libARCommands/obj/gen/Sources/ARCOMMANDS_Generator.c.o
                0x0000000000033470                ARCOMMANDS_Generator_GenerateCommonOverHeatStateOverHeatRegulationChanged
 .text.ARCOMMANDS_Generator_GenerateCommonWifiSettingsStateOutdoorSettingsChanged
                0x0000000000033510       0xa0 /home/heratom/Firefly-project/out/arsdk-native/build/libARCommands/obj/gen/Sources/ARCOMMANDS_Generator.c.o
                0x0000000000033510                ARCOMMANDS_Generator_GenerateCommonWifiSettingsStateOutdoorSettingsChanged
 .text.ARCOMMANDS_Generator_GenerateCommonMavlinkStateMavlinkFilePlayingStateChanged
                0x00000000000335b0       0xfc /home/heratom/Firefly-project/out/arsdk-native/build/libARCommands/obj/gen/Sources/ARCOMMANDS_Generator.c.o
                0x00000000000335b0                ARCOMMANDS_Generator_GenerateCommonMavlinkStateMavlinkFilePlayingStateChanged
 *fill*         0x00000000000336ac        0x4 
 .text.ARCOMMANDS_Generator_GenerateCommonMavlinkStateMavlinkPlayErrorStateChanged
                0x00000000000336b0       0xa0 /home/heratom/Firefly-project/out/arsdk-native/build/libARCommands/obj/gen/Sources/ARCOMMANDS_Generator.c.o
                0x00000000000336b0                ARCOMMANDS_Generator_GenerateCommonMavlinkStateMavlinkPlayErrorStateChanged
 .text.ARCOMMANDS_Generator_GenerateCommonCalibrationStateMagnetoCalibrationStateChanged
                0x0000000000033750      0x104 /home/heratom/Firefly-project/out/arsdk-native/build/libARCommands/obj/gen/Sources/ARCOMMANDS_Generator.c.o
                0x0000000000033750                ARCOMMANDS_Generator_GenerateCommonCalibrationStateMagnetoCalibrationStateChanged
 *fill*         0x0000000000033854        0xc 
 .text.ARCOMMANDS_Generator_GenerateCommonCalibrationStateMagnetoCalibrationRequiredState
                0x0000000000033860       0xa0 /home/heratom/Firefly-project/out/arsdk-native/build/libARCommands/obj/gen/Sources/ARCOMMANDS_Generator.c.o
                0x0000000000033860                ARCOMMANDS_Generator_GenerateCommonCalibrationStateMagnetoCalibrationRequiredState
 .text.ARCOMMANDS_Generator_GenerateCommonCalibrationStateMagnetoCalibrationAxisToCalibrateChanged
                0x0000000000033900       0xa0 /home/heratom/Firefly-project/out/arsdk-native/build/libARCommands/obj/gen/Sources/ARCOMMANDS_Generator.c.o
                0x0000000000033900                ARCOMMANDS_Generator_GenerateCommonCalibrationStateMagnetoCalibrationAxisToCalibrateChanged
 .text.ARCOMMANDS_Generator_GenerateCommonCalibrationStateMagnetoCalibrationStartedChanged
                0x00000000000339a0       0xa0 /home/heratom/Firefly-project/out/arsdk-native/build/libARCommands/obj/gen/Sources/ARCOMMANDS_Generator.c.o
                0x00000000000339a0                ARCOMMANDS_Generator_GenerateCommonCalibrationStateMagnetoCalibrationStartedChanged
 .text.ARCOMMANDS_Generator_GenerateCommonCameraSettingsStateCameraSettingsChanged
                0x0000000000033a40      0x11e /home/heratom/Firefly-project/out/arsdk-native/build/libARCommands/obj/gen/Sources/ARCOMMANDS_Generator.c.o
                0x0000000000033a40                ARCOMMANDS_Generator_GenerateCommonCameraSettingsStateCameraSettingsChanged
 *fill*         0x0000000000033b5e        0x2 
 .text.ARCOMMANDS_Generator_GenerateCommonFlightPlanStateAvailabilityStateChanged
                0x0000000000033b60       0xa0 /home/heratom/Firefly-project/out/arsdk-native/build/libARCommands/obj/gen/Sources/ARCOMMANDS_Generator.c.o
                0x0000000000033b60                ARCOMMANDS_Generator_GenerateCommonFlightPlanStateAvailabilityStateChanged
 .text.ARCOMMANDS_Generator_GenerateCommonFlightPlanStateComponentStateListChanged
                0x0000000000033c00       0xae /home/heratom/Firefly-project/out/arsdk-native/build/libARCommands/obj/gen/Sources/ARCOMMANDS_Generator.c.o
                0x0000000000033c00                ARCOMMANDS_Generator_GenerateCommonFlightPlanStateComponentStateListChanged
 *fill*         0x0000000000033cae        0x2 
 .text.ARCOMMANDS_Generator_GenerateCommonFlightPlanEventStartingErrorEvent
                0x0000000000033cb0       0x7a /home/heratom/Firefly-project/out/arsdk-native/build/libARCommands/obj/gen/Sources/ARCOMMANDS_Generator.c.o
                0x0000000000033cb0                ARCOMMANDS_Generator_GenerateCommonFlightPlanEventStartingErrorEvent
 *fill*         0x0000000000033d2a        0x6 
 .text.ARCOMMANDS_Generator_GenerateCommonFlightPlanEventSpeedBridleEvent
                0x0000000000033d30       0x7a /home/heratom/Firefly-project/out/arsdk-native/build/libARCommands/obj/gen/Sources/ARCOMMANDS_Generator.c.o
                0x0000000000033d30                ARCOMMANDS_Generator_GenerateCommonFlightPlanEventSpeedBridleEvent
 *fill*         0x0000000000033daa        0x6 
 .text.ARCOMMANDS_Generator_GenerateCommonARLibsVersionsStateControllerLibARCommandsVersion
                0x0000000000033db0       0xb0 /home/heratom/Firefly-project/out/arsdk-native/build/libARCommands/obj/gen/Sources/ARCOMMANDS_Generator.c.o
                0x0000000000033db0                ARCOMMANDS_Generator_GenerateCommonARLibsVersionsStateControllerLibARCommandsVersion
 .text.ARCOMMANDS_Generator_GenerateCommonARLibsVersionsStateSkyControllerLibARCommandsVersion
                0x0000000000033e60       0xb0 /home/heratom/Firefly-project/out/arsdk-native/build/libARCommands/obj/gen/Sources/ARCOMMANDS_Generator.c.o
                0x0000000000033e60                ARCOMMANDS_Generator_GenerateCommonARLibsVersionsStateSkyControllerLibARCommandsVersion
 .text.ARCOMMANDS_Generator_GenerateCommonARLibsVersionsStateDeviceLibARCommandsVersion
                0x0000000000033f10       0xb0 /home/heratom/Firefly-project/out/arsdk-native/build/libARCommands/obj/gen/Sources/ARCOMMANDS_Generator.c.o
                0x0000000000033f10                ARCOMMANDS_Generator_GenerateCommonARLibsVersionsStateDeviceLibARCommandsVersion
 .text.ARCOMMANDS_Generator_GenerateCommonAudioStateAudioStreamingRunning
                0x0000000000033fc0       0xa0 /home/heratom/Firefly-project/out/arsdk-native/build/libARCommands/obj/gen/Sources/ARCOMMANDS_Generator.c.o
                0x0000000000033fc0                ARCOMMANDS_Generator_GenerateCommonAudioStateAudioStreamingRunning
 .text.ARCOMMANDS_Generator_GenerateCommonHeadlightsStateIntensityChanged
                0x0000000000034060       0xae /home/heratom/Firefly-project/out/arsdk-native/build/libARCommands/obj/gen/Sources/ARCOMMANDS_Generator.c.o
                0x0000000000034060                ARCOMMANDS_Generator_GenerateCommonHeadlightsStateIntensityChanged
 *fill*         0x000000000003410e        0x2 
 .text.ARCOMMANDS_Generator_GenerateCommonAnimationsStateList
                0x0000000000034110       0xdc /home/heratom/Firefly-project/out/arsdk-native/build/libARCommands/obj/gen/Sources/ARCOMMANDS_Generator.c.o
                0x0000000000034110                ARCOMMANDS_Generator_GenerateCommonAnimationsStateList
 *fill*         0x00000000000341ec        0x4 
 .text.ARCOMMANDS_Generator_GenerateCommonAccessoryStateSupportedAccessoriesListChanged
                0x00000000000341f0       0xa0 /home/heratom/Firefly-project/out/arsdk-native/build/libARCommands/obj/gen/Sources/ARCOMMANDS_Generator.c.o
                0x00000000000341f0                ARCOMMANDS_Generator_GenerateCommonAccessoryStateSupportedAccessoriesListChanged
 .text.ARCOMMANDS_Generator_GenerateCommonAccessoryStateAccessoryConfigChanged
                0x0000000000034290       0xae /home/heratom/Firefly-project/out/arsdk-native/build/libARCommands/obj/gen/Sources/ARCOMMANDS_Generator.c.o
                0x0000000000034290                ARCOMMANDS_Generator_GenerateCommonAccessoryStateAccessoryConfigChanged
 *fill*         0x000000000003433e        0x2 
 .text.ARCOMMANDS_Generator_GenerateCommonAccessoryStateAccessoryConfigModificationEnabled
                0x0000000000034340       0xa0 /home/heratom/Firefly-project/out/arsdk-native/build/libARCommands/obj/gen/Sources/ARCOMMANDS_Generator.c.o
                0x0000000000034340                ARCOMMANDS_Generator_GenerateCommonAccessoryStateAccessoryConfigModificationEnabled
 .text.ARCOMMANDS_Generator_GenerateCommonChargerStateMaxChargeRateChanged
                0x00000000000343e0       0xa0 /home/heratom/Firefly-project/out/arsdk-native/build/libARCommands/obj/gen/Sources/ARCOMMANDS_Generator.c.o
                0x00000000000343e0                ARCOMMANDS_Generator_GenerateCommonChargerStateMaxChargeRateChanged
 .text.ARCOMMANDS_Generator_GenerateCommonChargerStateCurrentChargeStateChanged
                0x0000000000034480       0xae /home/heratom/Firefly-project/out/arsdk-native/build/libARCommands/obj/gen/Sources/ARCOMMANDS_Generator.c.o
                0x0000000000034480                ARCOMMANDS_Generator_GenerateCommonChargerStateCurrentChargeStateChanged
 *fill*         0x000000000003452e        0x2 
 .text.ARCOMMANDS_Generator_GenerateCommonChargerStateLastChargeRateChanged
                0x0000000000034530       0xa0 /home/heratom/Firefly-project/out/arsdk-native/build/libARCommands/obj/gen/Sources/ARCOMMANDS_Generator.c.o
                0x0000000000034530                ARCOMMANDS_Generator_GenerateCommonChargerStateLastChargeRateChanged
 .text.ARCOMMANDS_Generator_GenerateCommonChargerStateChargingInfo
                0x00000000000345d0      0x10c /home/heratom/Firefly-project/out/arsdk-native/build/libARCommands/obj/gen/Sources/ARCOMMANDS_Generator.c.o
                0x00000000000345d0                ARCOMMANDS_Generator_GenerateCommonChargerStateChargingInfo
 *fill*         0x00000000000346dc        0x4 
 .text.ARCOMMANDS_Generator_GenerateCommonRunStateRunIdChanged
                0x00000000000346e0       0xb0 /home/heratom/Firefly-project/out/arsdk-native/build/libARCommands/obj/gen/Sources/ARCOMMANDS_Generator.c.o
                0x00000000000346e0                ARCOMMANDS_Generator_GenerateCommonRunStateRunIdChanged
 .text.ARCOMMANDS_Generator_GenerateCommonDebugStatsSendPacket
                0x0000000000034790       0xb0 /home/heratom/Firefly-project/out/arsdk-native/build/libARCommands/obj/gen/Sources/ARCOMMANDS_Generator.c.o
                0x0000000000034790                ARCOMMANDS_Generator_GenerateCommonDebugStatsSendPacket
 .text.ARCOMMANDS_Generator_GenerateCommonDebugStatsStartSendingPacketFromDrone
                0x0000000000034840       0xe4 /home/heratom/Firefly-project/out/arsdk-native/build/libARCommands/obj/gen/Sources/ARCOMMANDS_Generator.c.o
                0x0000000000034840                ARCOMMANDS_Generator_GenerateCommonDebugStatsStartSendingPacketFromDrone
 *fill*         0x0000000000034924        0xc 
 .text.ARCOMMANDS_Generator_GenerateCommonDebugStatsStopSendingPacketFromDrone
                0x0000000000034930       0x82 /home/heratom/Firefly-project/out/arsdk-native/build/libARCommands/obj/gen/Sources/ARCOMMANDS_Generator.c.o
                0x0000000000034930                ARCOMMANDS_Generator_GenerateCommonDebugStatsStopSendingPacketFromDrone
 *fill*         0x00000000000349b2        0xe 
 .text.ARCOMMANDS_Generator_GenerateCommonDebugDebugSettingsGetAll
                0x00000000000349c0       0x7a /home/heratom/Firefly-project/out/arsdk-native/build/libARCommands/obj/gen/Sources/ARCOMMANDS_Generator.c.o
                0x00000000000349c0                ARCOMMANDS_Generator_GenerateCommonDebugDebugSettingsGetAll
 *fill*         0x0000000000034a3a        0x6 
 .text.ARCOMMANDS_Generator_GenerateCommonDebugDebugSettingsSet
                0x0000000000034a40       0xce /home/heratom/Firefly-project/out/arsdk-native/build/libARCommands/obj/gen/Sources/ARCOMMANDS_Generator.c.o
                0x0000000000034a40                ARCOMMANDS_Generator_GenerateCommonDebugDebugSettingsSet
 *fill*         0x0000000000034b0e        0x2 
 .text.ARCOMMANDS_Generator_GenerateCommonDebugStatsEventSendPacket
                0x0000000000034b10       0xb0 /home/heratom/Firefly-project/out/arsdk-native/build/libARCommands/obj/gen/Sources/ARCOMMANDS_Generator.c.o
                0x0000000000034b10                ARCOMMANDS_Generator_GenerateCommonDebugStatsEventSendPacket
 .text.ARCOMMANDS_Generator_GenerateCommonDebugDebugSettingsStateInfo
                0x0000000000034bc0      0x1e0 /home/heratom/Firefly-project/out/arsdk-native/build/libARCommands/obj/gen/Sources/ARCOMMANDS_Generator.c.o
                0x0000000000034bc0                ARCOMMANDS_Generator_GenerateCommonDebugDebugSettingsStateInfo
 .text.ARCOMMANDS_Generator_GenerateCommonDebugDebugSettingsStateListChanged
                0x0000000000034da0       0xce /home/heratom/Firefly-project/out/arsdk-native/build/libARCommands/obj/gen/Sources/ARCOMMANDS_Generator.c.o
                0x0000000000034da0                ARCOMMANDS_Generator_GenerateCommonDebugDebugSettingsStateListChanged
 *fill*         0x0000000000034e6e        0x2 
 .text.ARCOMMANDS_Generator_GenerateProProBoughtFeatures
                0x0000000000034e70       0xa0 /home/heratom/Firefly-project/out/arsdk-native/build/libARCommands/obj/gen/Sources/ARCOMMANDS_Generator.c.o
                0x0000000000034e70                ARCOMMANDS_Generator_GenerateProProBoughtFeatures
 .text.ARCOMMANDS_Generator_GenerateProProResponse
                0x0000000000034f10       0xce /home/heratom/Firefly-project/out/arsdk-native/build/libARCommands/obj/gen/Sources/ARCOMMANDS_Generator.c.o
                0x0000000000034f10                ARCOMMANDS_Generator_GenerateProProResponse
 *fill*         0x0000000000034fde        0x2 
 .text.ARCOMMANDS_Generator_GenerateProProActivateFeatures
                0x0000000000034fe0       0xa0 /home/heratom/Firefly-project/out/arsdk-native/build/libARCommands/obj/gen/Sources/ARCOMMANDS_Generator.c.o
                0x0000000000034fe0                ARCOMMANDS_Generator_GenerateProProActivateFeatures
 .text.ARCOMMANDS_Generator_GenerateProProStateSupportedFeatures
                0x0000000000035080       0xae /home/heratom/Firefly-project/out/arsdk-native/build/libARCommands/obj/gen/Sources/ARCOMMANDS_Generator.c.o
                0x0000000000035080                ARCOMMANDS_Generator_GenerateProProStateSupportedFeatures
 *fill*         0x000000000003512e        0x2 
 .text.ARCOMMANDS_Generator_GenerateProProStateFeaturesActivated
                0x0000000000035130       0xa0 /home/heratom/Firefly-project/out/arsdk-native/build/libARCommands/obj/gen/Sources/ARCOMMANDS_Generator.c.o
                0x0000000000035130                ARCOMMANDS_Generator_GenerateProProStateFeaturesActivated
 .text.ARCOMMANDS_Generator_GenerateProProEventChallengeEvent
                0x00000000000351d0       0xb0 /home/heratom/Firefly-project/out/arsdk-native/build/libARCommands/obj/gen/Sources/ARCOMMANDS_Generator.c.o
                0x00000000000351d0                ARCOMMANDS_Generator_GenerateProProEventChallengeEvent
 .text.ARCOMMANDS_Generator_GenerateWifiScan
                0x0000000000035280       0xa0 /home/heratom/Firefly-project/out/arsdk-native/build/libARCommands/obj/gen/Sources/ARCOMMANDS_Generator.c.o
                0x0000000000035280                ARCOMMANDS_Generator_GenerateWifiScan
 .text.ARCOMMANDS_Generator_GenerateWifiUpdateAuthorizedChannels
                0x0000000000035320       0x7a /home/heratom/Firefly-project/out/arsdk-native/build/libARCommands/obj/gen/Sources/ARCOMMANDS_Generator.c.o
                0x0000000000035320                ARCOMMANDS_Generator_GenerateWifiUpdateAuthorizedChannels
 *fill*         0x000000000003539a        0x6 
 .text.ARCOMMANDS_Generator_GenerateWifiSetApChannel
                0x00000000000353a0       0xe4 /home/heratom/Firefly-project/out/arsdk-native/build/libARCommands/obj/gen/Sources/ARCOMMANDS_Generator.c.o
                0x00000000000353a0                ARCOMMANDS_Generator_GenerateWifiSetApChannel
 *fill*         0x0000000000035484        0xc 
 .text.ARCOMMANDS_Generator_GenerateWifiSetSecurity
                0x0000000000035490       0xfc /home/heratom/Firefly-project/out/arsdk-native/build/libARCommands/obj/gen/Sources/ARCOMMANDS_Generator.c.o
                0x0000000000035490                ARCOMMANDS_Generator_GenerateWifiSetSecurity
 *fill*         0x000000000003558c        0x4 
 .text.ARCOMMANDS_Generator_GenerateWifiSetCountry
                0x0000000000035590       0xce /home/heratom/Firefly-project/out/arsdk-native/build/libARCommands/obj/gen/Sources/ARCOMMANDS_Generator.c.o
                0x0000000000035590                ARCOMMANDS_Generator_GenerateWifiSetCountry
 *fill*         0x000000000003565e        0x2 
 .text.ARCOMMANDS_Generator_GenerateWifiSetEnvironement
                0x0000000000035660       0xa0 /home/heratom/Firefly-project/out/arsdk-native/build/libARCommands/obj/gen/Sources/ARCOMMANDS_Generator.c.o
                0x0000000000035660                ARCOMMANDS_Generator_GenerateWifiSetEnvironement
 .text.ARCOMMANDS_Generator_GenerateWifiScannedItem
                0x0000000000035700      0x154 /home/heratom/Firefly-project/out/arsdk-native/build/libARCommands/obj/gen/Sources/ARCOMMANDS_Generator.c.o
                0x0000000000035700                ARCOMMANDS_Generator_GenerateWifiScannedItem
 *fill*         0x0000000000035854        0xc 
 .text.ARCOMMANDS_Generator_GenerateWifiAuthorizedChannel
                0x0000000000035860      0x10c /home/heratom/Firefly-project/out/arsdk-native/build/libARCommands/obj/gen/Sources/ARCOMMANDS_Generator.c.o
                0x0000000000035860                ARCOMMANDS_Generator_GenerateWifiAuthorizedChannel
 *fill*         0x000000000003596c        0x4 
 .text.ARCOMMANDS_Generator_GenerateWifiApChannelChanged
                0x0000000000035970       0xe4 /home/heratom/Firefly-project/out/arsdk-native/build/libARCommands/obj/gen/Sources/ARCOMMANDS_Generator.c.o
                0x0000000000035970                ARCOMMANDS_Generator_GenerateWifiApChannelChanged
 *fill*         0x0000000000035a54        0xc 
 .text.ARCOMMANDS_Generator_GenerateWifiSecurityChanged
                0x0000000000035a60       0xce /home/heratom/Firefly-project/out/arsdk-native/build/libARCommands/obj/gen/Sources/ARCOMMANDS_Generator.c.o
                0x0000000000035a60                ARCOMMANDS_Generator_GenerateWifiSecurityChanged
 *fill*         0x0000000000035b2e        0x2 
 .text.ARCOMMANDS_Generator_GenerateWifiCountryChanged
                0x0000000000035b30       0xce /home/heratom/Firefly-project/out/arsdk-native/build/libARCommands/obj/gen/Sources/ARCOMMANDS_Generator.c.o
                0x0000000000035b30                ARCOMMANDS_Generator_GenerateWifiCountryChanged
 *fill*         0x0000000000035bfe        0x2 
 .text.ARCOMMANDS_Generator_GenerateWifiEnvironementChanged
                0x0000000000035c00       0xa0 /home/heratom/Firefly-project/out/arsdk-native/build/libARCommands/obj/gen/Sources/ARCOMMANDS_Generator.c.o
                0x0000000000035c00                ARCOMMANDS_Generator_GenerateWifiEnvironementChanged
 .text.ARCOMMANDS_Generator_GenerateWifiRssiChanged
                0x0000000000035ca0       0xa0 /home/heratom/Firefly-project/out/arsdk-native/build/libARCommands/obj/gen/Sources/ARCOMMANDS_Generator.c.o
                0x0000000000035ca0                ARCOMMANDS_Generator_GenerateWifiRssiChanged
 .text.ARCOMMANDS_Decoder_Init
                0x0000000000035d40       0x48 /home/heratom/Firefly-project/out/arsdk-native/build/libARCommands/obj/gen/Sources/ARCOMMANDS_Decoder.c.o
 *fill*         0x0000000000035d88        0x8 
 .text.ARCOMMANDS_Decoder_SetGenericDefaultCallback
                0x0000000000035d90       0x4c /home/heratom/Firefly-project/out/arsdk-native/build/libARCommands/obj/gen/Sources/ARCOMMANDS_Decoder.c.o
                0x0000000000035d90                ARCOMMANDS_Decoder_SetGenericDefaultCallback
 *fill*         0x0000000000035ddc        0x4 
 .text.ARCOMMANDS_Decoder_SetARDrone3PilotingFlatTrimCallback
                0x0000000000035de0       0x4c /home/heratom/Firefly-project/out/arsdk-native/build/libARCommands/obj/gen/Sources/ARCOMMANDS_Decoder.c.o
                0x0000000000035de0                ARCOMMANDS_Decoder_SetARDrone3PilotingFlatTrimCallback
 *fill*         0x0000000000035e2c        0x4 
 .text.ARCOMMANDS_Decoder_SetARDrone3PilotingTakeOffCallback
                0x0000000000035e30       0x4c /home/heratom/Firefly-project/out/arsdk-native/build/libARCommands/obj/gen/Sources/ARCOMMANDS_Decoder.c.o
                0x0000000000035e30                ARCOMMANDS_Decoder_SetARDrone3PilotingTakeOffCallback
 *fill*         0x0000000000035e7c        0x4 
 .text.ARCOMMANDS_Decoder_SetARDrone3PilotingPCMDCallback
                0x0000000000035e80       0x4c /home/heratom/Firefly-project/out/arsdk-native/build/libARCommands/obj/gen/Sources/ARCOMMANDS_Decoder.c.o
                0x0000000000035e80                ARCOMMANDS_Decoder_SetARDrone3PilotingPCMDCallback
 *fill*         0x0000000000035ecc        0x4 
 .text.ARCOMMANDS_Decoder_SetARDrone3PilotingLandingCallback
                0x0000000000035ed0       0x4c /home/heratom/Firefly-project/out/arsdk-native/build/libARCommands/obj/gen/Sources/ARCOMMANDS_Decoder.c.o
                0x0000000000035ed0                ARCOMMANDS_Decoder_SetARDrone3PilotingLandingCallback
 *fill*         0x0000000000035f1c        0x4 
 .text.ARCOMMANDS_Decoder_SetARDrone3PilotingEmergencyCallback
                0x0000000000035f20       0x4c /home/heratom/Firefly-project/out/arsdk-native/build/libARCommands/obj/gen/Sources/ARCOMMANDS_Decoder.c.o
                0x0000000000035f20                ARCOMMANDS_Decoder_SetARDrone3PilotingEmergencyCallback
 *fill*         0x0000000000035f6c        0x4 
 .text.ARCOMMANDS_Decoder_SetARDrone3PilotingNavigateHomeCallback
                0x0000000000035f70       0x4c /home/heratom/Firefly-project/out/arsdk-native/build/libARCommands/obj/gen/Sources/ARCOMMANDS_Decoder.c.o
                0x0000000000035f70                ARCOMMANDS_Decoder_SetARDrone3PilotingNavigateHomeCallback
 *fill*         0x0000000000035fbc        0x4 
 .text.ARCOMMANDS_Decoder_SetARDrone3PilotingAutoTakeOffModeCallback
                0x0000000000035fc0       0x4c /home/heratom/Firefly-project/out/arsdk-native/build/libARCommands/obj/gen/Sources/ARCOMMANDS_Decoder.c.o
                0x0000000000035fc0                ARCOMMANDS_Decoder_SetARDrone3PilotingAutoTakeOffModeCallback
 *fill*         0x000000000003600c        0x4 
 .text.ARCOMMANDS_Decoder_SetARDrone3PilotingMoveByCallback
                0x0000000000036010       0x4c /home/heratom/Firefly-project/out/arsdk-native/build/libARCommands/obj/gen/Sources/ARCOMMANDS_Decoder.c.o
                0x0000000000036010                ARCOMMANDS_Decoder_SetARDrone3PilotingMoveByCallback
 *fill*         0x000000000003605c        0x4 
 .text.ARCOMMANDS_Decoder_SetARDrone3PilotingUserTakeOffCallback
                0x0000000000036060       0x4c /home/heratom/Firefly-project/out/arsdk-native/build/libARCommands/obj/gen/Sources/ARCOMMANDS_Decoder.c.o
                0x0000000000036060                ARCOMMANDS_Decoder_SetARDrone3PilotingUserTakeOffCallback
 *fill*         0x00000000000360ac        0x4 
 .text.ARCOMMANDS_Decoder_SetARDrone3PilotingCircleCallback
                0x00000000000360b0       0x4c /home/heratom/Firefly-project/out/arsdk-native/build/libARCommands/obj/gen/Sources/ARCOMMANDS_Decoder.c.o
                0x00000000000360b0                ARCOMMANDS_Decoder_SetARDrone3PilotingCircleCallback
 *fill*         0x00000000000360fc        0x4 
 .text.ARCOMMANDS_Decoder_SetARDrone3AnimationsFlipCallback
                0x0000000000036100       0x4c /home/heratom/Firefly-project/out/arsdk-native/build/libARCommands/obj/gen/Sources/ARCOMMANDS_Decoder.c.o
                0x0000000000036100                ARCOMMANDS_Decoder_SetARDrone3AnimationsFlipCallback
 *fill*         0x000000000003614c        0x4 
 .text.ARCOMMANDS_Decoder_SetARDrone3CameraOrientationCallback
                0x0000000000036150       0x4c /home/heratom/Firefly-project/out/arsdk-native/build/libARCommands/obj/gen/Sources/ARCOMMANDS_Decoder.c.o
                0x0000000000036150                ARCOMMANDS_Decoder_SetARDrone3CameraOrientationCallback
 *fill*         0x000000000003619c        0x4 
 .text.ARCOMMANDS_Decoder_SetARDrone3MediaRecordPictureCallback
                0x00000000000361a0       0x4c /home/heratom/Firefly-project/out/arsdk-native/build/libARCommands/obj/gen/Sources/ARCOMMANDS_Decoder.c.o
                0x00000000000361a0                ARCOMMANDS_Decoder_SetARDrone3MediaRecordPictureCallback
 *fill*         0x00000000000361ec        0x4 
 .text.ARCOMMANDS_Decoder_SetARDrone3MediaRecordVideoCallback
                0x00000000000361f0       0x4c /home/heratom/Firefly-project/out/arsdk-native/build/libARCommands/obj/gen/Sources/ARCOMMANDS_Decoder.c.o
                0x00000000000361f0                ARCOMMANDS_Decoder_SetARDrone3MediaRecordVideoCallback
 *fill*         0x000000000003623c        0x4 
 .text.ARCOMMANDS_Decoder_SetARDrone3MediaRecordPictureV2Callback
                0x0000000000036240       0x4c /home/heratom/Firefly-project/out/arsdk-native/build/libARCommands/obj/gen/Sources/ARCOMMANDS_Decoder.c.o
                0x0000000000036240                ARCOMMANDS_Decoder_SetARDrone3MediaRecordPictureV2Callback
 *fill*         0x000000000003628c        0x4 
 .text.ARCOMMANDS_Decoder_SetARDrone3MediaRecordVideoV2Callback
                0x0000000000036290       0x4c /home/heratom/Firefly-project/out/arsdk-native/build/libARCommands/obj/gen/Sources/ARCOMMANDS_Decoder.c.o
                0x0000000000036290                ARCOMMANDS_Decoder_SetARDrone3MediaRecordVideoV2Callback
 *fill*         0x00000000000362dc        0x4 
 .text.ARCOMMANDS_Decoder_SetARDrone3NetworkWifiScanCallback
                0x00000000000362e0       0x4c /home/heratom/Firefly-project/out/arsdk-native/build/libARCommands/obj/gen/Sources/ARCOMMANDS_Decoder.c.o
                0x00000000000362e0                ARCOMMANDS_Decoder_SetARDrone3NetworkWifiScanCallback
 *fill*         0x000000000003632c        0x4 
 .text.ARCOMMANDS_Decoder_SetARDrone3NetworkWifiAuthChannelCallback
                0x0000000000036330       0x4c /home/heratom/Firefly-project/out/arsdk-native/build/libARCommands/obj/gen/Sources/ARCOMMANDS_Decoder.c.o
                0x0000000000036330                ARCOMMANDS_Decoder_SetARDrone3NetworkWifiAuthChannelCallback
 *fill*         0x000000000003637c        0x4 
 .text.ARCOMMANDS_Decoder_SetARDrone3PilotingSettingsMaxAltitudeCallback
                0x0000000000036380       0x4c /home/heratom/Firefly-project/out/arsdk-native/build/libARCommands/obj/gen/Sources/ARCOMMANDS_Decoder.c.o
                0x0000000000036380                ARCOMMANDS_Decoder_SetARDrone3PilotingSettingsMaxAltitudeCallback
 *fill*         0x00000000000363cc        0x4 
 .text.ARCOMMANDS_Decoder_SetARDrone3PilotingSettingsMaxTiltCallback
                0x00000000000363d0       0x4c /home/heratom/Firefly-project/out/arsdk-native/build/libARCommands/obj/gen/Sources/ARCOMMANDS_Decoder.c.o
                0x00000000000363d0                ARCOMMANDS_Decoder_SetARDrone3PilotingSettingsMaxTiltCallback
 *fill*         0x000000000003641c        0x4 
 .text.ARCOMMANDS_Decoder_SetARDrone3PilotingSettingsAbsolutControlCallback
                0x0000000000036420       0x4c /home/heratom/Firefly-project/out/arsdk-native/build/libARCommands/obj/gen/Sources/ARCOMMANDS_Decoder.c.o
                0x0000000000036420                ARCOMMANDS_Decoder_SetARDrone3PilotingSettingsAbsolutControlCallback
 *fill*         0x000000000003646c        0x4 
 .text.ARCOMMANDS_Decoder_SetARDrone3PilotingSettingsMaxDistanceCallback
                0x0000000000036470       0x4c /home/heratom/Firefly-project/out/arsdk-native/build/libARCommands/obj/gen/Sources/ARCOMMANDS_Decoder.c.o
                0x0000000000036470                ARCOMMANDS_Decoder_SetARDrone3PilotingSettingsMaxDistanceCallback
 *fill*         0x00000000000364bc        0x4 
 .text.ARCOMMANDS_Decoder_SetARDrone3PilotingSettingsNoFlyOverMaxDistanceCallback
                0x00000000000364c0       0x4c /home/heratom/Firefly-project/out/arsdk-native/build/libARCommands/obj/gen/Sources/ARCOMMANDS_Decoder.c.o
                0x00000000000364c0                ARCOMMANDS_Decoder_SetARDrone3PilotingSettingsNoFlyOverMaxDistanceCallback
 *fill*         0x000000000003650c        0x4 
 .text.ARCOMMANDS_Decoder_SetARDrone3PilotingSettingsSetAutonomousFlightMaxHorizontalSpeedCallback
                0x0000000000036510       0x4c /home/heratom/Firefly-project/out/arsdk-native/build/libARCommands/obj/gen/Sources/ARCOMMANDS_Decoder.c.o
                0x0000000000036510                ARCOMMANDS_Decoder_SetARDrone3PilotingSettingsSetAutonomousFlightMaxHorizontalSpeedCallback
 *fill*         0x000000000003655c        0x4 
 .text.ARCOMMANDS_Decoder_SetARDrone3PilotingSettingsSetAutonomousFlightMaxVerticalSpeedCallback
                0x0000000000036560       0x4c /home/heratom/Firefly-project/out/arsdk-native/build/libARCommands/obj/gen/Sources/ARCOMMANDS_Decoder.c.o
                0x0000000000036560                ARCOMMANDS_Decoder_SetARDrone3PilotingSettingsSetAutonomousFlightMaxVerticalSpeedCallback
 *fill*         0x00000000000365ac        0x4 
 .text.ARCOMMANDS_Decoder_SetARDrone3PilotingSettingsSetAutonomousFlightMaxHorizontalAccelerationCallback
                0x00000000000365b0       0x4c /home/heratom/Firefly-project/out/arsdk-native/build/libARCommands/obj/gen/Sources/ARCOMMANDS_Decoder.c.o
                0x00000000000365b0                ARCOMMANDS_Decoder_SetARDrone3PilotingSettingsSetAutonomousFlightMaxHorizontalAccelerationCallback
 *fill*         0x00000000000365fc        0x4 
 .text.ARCOMMANDS_Decoder_SetARDrone3PilotingSettingsSetAutonomousFlightMaxVerticalAccelerationCallback
                0x0000000000036600       0x4c /home/heratom/Firefly-project/out/arsdk-native/build/libARCommands/obj/gen/Sources/ARCOMMANDS_Decoder.c.o
                0x0000000000036600                ARCOMMANDS_Decoder_SetARDrone3PilotingSettingsSetAutonomousFlightMaxVerticalAccelerationCallback
 *fill*         0x000000000003664c        0x4 
 .text.ARCOMMANDS_Decoder_SetARDrone3PilotingSettingsSetAutonomousFlightMaxRotationSpeedCallback
                0x0000000000036650       0x4c /home/heratom/Firefly-project/out/arsdk-native/build/libARCommands/obj/gen/Sources/ARCOMMANDS_Decoder.c.o
                0x0000000000036650                ARCOMMANDS_Decoder_SetARDrone3PilotingSettingsSetAutonomousFlightMaxRotationSpeedCallback
 *fill*         0x000000000003669c        0x4 
 .text.ARCOMMANDS_Decoder_SetARDrone3PilotingSettingsBankedTurnCallback
                0x00000000000366a0       0x4c /home/heratom/Firefly-project/out/arsdk-native/build/libARCommands/obj/gen/Sources/ARCOMMANDS_Decoder.c.o
                0x00000000000366a0                ARCOMMANDS_Decoder_SetARDrone3PilotingSettingsBankedTurnCallback
 *fill*         0x00000000000366ec        0x4 
 .text.ARCOMMANDS_Decoder_SetARDrone3PilotingSettingsMinAltitudeCallback
                0x00000000000366f0       0x4c /home/heratom/Firefly-project/out/arsdk-native/build/libARCommands/obj/gen/Sources/ARCOMMANDS_Decoder.c.o
                0x00000000000366f0                ARCOMMANDS_Decoder_SetARDrone3PilotingSettingsMinAltitudeCallback
 *fill*         0x000000000003673c        0x4 
 .text.ARCOMMANDS_Decoder_SetARDrone3PilotingSettingsCirclingDirectionCallback
                0x0000000000036740       0x4c /home/heratom/Firefly-project/out/arsdk-native/build/libARCommands/obj/gen/Sources/ARCOMMANDS_Decoder.c.o
                0x0000000000036740                ARCOMMANDS_Decoder_SetARDrone3PilotingSettingsCirclingDirectionCallback
 *fill*         0x000000000003678c        0x4 
 .text.ARCOMMANDS_Decoder_SetARDrone3PilotingSettingsCirclingRadiusCallback
                0x0000000000036790       0x4c /home/heratom/Firefly-project/out/arsdk-native/build/libARCommands/obj/gen/Sources/ARCOMMANDS_Decoder.c.o
                0x0000000000036790                ARCOMMANDS_Decoder_SetARDrone3PilotingSettingsCirclingRadiusCallback
 *fill*         0x00000000000367dc        0x4 
 .text.ARCOMMANDS_Decoder_SetARDrone3PilotingSettingsCirclingAltitudeCallback
                0x00000000000367e0       0x4c /home/heratom/Firefly-project/out/arsdk-native/build/libARCommands/obj/gen/Sources/ARCOMMANDS_Decoder.c.o
                0x00000000000367e0                ARCOMMANDS_Decoder_SetARDrone3PilotingSettingsCirclingAltitudeCallback
 *fill*         0x000000000003682c        0x4 
 .text.ARCOMMANDS_Decoder_SetARDrone3PilotingSettingsPitchModeCallback
                0x0000000000036830       0x4c /home/heratom/Firefly-project/out/arsdk-native/build/libARCommands/obj/gen/Sources/ARCOMMANDS_Decoder.c.o
                0x0000000000036830                ARCOMMANDS_Decoder_SetARDrone3PilotingSettingsPitchModeCallback
 *fill*         0x000000000003687c        0x4 
 .text.ARCOMMANDS_Decoder_SetARDrone3PilotingSettingsLandingModeCallback
                0x0000000000036880       0x4c /home/heratom/Firefly-project/out/arsdk-native/build/libARCommands/obj/gen/Sources/ARCOMMANDS_Decoder.c.o
                0x0000000000036880                ARCOMMANDS_Decoder_SetARDrone3PilotingSettingsLandingModeCallback
 *fill*         0x00000000000368cc        0x4 
 .text.ARCOMMANDS_Decoder_SetARDrone3SpeedSettingsMaxVerticalSpeedCallback
                0x00000000000368d0       0x4c /home/heratom/Firefly-project/out/arsdk-native/build/libARCommands/obj/gen/Sources/ARCOMMANDS_Decoder.c.o
                0x00000000000368d0                ARCOMMANDS_Decoder_SetARDrone3SpeedSettingsMaxVerticalSpeedCallback
 *fill*         0x000000000003691c        0x4 
 .text.ARCOMMANDS_Decoder_SetARDrone3SpeedSettingsMaxRotationSpeedCallback
                0x0000000000036920       0x4c /home/heratom/Firefly-project/out/arsdk-native/build/libARCommands/obj/gen/Sources/ARCOMMANDS_Decoder.c.o
                0x0000000000036920                ARCOMMANDS_Decoder_SetARDrone3SpeedSettingsMaxRotationSpeedCallback
 *fill*         0x000000000003696c        0x4 
 .text.ARCOMMANDS_Decoder_SetARDrone3SpeedSettingsHullProtectionCallback
                0x0000000000036970       0x4c /home/heratom/Firefly-project/out/arsdk-native/build/libARCommands/obj/gen/Sources/ARCOMMANDS_Decoder.c.o
                0x0000000000036970                ARCOMMANDS_Decoder_SetARDrone3SpeedSettingsHullProtectionCallback
 *fill*         0x00000000000369bc        0x4 
 .text.ARCOMMANDS_Decoder_SetARDrone3SpeedSettingsOutdoorCallback
                0x00000000000369c0       0x4c /home/heratom/Firefly-project/out/arsdk-native/build/libARCommands/obj/gen/Sources/ARCOMMANDS_Decoder.c.o
                0x00000000000369c0                ARCOMMANDS_Decoder_SetARDrone3SpeedSettingsOutdoorCallback
 *fill*         0x0000000000036a0c        0x4 
 .text.ARCOMMANDS_Decoder_SetARDrone3SpeedSettingsMaxPitchRollRotationSpeedCallback
                0x0000000000036a10       0x4c /home/heratom/Firefly-project/out/arsdk-native/build/libARCommands/obj/gen/Sources/ARCOMMANDS_Decoder.c.o
                0x0000000000036a10                ARCOMMANDS_Decoder_SetARDrone3SpeedSettingsMaxPitchRollRotationSpeedCallback
 *fill*         0x0000000000036a5c        0x4 
 .text.ARCOMMANDS_Decoder_SetARDrone3NetworkSettingsWifiSelectionCallback
                0x0000000000036a60       0x4c /home/heratom/Firefly-project/out/arsdk-native/build/libARCommands/obj/gen/Sources/ARCOMMANDS_Decoder.c.o
                0x0000000000036a60                ARCOMMANDS_Decoder_SetARDrone3NetworkSettingsWifiSelectionCallback
 *fill*         0x0000000000036aac        0x4 
 .text.ARCOMMANDS_Decoder_SetARDrone3NetworkSettingsWifiSecurityCallback
                0x0000000000036ab0       0x4c /home/heratom/Firefly-project/out/arsdk-native/build/libARCommands/obj/gen/Sources/ARCOMMANDS_Decoder.c.o
                0x0000000000036ab0                ARCOMMANDS_Decoder_SetARDrone3NetworkSettingsWifiSecurityCallback
 *fill*         0x0000000000036afc        0x4 
 .text.ARCOMMANDS_Decoder_SetARDrone3PictureSettingsPictureFormatSelectionCallback
                0x0000000000036b00       0x4c /home/heratom/Firefly-project/out/arsdk-native/build/libARCommands/obj/gen/Sources/ARCOMMANDS_Decoder.c.o
                0x0000000000036b00                ARCOMMANDS_Decoder_SetARDrone3PictureSettingsPictureFormatSelectionCallback
 *fill*         0x0000000000036b4c        0x4 
 .text.ARCOMMANDS_Decoder_SetARDrone3PictureSettingsAutoWhiteBalanceSelectionCallback
                0x0000000000036b50       0x4c /home/heratom/Firefly-project/out/arsdk-native/build/libARCommands/obj/gen/Sources/ARCOMMANDS_Decoder.c.o
                0x0000000000036b50                ARCOMMANDS_Decoder_SetARDrone3PictureSettingsAutoWhiteBalanceSelectionCallback
 *fill*         0x0000000000036b9c        0x4 
 .text.ARCOMMANDS_Decoder_SetARDrone3PictureSettingsExpositionSelectionCallback
                0x0000000000036ba0       0x4c /home/heratom/Firefly-project/out/arsdk-native/build/libARCommands/obj/gen/Sources/ARCOMMANDS_Decoder.c.o
                0x0000000000036ba0                ARCOMMANDS_Decoder_SetARDrone3PictureSettingsExpositionSelectionCallback
 *fill*         0x0000000000036bec        0x4 
 .text.ARCOMMANDS_Decoder_SetARDrone3PictureSettingsSaturationSelectionCallback
                0x0000000000036bf0       0x4c /home/heratom/Firefly-project/out/arsdk-native/build/libARCommands/obj/gen/Sources/ARCOMMANDS_Decoder.c.o
                0x0000000000036bf0                ARCOMMANDS_Decoder_SetARDrone3PictureSettingsSaturationSelectionCallback
 *fill*         0x0000000000036c3c        0x4 
 .text.ARCOMMANDS_Decoder_SetARDrone3PictureSettingsTimelapseSelectionCallback
                0x0000000000036c40       0x4c /home/heratom/Firefly-project/out/arsdk-native/build/libARCommands/obj/gen/Sources/ARCOMMANDS_Decoder.c.o
                0x0000000000036c40                ARCOMMANDS_Decoder_SetARDrone3PictureSettingsTimelapseSelectionCallback
 *fill*         0x0000000000036c8c        0x4 
 .text.ARCOMMANDS_Decoder_SetARDrone3PictureSettingsVideoAutorecordSelectionCallback
                0x0000000000036c90       0x4c /home/heratom/Firefly-project/out/arsdk-native/build/libARCommands/obj/gen/Sources/ARCOMMANDS_Decoder.c.o
                0x0000000000036c90                ARCOMMANDS_Decoder_SetARDrone3PictureSettingsVideoAutorecordSelectionCallback
 *fill*         0x0000000000036cdc        0x4 
 .text.ARCOMMANDS_Decoder_SetARDrone3PictureSettingsVideoStabilizationModeCallback
                0x0000000000036ce0       0x4c /home/heratom/Firefly-project/out/arsdk-native/build/libARCommands/obj/gen/Sources/ARCOMMANDS_Decoder.c.o
                0x0000000000036ce0                ARCOMMANDS_Decoder_SetARDrone3PictureSettingsVideoStabilizationModeCallback
 *fill*         0x0000000000036d2c        0x4 
 .text.ARCOMMANDS_Decoder_SetARDrone3MediaStreamingVideoEnableCallback
                0x0000000000036d30       0x4c /home/heratom/Firefly-project/out/arsdk-native/build/libARCommands/obj/gen/Sources/ARCOMMANDS_Decoder.c.o
                0x0000000000036d30                ARCOMMANDS_Decoder_SetARDrone3MediaStreamingVideoEnableCallback
 *fill*         0x0000000000036d7c        0x4 
 .text.ARCOMMANDS_Decoder_SetARDrone3GPSSettingsSetHomeCallback
                0x0000000000036d80       0x4c /home/heratom/Firefly-project/out/arsdk-native/build/libARCommands/obj/gen/Sources/ARCOMMANDS_Decoder.c.o
                0x0000000000036d80                ARCOMMANDS_Decoder_SetARDrone3GPSSettingsSetHomeCallback
 *fill*         0x0000000000036dcc        0x4 
 .text.ARCOMMANDS_Decoder_SetARDrone3GPSSettingsResetHomeCallback
                0x0000000000036dd0       0x4c /home/heratom/Firefly-project/out/arsdk-native/build/libARCommands/obj/gen/Sources/ARCOMMANDS_Decoder.c.o
                0x0000000000036dd0                ARCOMMANDS_Decoder_SetARDrone3GPSSettingsResetHomeCallback
 *fill*         0x0000000000036e1c        0x4 
 .text.ARCOMMANDS_Decoder_SetARDrone3GPSSettingsSendControllerGPSCallback
                0x0000000000036e20       0x4c /home/heratom/Firefly-project/out/arsdk-native/build/libARCommands/obj/gen/Sources/ARCOMMANDS_Decoder.c.o
                0x0000000000036e20                ARCOMMANDS_Decoder_SetARDrone3GPSSettingsSendControllerGPSCallback
 *fill*         0x0000000000036e6c        0x4 
 .text.ARCOMMANDS_Decoder_SetARDrone3GPSSettingsHomeTypeCallback
                0x0000000000036e70       0x4c /home/heratom/Firefly-project/out/arsdk-native/build/libARCommands/obj/gen/Sources/ARCOMMANDS_Decoder.c.o
                0x0000000000036e70                ARCOMMANDS_Decoder_SetARDrone3GPSSettingsHomeTypeCallback
 *fill*         0x0000000000036ebc        0x4 
 .text.ARCOMMANDS_Decoder_SetARDrone3GPSSettingsReturnHomeDelayCallback
                0x0000000000036ec0       0x4c /home/heratom/Firefly-project/out/arsdk-native/build/libARCommands/obj/gen/Sources/ARCOMMANDS_Decoder.c.o
                0x0000000000036ec0                ARCOMMANDS_Decoder_SetARDrone3GPSSettingsReturnHomeDelayCallback
 *fill*         0x0000000000036f0c        0x4 
 .text.ARCOMMANDS_Decoder_SetARDrone3AntiflickeringElectricFrequencyCallback
                0x0000000000036f10       0x4c /home/heratom/Firefly-project/out/arsdk-native/build/libARCommands/obj/gen/Sources/ARCOMMANDS_Decoder.c.o
                0x0000000000036f10                ARCOMMANDS_Decoder_SetARDrone3AntiflickeringElectricFrequencyCallback
 *fill*         0x0000000000036f5c        0x4 
 .text.ARCOMMANDS_Decoder_SetARDrone3AntiflickeringSetModeCallback
                0x0000000000036f60       0x4c /home/heratom/Firefly-project/out/arsdk-native/build/libARCommands/obj/gen/Sources/ARCOMMANDS_Decoder.c.o
                0x0000000000036f60                ARCOMMANDS_Decoder_SetARDrone3AntiflickeringSetModeCallback
 *fill*         0x0000000000036fac        0x4 
 .text.ARCOMMANDS_Decoder_SetARDrone3MediaRecordStatePictureStateChangedCallback
                0x0000000000036fb0       0x4c /home/heratom/Firefly-project/out/arsdk-native/build/libARCommands/obj/gen/Sources/ARCOMMANDS_Decoder.c.o
                0x0000000000036fb0                ARCOMMANDS_Decoder_SetARDrone3MediaRecordStatePictureStateChangedCallback
 *fill*         0x0000000000036ffc        0x4 
 .text.ARCOMMANDS_Decoder_SetARDrone3MediaRecordStateVideoStateChangedCallback
                0x0000000000037000       0x4c /home/heratom/Firefly-project/out/arsdk-native/build/libARCommands/obj/gen/Sources/ARCOMMANDS_Decoder.c.o
                0x0000000000037000                ARCOMMANDS_Decoder_SetARDrone3MediaRecordStateVideoStateChangedCallback
 *fill*         0x000000000003704c        0x4 
 .text.ARCOMMANDS_Decoder_SetARDrone3MediaRecordStatePictureStateChangedV2Callback
                0x0000000000037050       0x4c /home/heratom/Firefly-project/out/arsdk-native/build/libARCommands/obj/gen/Sources/ARCOMMANDS_Decoder.c.o
                0x0000000000037050                ARCOMMANDS_Decoder_SetARDrone3MediaRecordStatePictureStateChangedV2Callback
 *fill*         0x000000000003709c        0x4 
 .text.ARCOMMANDS_Decoder_SetARDrone3MediaRecordStateVideoStateChangedV2Callback
                0x00000000000370a0       0x4c /home/heratom/Firefly-project/out/arsdk-native/build/libARCommands/obj/gen/Sources/ARCOMMANDS_Decoder.c.o
                0x00000000000370a0                ARCOMMANDS_Decoder_SetARDrone3MediaRecordStateVideoStateChangedV2Callback
 *fill*         0x00000000000370ec        0x4 
 .text.ARCOMMANDS_Decoder_SetARDrone3MediaRecordEventPictureEventChangedCallback
                0x00000000000370f0       0x4c /home/heratom/Firefly-project/out/arsdk-native/build/libARCommands/obj/gen/Sources/ARCOMMANDS_Decoder.c.o
                0x00000000000370f0                ARCOMMANDS_Decoder_SetARDrone3MediaRecordEventPictureEventChangedCallback
 *fill*         0x000000000003713c        0x4 
 .text.ARCOMMANDS_Decoder_SetARDrone3MediaRecordEventVideoEventChangedCallback
                0x0000000000037140       0x4c /home/heratom/Firefly-project/out/arsdk-native/build/libARCommands/obj/gen/Sources/ARCOMMANDS_Decoder.c.o
                0x0000000000037140                ARCOMMANDS_Decoder_SetARDrone3MediaRecordEventVideoEventChangedCallback
 *fill*         0x000000000003718c        0x4 
 .text.ARCOMMANDS_Decoder_SetARDrone3PilotingStateFlatTrimChangedCallback
                0x0000000000037190       0x4c /home/heratom/Firefly-project/out/arsdk-native/build/libARCommands/obj/gen/Sources/ARCOMMANDS_Decoder.c.o
                0x0000000000037190                ARCOMMANDS_Decoder_SetARDrone3PilotingStateFlatTrimChangedCallback
 *fill*         0x00000000000371dc        0x4 
 .text.ARCOMMANDS_Decoder_SetARDrone3PilotingStateFlyingStateChangedCallback
                0x00000000000371e0       0x4c /home/heratom/Firefly-project/out/arsdk-native/build/libARCommands/obj/gen/Sources/ARCOMMANDS_Decoder.c.o
                0x00000000000371e0                ARCOMMANDS_Decoder_SetARDrone3PilotingStateFlyingStateChangedCallback
 *fill*         0x000000000003722c        0x4 
 .text.ARCOMMANDS_Decoder_SetARDrone3PilotingStateAlertStateChangedCallback
                0x0000000000037230       0x4c /home/heratom/Firefly-project/out/arsdk-native/build/libARCommands/obj/gen/Sources/ARCOMMANDS_Decoder.c.o
                0x0000000000037230                ARCOMMANDS_Decoder_SetARDrone3PilotingStateAlertStateChangedCallback
 *fill*         0x000000000003727c        0x4 
 .text.ARCOMMANDS_Decoder_SetARDrone3PilotingStateNavigateHomeStateChangedCallback
                0x0000000000037280       0x4c /home/heratom/Firefly-project/out/arsdk-native/build/libARCommands/obj/gen/Sources/ARCOMMANDS_Decoder.c.o
                0x0000000000037280                ARCOMMANDS_Decoder_SetARDrone3PilotingStateNavigateHomeStateChangedCallback
 *fill*         0x00000000000372cc        0x4 
 .text.ARCOMMANDS_Decoder_SetARDrone3PilotingStatePositionChangedCallback
                0x00000000000372d0       0x4c /home/heratom/Firefly-project/out/arsdk-native/build/libARCommands/obj/gen/Sources/ARCOMMANDS_Decoder.c.o
                0x00000000000372d0                ARCOMMANDS_Decoder_SetARDrone3PilotingStatePositionChangedCallback
 *fill*         0x000000000003731c        0x4 
 .text.ARCOMMANDS_Decoder_SetARDrone3PilotingStateSpeedChangedCallback
                0x0000000000037320       0x4c /home/heratom/Firefly-project/out/arsdk-native/build/libARCommands/obj/gen/Sources/ARCOMMANDS_Decoder.c.o
                0x0000000000037320                ARCOMMANDS_Decoder_SetARDrone3PilotingStateSpeedChangedCallback
 *fill*         0x000000000003736c        0x4 
 .text.ARCOMMANDS_Decoder_SetARDrone3PilotingStateAttitudeChangedCallback
                0x0000000000037370       0x4c /home/heratom/Firefly-project/out/arsdk-native/build/libARCommands/obj/gen/Sources/ARCOMMANDS_Decoder.c.o
                0x0000000000037370                ARCOMMANDS_Decoder_SetARDrone3PilotingStateAttitudeChangedCallback
 *fill*         0x00000000000373bc        0x4 
 .text.ARCOMMANDS_Decoder_SetARDrone3PilotingStateAutoTakeOffModeChangedCallback
                0x00000000000373c0       0x4c /home/heratom/Firefly-project/out/arsdk-native/build/libARCommands/obj/gen/Sources/ARCOMMANDS_Decoder.c.o
                0x00000000000373c0                ARCOMMANDS_Decoder_SetARDrone3PilotingStateAutoTakeOffModeChangedCallback
 *fill*         0x000000000003740c        0x4 
 .text.ARCOMMANDS_Decoder_SetARDrone3PilotingStateAltitudeChangedCallback
                0x0000000000037410       0x4c /home/heratom/Firefly-project/out/arsdk-native/build/libARCommands/obj/gen/Sources/ARCOMMANDS_Decoder.c.o
                0x0000000000037410                ARCOMMANDS_Decoder_SetARDrone3PilotingStateAltitudeChangedCallback
 *fill*         0x000000000003745c        0x4 
 .text.ARCOMMANDS_Decoder_SetARDrone3PilotingEventMoveByEndCallback
                0x0000000000037460       0x4c /home/heratom/Firefly-project/out/arsdk-native/build/libARCommands/obj/gen/Sources/ARCOMMANDS_Decoder.c.o
                0x0000000000037460                ARCOMMANDS_Decoder_SetARDrone3PilotingEventMoveByEndCallback
 *fill*         0x00000000000374ac        0x4 
 .text.ARCOMMANDS_Decoder_SetARDrone3NetworkStateWifiScanListChangedCallback
                0x00000000000374b0       0x4c /home/heratom/Firefly-project/out/arsdk-native/build/libARCommands/obj/gen/Sources/ARCOMMANDS_Decoder.c.o
                0x00000000000374b0                ARCOMMANDS_Decoder_SetARDrone3NetworkStateWifiScanListChangedCallback
 *fill*         0x00000000000374fc        0x4 
 .text.ARCOMMANDS_Decoder_SetARDrone3NetworkStateAllWifiScanChangedCallback
                0x0000000000037500       0x4c /home/heratom/Firefly-project/out/arsdk-native/build/libARCommands/obj/gen/Sources/ARCOMMANDS_Decoder.c.o
                0x0000000000037500                ARCOMMANDS_Decoder_SetARDrone3NetworkStateAllWifiScanChangedCallback
 *fill*         0x000000000003754c        0x4 
 .text.ARCOMMANDS_Decoder_SetARDrone3NetworkStateWifiAuthChannelListChangedCallback
                0x0000000000037550       0x4c /home/heratom/Firefly-project/out/arsdk-native/build/libARCommands/obj/gen/Sources/ARCOMMANDS_Decoder.c.o
                0x0000000000037550                ARCOMMANDS_Decoder_SetARDrone3NetworkStateWifiAuthChannelListChangedCallback
 *fill*         0x000000000003759c        0x4 
 .text.ARCOMMANDS_Decoder_SetARDrone3NetworkStateAllWifiAuthChannelChangedCallback
                0x00000000000375a0       0x4c /home/heratom/Firefly-project/out/arsdk-native/build/libARCommands/obj/gen/Sources/ARCOMMANDS_Decoder.c.o
                0x00000000000375a0                ARCOMMANDS_Decoder_SetARDrone3NetworkStateAllWifiAuthChannelChangedCallback
 *fill*         0x00000000000375ec        0x4 
 .text.ARCOMMANDS_Decoder_SetARDrone3PilotingSettingsStateMaxAltitudeChangedCallback
                0x00000000000375f0       0x4c /home/heratom/Firefly-project/out/arsdk-native/build/libARCommands/obj/gen/Sources/ARCOMMANDS_Decoder.c.o
                0x00000000000375f0                ARCOMMANDS_Decoder_SetARDrone3PilotingSettingsStateMaxAltitudeChangedCallback
 *fill*         0x000000000003763c        0x4 
 .text.ARCOMMANDS_Decoder_SetARDrone3PilotingSettingsStateMaxTiltChangedCallback
                0x0000000000037640       0x4c /home/heratom/Firefly-project/out/arsdk-native/build/libARCommands/obj/gen/Sources/ARCOMMANDS_Decoder.c.o
                0x0000000000037640                ARCOMMANDS_Decoder_SetARDrone3PilotingSettingsStateMaxTiltChangedCallback
 *fill*         0x000000000003768c        0x4 
 .text.ARCOMMANDS_Decoder_SetARDrone3PilotingSettingsStateAbsolutControlChangedCallback
                0x0000000000037690       0x4c /home/heratom/Firefly-project/out/arsdk-native/build/libARCommands/obj/gen/Sources/ARCOMMANDS_Decoder.c.o
                0x0000000000037690                ARCOMMANDS_Decoder_SetARDrone3PilotingSettingsStateAbsolutControlChangedCallback
 *fill*         0x00000000000376dc        0x4 
 .text.ARCOMMANDS_Decoder_SetARDrone3PilotingSettingsStateMaxDistanceChangedCallback
                0x00000000000376e0       0x4c /home/heratom/Firefly-project/out/arsdk-native/build/libARCommands/obj/gen/Sources/ARCOMMANDS_Decoder.c.o
                0x00000000000376e0                ARCOMMANDS_Decoder_SetARDrone3PilotingSettingsStateMaxDistanceChangedCallback
 *fill*         0x000000000003772c        0x4 
 .text.ARCOMMANDS_Decoder_SetARDrone3PilotingSettingsStateNoFlyOverMaxDistanceChangedCallback
                0x0000000000037730       0x4c /home/heratom/Firefly-project/out/arsdk-native/build/libARCommands/obj/gen/Sources/ARCOMMANDS_Decoder.c.o
                0x0000000000037730                ARCOMMANDS_Decoder_SetARDrone3PilotingSettingsStateNoFlyOverMaxDistanceChangedCallback
 *fill*         0x000000000003777c        0x4 
 .text.ARCOMMANDS_Decoder_SetARDrone3PilotingSettingsStateAutonomousFlightMaxHorizontalSpeedCallback
                0x0000000000037780       0x4c /home/heratom/Firefly-project/out/arsdk-native/build/libARCommands/obj/gen/Sources/ARCOMMANDS_Decoder.c.o
                0x0000000000037780                ARCOMMANDS_Decoder_SetARDrone3PilotingSettingsStateAutonomousFlightMaxHorizontalSpeedCallback
 *fill*         0x00000000000377cc        0x4 
 .text.ARCOMMANDS_Decoder_SetARDrone3PilotingSettingsStateAutonomousFlightMaxVerticalSpeedCallback
                0x00000000000377d0       0x4c /home/heratom/Firefly-project/out/arsdk-native/build/libARCommands/obj/gen/Sources/ARCOMMANDS_Decoder.c.o
                0x00000000000377d0                ARCOMMANDS_Decoder_SetARDrone3PilotingSettingsStateAutonomousFlightMaxVerticalSpeedCallback
 *fill*         0x000000000003781c        0x4 
 .text.ARCOMMANDS_Decoder_SetARDrone3PilotingSettingsStateAutonomousFlightMaxHorizontalAccelerationCallback
                0x0000000000037820       0x4c /home/heratom/Firefly-project/out/arsdk-native/build/libARCommands/obj/gen/Sources/ARCOMMANDS_Decoder.c.o
                0x0000000000037820                ARCOMMANDS_Decoder_SetARDrone3PilotingSettingsStateAutonomousFlightMaxHorizontalAccelerationCallback
 *fill*         0x000000000003786c        0x4 
 .text.ARCOMMANDS_Decoder_SetARDrone3PilotingSettingsStateAutonomousFlightMaxVerticalAccelerationCallback
                0x0000000000037870       0x4c /home/heratom/Firefly-project/out/arsdk-native/build/libARCommands/obj/gen/Sources/ARCOMMANDS_Decoder.c.o
                0x0000000000037870                ARCOMMANDS_Decoder_SetARDrone3PilotingSettingsStateAutonomousFlightMaxVerticalAccelerationCallback
 *fill*         0x00000000000378bc        0x4 
 .text.ARCOMMANDS_Decoder_SetARDrone3PilotingSettingsStateAutonomousFlightMaxRotationSpeedCallback
                0x00000000000378c0       0x4c /home/heratom/Firefly-project/out/arsdk-native/build/libARCommands/obj/gen/Sources/ARCOMMANDS_Decoder.c.o
                0x00000000000378c0                ARCOMMANDS_Decoder_SetARDrone3PilotingSettingsStateAutonomousFlightMaxRotationSpeedCallback
 *fill*         0x000000000003790c        0x4 
 .text.ARCOMMANDS_Decoder_SetARDrone3PilotingSettingsStateBankedTurnChangedCallback
                0x0000000000037910       0x4c /home/heratom/Firefly-project/out/arsdk-native/build/libARCommands/obj/gen/Sources/ARCOMMANDS_Decoder.c.o
                0x0000000000037910                ARCOMMANDS_Decoder_SetARDrone3PilotingSettingsStateBankedTurnChangedCallback
 *fill*         0x000000000003795c        0x4 
 .text.ARCOMMANDS_Decoder_SetARDrone3PilotingSettingsStateMinAltitudeChangedCallback
                0x0000000000037960       0x4c /home/heratom/Firefly-project/out/arsdk-native/build/libARCommands/obj/gen/Sources/ARCOMMANDS_Decoder.c.o
                0x0000000000037960                ARCOMMANDS_Decoder_SetARDrone3PilotingSettingsStateMinAltitudeChangedCallback
 *fill*         0x00000000000379ac        0x4 
 .text.ARCOMMANDS_Decoder_SetARDrone3PilotingSettingsStateCirclingDirectionChangedCallback
                0x00000000000379b0       0x4c /home/heratom/Firefly-project/out/arsdk-native/build/libARCommands/obj/gen/Sources/ARCOMMANDS_Decoder.c.o
                0x00000000000379b0                ARCOMMANDS_Decoder_SetARDrone3PilotingSettingsStateCirclingDirectionChangedCallback
 *fill*         0x00000000000379fc        0x4 
 .text.ARCOMMANDS_Decoder_SetARDrone3PilotingSettingsStateCirclingRadiusChangedCallback
                0x0000000000037a00       0x4c /home/heratom/Firefly-project/out/arsdk-native/build/libARCommands/obj/gen/Sources/ARCOMMANDS_Decoder.c.o
                0x0000000000037a00                ARCOMMANDS_Decoder_SetARDrone3PilotingSettingsStateCirclingRadiusChangedCallback
 *fill*         0x0000000000037a4c        0x4 
 .text.ARCOMMANDS_Decoder_SetARDrone3PilotingSettingsStateCirclingAltitudeChangedCallback
                0x0000000000037a50       0x4c /home/heratom/Firefly-project/out/arsdk-native/build/libARCommands/obj/gen/Sources/ARCOMMANDS_Decoder.c.o
                0x0000000000037a50                ARCOMMANDS_Decoder_SetARDrone3PilotingSettingsStateCirclingAltitudeChangedCallback
 *fill*         0x0000000000037a9c        0x4 
 .text.ARCOMMANDS_Decoder_SetARDrone3PilotingSettingsStatePitchModeChangedCallback
                0x0000000000037aa0       0x4c /home/heratom/Firefly-project/out/arsdk-native/build/libARCommands/obj/gen/Sources/ARCOMMANDS_Decoder.c.o
                0x0000000000037aa0                ARCOMMANDS_Decoder_SetARDrone3PilotingSettingsStatePitchModeChangedCallback
 *fill*         0x0000000000037aec        0x4 
 .text.ARCOMMANDS_Decoder_SetARDrone3PilotingSettingsStateLandingModeChangedCallback
                0x0000000000037af0       0x4c /home/heratom/Firefly-project/out/arsdk-native/build/libARCommands/obj/gen/Sources/ARCOMMANDS_Decoder.c.o
                0x0000000000037af0                ARCOMMANDS_Decoder_SetARDrone3PilotingSettingsStateLandingModeChangedCallback
 *fill*         0x0000000000037b3c        0x4 
 .text.ARCOMMANDS_Decoder_SetARDrone3SpeedSettingsStateMaxVerticalSpeedChangedCallback
                0x0000000000037b40       0x4c /home/heratom/Firefly-project/out/arsdk-native/build/libARCommands/obj/gen/Sources/ARCOMMANDS_Decoder.c.o
                0x0000000000037b40                ARCOMMANDS_Decoder_SetARDrone3SpeedSettingsStateMaxVerticalSpeedChangedCallback
 *fill*         0x0000000000037b8c        0x4 
 .text.ARCOMMANDS_Decoder_SetARDrone3SpeedSettingsStateMaxRotationSpeedChangedCallback
                0x0000000000037b90       0x4c /home/heratom/Firefly-project/out/arsdk-native/build/libARCommands/obj/gen/Sources/ARCOMMANDS_Decoder.c.o
                0x0000000000037b90                ARCOMMANDS_Decoder_SetARDrone3SpeedSettingsStateMaxRotationSpeedChangedCallback
 *fill*         0x0000000000037bdc        0x4 
 .text.ARCOMMANDS_Decoder_SetARDrone3SpeedSettingsStateHullProtectionChangedCallback
                0x0000000000037be0       0x4c /home/heratom/Firefly-project/out/arsdk-native/build/libARCommands/obj/gen/Sources/ARCOMMANDS_Decoder.c.o
                0x0000000000037be0                ARCOMMANDS_Decoder_SetARDrone3SpeedSettingsStateHullProtectionChangedCallback
 *fill*         0x0000000000037c2c        0x4 
 .text.ARCOMMANDS_Decoder_SetARDrone3SpeedSettingsStateOutdoorChangedCallback
                0x0000000000037c30       0x4c /home/heratom/Firefly-project/out/arsdk-native/build/libARCommands/obj/gen/Sources/ARCOMMANDS_Decoder.c.o
                0x0000000000037c30                ARCOMMANDS_Decoder_SetARDrone3SpeedSettingsStateOutdoorChangedCallback
 *fill*         0x0000000000037c7c        0x4 
 .text.ARCOMMANDS_Decoder_SetARDrone3SpeedSettingsStateMaxPitchRollRotationSpeedChangedCallback
                0x0000000000037c80       0x4c /home/heratom/Firefly-project/out/arsdk-native/build/libARCommands/obj/gen/Sources/ARCOMMANDS_Decoder.c.o
                0x0000000000037c80                ARCOMMANDS_Decoder_SetARDrone3SpeedSettingsStateMaxPitchRollRotationSpeedChangedCallback
 *fill*         0x0000000000037ccc        0x4 
 .text.ARCOMMANDS_Decoder_SetARDrone3NetworkSettingsStateWifiSelectionChangedCallback
                0x0000000000037cd0       0x4c /home/heratom/Firefly-project/out/arsdk-native/build/libARCommands/obj/gen/Sources/ARCOMMANDS_Decoder.c.o
                0x0000000000037cd0                ARCOMMANDS_Decoder_SetARDrone3NetworkSettingsStateWifiSelectionChangedCallback
 *fill*         0x0000000000037d1c        0x4 
 .text.ARCOMMANDS_Decoder_SetARDrone3NetworkSettingsStateWifiSecurityChangedCallback
                0x0000000000037d20       0x4c /home/heratom/Firefly-project/out/arsdk-native/build/libARCommands/obj/gen/Sources/ARCOMMANDS_Decoder.c.o
                0x0000000000037d20                ARCOMMANDS_Decoder_SetARDrone3NetworkSettingsStateWifiSecurityChangedCallback
 *fill*         0x0000000000037d6c        0x4 
 .text.ARCOMMANDS_Decoder_SetARDrone3NetworkSettingsStateWifiSecurityCallback
                0x0000000000037d70       0x4c /home/heratom/Firefly-project/out/arsdk-native/build/libARCommands/obj/gen/Sources/ARCOMMANDS_Decoder.c.o
                0x0000000000037d70                ARCOMMANDS_Decoder_SetARDrone3NetworkSettingsStateWifiSecurityCallback
 *fill*         0x0000000000037dbc        0x4 
 .text.ARCOMMANDS_Decoder_SetARDrone3SettingsStateProductMotorVersionListChangedCallback
                0x0000000000037dc0       0x4c /home/heratom/Firefly-project/out/arsdk-native/build/libARCommands/obj/gen/Sources/ARCOMMANDS_Decoder.c.o
                0x0000000000037dc0                ARCOMMANDS_Decoder_SetARDrone3SettingsStateProductMotorVersionListChangedCallback
 *fill*         0x0000000000037e0c        0x4 
 .text.ARCOMMANDS_Decoder_SetARDrone3SettingsStateProductGPSVersionChangedCallback
                0x0000000000037e10       0x4c /home/heratom/Firefly-project/out/arsdk-native/build/libARCommands/obj/gen/Sources/ARCOMMANDS_Decoder.c.o
                0x0000000000037e10                ARCOMMANDS_Decoder_SetARDrone3SettingsStateProductGPSVersionChangedCallback
 *fill*         0x0000000000037e5c        0x4 
 .text.ARCOMMANDS_Decoder_SetARDrone3SettingsStateMotorErrorStateChangedCallback
                0x0000000000037e60       0x4c /home/heratom/Firefly-project/out/arsdk-native/build/libARCommands/obj/gen/Sources/ARCOMMANDS_Decoder.c.o
                0x0000000000037e60                ARCOMMANDS_Decoder_SetARDrone3SettingsStateMotorErrorStateChangedCallback
 *fill*         0x0000000000037eac        0x4 
 .text.ARCOMMANDS_Decoder_SetARDrone3SettingsStateMotorSoftwareVersionChangedCallback
                0x0000000000037eb0       0x4c /home/heratom/Firefly-project/out/arsdk-native/build/libARCommands/obj/gen/Sources/ARCOMMANDS_Decoder.c.o
                0x0000000000037eb0                ARCOMMANDS_Decoder_SetARDrone3SettingsStateMotorSoftwareVersionChangedCallback
 *fill*         0x0000000000037efc        0x4 
 .text.ARCOMMANDS_Decoder_SetARDrone3SettingsStateMotorFlightsStatusChangedCallback
                0x0000000000037f00       0x4c /home/heratom/Firefly-project/out/arsdk-native/build/libARCommands/obj/gen/Sources/ARCOMMANDS_Decoder.c.o
                0x0000000000037f00                ARCOMMANDS_Decoder_SetARDrone3SettingsStateMotorFlightsStatusChangedCallback
 *fill*         0x0000000000037f4c        0x4 
 .text.ARCOMMANDS_Decoder_SetARDrone3SettingsStateMotorErrorLastErrorChangedCallback
                0x0000000000037f50       0x4c /home/heratom/Firefly-project/out/arsdk-native/build/libARCommands/obj/gen/Sources/ARCOMMANDS_Decoder.c.o
                0x0000000000037f50                ARCOMMANDS_Decoder_SetARDrone3SettingsStateMotorErrorLastErrorChangedCallback
 *fill*         0x0000000000037f9c        0x4 
 .text.ARCOMMANDS_Decoder_SetARDrone3SettingsStateP7IDCallback
                0x0000000000037fa0       0x4c /home/heratom/Firefly-project/out/arsdk-native/build/libARCommands/obj/gen/Sources/ARCOMMANDS_Decoder.c.o
                0x0000000000037fa0                ARCOMMANDS_Decoder_SetARDrone3SettingsStateP7IDCallback
 *fill*         0x0000000000037fec        0x4 
 .text.ARCOMMANDS_Decoder_SetARDrone3PictureSettingsStatePictureFormatChangedCallback
                0x0000000000037ff0       0x4c /home/heratom/Firefly-project/out/arsdk-native/build/libARCommands/obj/gen/Sources/ARCOMMANDS_Decoder.c.o
                0x0000000000037ff0                ARCOMMANDS_Decoder_SetARDrone3PictureSettingsStatePictureFormatChangedCallback
 *fill*         0x000000000003803c        0x4 
 .text.ARCOMMANDS_Decoder_SetARDrone3PictureSettingsStateAutoWhiteBalanceChangedCallback
                0x0000000000038040       0x4c /home/heratom/Firefly-project/out/arsdk-native/build/libARCommands/obj/gen/Sources/ARCOMMANDS_Decoder.c.o
                0x0000000000038040                ARCOMMANDS_Decoder_SetARDrone3PictureSettingsStateAutoWhiteBalanceChangedCallback
 *fill*         0x000000000003808c        0x4 
 .text.ARCOMMANDS_Decoder_SetARDrone3PictureSettingsStateExpositionChangedCallback
                0x0000000000038090       0x4c /home/heratom/Firefly-project/out/arsdk-native/build/libARCommands/obj/gen/Sources/ARCOMMANDS_Decoder.c.o
                0x0000000000038090                ARCOMMANDS_Decoder_SetARDrone3PictureSettingsStateExpositionChangedCallback
 *fill*         0x00000000000380dc        0x4 
 .text.ARCOMMANDS_Decoder_SetARDrone3PictureSettingsStateSaturationChangedCallback
                0x00000000000380e0       0x4c /home/heratom/Firefly-project/out/arsdk-native/build/libARCommands/obj/gen/Sources/ARCOMMANDS_Decoder.c.o
                0x00000000000380e0                ARCOMMANDS_Decoder_SetARDrone3PictureSettingsStateSaturationChangedCallback
 *fill*         0x000000000003812c        0x4 
 .text.ARCOMMANDS_Decoder_SetARDrone3PictureSettingsStateTimelapseChangedCallback
                0x0000000000038130       0x4c /home/heratom/Firefly-project/out/arsdk-native/build/libARCommands/obj/gen/Sources/ARCOMMANDS_Decoder.c.o
                0x0000000000038130                ARCOMMANDS_Decoder_SetARDrone3PictureSettingsStateTimelapseChangedCallback
 *fill*         0x000000000003817c        0x4 
 .text.ARCOMMANDS_Decoder_SetARDrone3PictureSettingsStateVideoAutorecordChangedCallback
                0x0000000000038180       0x4c /home/heratom/Firefly-project/out/arsdk-native/build/libARCommands/obj/gen/Sources/ARCOMMANDS_Decoder.c.o
                0x0000000000038180                ARCOMMANDS_Decoder_SetARDrone3PictureSettingsStateVideoAutorecordChangedCallback
 *fill*         0x00000000000381cc        0x4 
 .text.ARCOMMANDS_Decoder_SetARDrone3PictureSettingsStateVideoStabilizationModeChangedCallback
                0x00000000000381d0       0x4c /home/heratom/Firefly-project/out/arsdk-native/build/libARCommands/obj/gen/Sources/ARCOMMANDS_Decoder.c.o
                0x00000000000381d0                ARCOMMANDS_Decoder_SetARDrone3PictureSettingsStateVideoStabilizationModeChangedCallback
 *fill*         0x000000000003821c        0x4 
 .text.ARCOMMANDS_Decoder_SetARDrone3MediaStreamingStateVideoEnableChangedCallback
                0x0000000000038220       0x4c /home/heratom/Firefly-project/out/arsdk-native/build/libARCommands/obj/gen/Sources/ARCOMMANDS_Decoder.c.o
                0x0000000000038220                ARCOMMANDS_Decoder_SetARDrone3MediaStreamingStateVideoEnableChangedCallback
 *fill*         0x000000000003826c        0x4 
 .text.ARCOMMANDS_Decoder_SetARDrone3GPSSettingsStateHomeChangedCallback
                0x0000000000038270       0x4c /home/heratom/Firefly-project/out/arsdk-native/build/libARCommands/obj/gen/Sources/ARCOMMANDS_Decoder.c.o
                0x0000000000038270                ARCOMMANDS_Decoder_SetARDrone3GPSSettingsStateHomeChangedCallback
 *fill*         0x00000000000382bc        0x4 
 .text.ARCOMMANDS_Decoder_SetARDrone3GPSSettingsStateResetHomeChangedCallback
                0x00000000000382c0       0x4c /home/heratom/Firefly-project/out/arsdk-native/build/libARCommands/obj/gen/Sources/ARCOMMANDS_Decoder.c.o
                0x00000000000382c0                ARCOMMANDS_Decoder_SetARDrone3GPSSettingsStateResetHomeChangedCallback
 *fill*         0x000000000003830c        0x4 
 .text.ARCOMMANDS_Decoder_SetARDrone3GPSSettingsStateGPSFixStateChangedCallback
                0x0000000000038310       0x4c /home/heratom/Firefly-project/out/arsdk-native/build/libARCommands/obj/gen/Sources/ARCOMMANDS_Decoder.c.o
                0x0000000000038310                ARCOMMANDS_Decoder_SetARDrone3GPSSettingsStateGPSFixStateChangedCallback
 *fill*         0x000000000003835c        0x4 
 .text.ARCOMMANDS_Decoder_SetARDrone3GPSSettingsStateGPSUpdateStateChangedCallback
                0x0000000000038360       0x4c /home/heratom/Firefly-project/out/arsdk-native/build/libARCommands/obj/gen/Sources/ARCOMMANDS_Decoder.c.o
                0x0000000000038360                ARCOMMANDS_Decoder_SetARDrone3GPSSettingsStateGPSUpdateStateChangedCallback
 *fill*         0x00000000000383ac        0x4 
 .text.ARCOMMANDS_Decoder_SetARDrone3GPSSettingsStateHomeTypeChangedCallback
                0x00000000000383b0       0x4c /home/heratom/Firefly-project/out/arsdk-native/build/libARCommands/obj/gen/Sources/ARCOMMANDS_Decoder.c.o
                0x00000000000383b0                ARCOMMANDS_Decoder_SetARDrone3GPSSettingsStateHomeTypeChangedCallback
 *fill*         0x00000000000383fc        0x4 
 .text.ARCOMMANDS_Decoder_SetARDrone3GPSSettingsStateReturnHomeDelayChangedCallback
                0x0000000000038400       0x4c /home/heratom/Firefly-project/out/arsdk-native/build/libARCommands/obj/gen/Sources/ARCOMMANDS_Decoder.c.o
                0x0000000000038400                ARCOMMANDS_Decoder_SetARDrone3GPSSettingsStateReturnHomeDelayChangedCallback
 *fill*         0x000000000003844c        0x4 
 .text.ARCOMMANDS_Decoder_SetARDrone3CameraStateOrientationCallback
                0x0000000000038450       0x4c /home/heratom/Firefly-project/out/arsdk-native/build/libARCommands/obj/gen/Sources/ARCOMMANDS_Decoder.c.o
                0x0000000000038450                ARCOMMANDS_Decoder_SetARDrone3CameraStateOrientationCallback
 *fill*         0x000000000003849c        0x4 
 .text.ARCOMMANDS_Decoder_SetARDrone3CameraStateDefaultCameraOrientationCallback
                0x00000000000384a0       0x4c /home/heratom/Firefly-project/out/arsdk-native/build/libARCommands/obj/gen/Sources/ARCOMMANDS_Decoder.c.o
                0x00000000000384a0                ARCOMMANDS_Decoder_SetARDrone3CameraStateDefaultCameraOrientationCallback
 *fill*         0x00000000000384ec        0x4 
 .text.ARCOMMANDS_Decoder_SetARDrone3AntiflickeringStateElectricFrequencyChangedCallback
                0x00000000000384f0       0x4c /home/heratom/Firefly-project/out/arsdk-native/build/libARCommands/obj/gen/Sources/ARCOMMANDS_Decoder.c.o
                0x00000000000384f0                ARCOMMANDS_Decoder_SetARDrone3AntiflickeringStateElectricFrequencyChangedCallback
 *fill*         0x000000000003853c        0x4 
 .text.ARCOMMANDS_Decoder_SetARDrone3AntiflickeringStateModeChangedCallback
                0x0000000000038540       0x4c /home/heratom/Firefly-project/out/arsdk-native/build/libARCommands/obj/gen/Sources/ARCOMMANDS_Decoder.c.o
                0x0000000000038540                ARCOMMANDS_Decoder_SetARDrone3AntiflickeringStateModeChangedCallback
 *fill*         0x000000000003858c        0x4 
 .text.ARCOMMANDS_Decoder_SetARDrone3GPSStateNumberOfSatelliteChangedCallback
                0x0000000000038590       0x4c /home/heratom/Firefly-project/out/arsdk-native/build/libARCommands/obj/gen/Sources/ARCOMMANDS_Decoder.c.o
                0x0000000000038590                ARCOMMANDS_Decoder_SetARDrone3GPSStateNumberOfSatelliteChangedCallback
 *fill*         0x00000000000385dc        0x4 
 .text.ARCOMMANDS_Decoder_SetARDrone3GPSStateHomeTypeAvailabilityChangedCallback
                0x00000000000385e0       0x4c /home/heratom/Firefly-project/out/arsdk-native/build/libARCommands/obj/gen/Sources/ARCOMMANDS_Decoder.c.o
                0x00000000000385e0                ARCOMMANDS_Decoder_SetARDrone3GPSStateHomeTypeAvailabilityChangedCallback
 *fill*         0x000000000003862c        0x4 
 .text.ARCOMMANDS_Decoder_SetARDrone3GPSStateHomeTypeChosenChangedCallback
                0x0000000000038630       0x4c /home/heratom/Firefly-project/out/arsdk-native/build/libARCommands/obj/gen/Sources/ARCOMMANDS_Decoder.c.o
                0x0000000000038630                ARCOMMANDS_Decoder_SetARDrone3GPSStateHomeTypeChosenChangedCallback
 *fill*         0x000000000003867c        0x4 
 .text.ARCOMMANDS_Decoder_SetARDrone3PROStateFeaturesCallback
                0x0000000000038680       0x4c /home/heratom/Firefly-project/out/arsdk-native/build/libARCommands/obj/gen/Sources/ARCOMMANDS_Decoder.c.o
                0x0000000000038680                ARCOMMANDS_Decoder_SetARDrone3PROStateFeaturesCallback
 *fill*         0x00000000000386cc        0x4 
 .text.ARCOMMANDS_Decoder_SetJumpingSumoPilotingPCMDCallback
                0x00000000000386d0       0x4c /home/heratom/Firefly-project/out/arsdk-native/build/libARCommands/obj/gen/Sources/ARCOMMANDS_Decoder.c.o
                0x00000000000386d0                ARCOMMANDS_Decoder_SetJumpingSumoPilotingPCMDCallback
 *fill*         0x000000000003871c        0x4 
 .text.ARCOMMANDS_Decoder_SetJumpingSumoPilotingPostureCallback
                0x0000000000038720       0x4c /home/heratom/Firefly-project/out/arsdk-native/build/libARCommands/obj/gen/Sources/ARCOMMANDS_Decoder.c.o
                0x0000000000038720                ARCOMMANDS_Decoder_SetJumpingSumoPilotingPostureCallback
 *fill*         0x000000000003876c        0x4 
 .text.ARCOMMANDS_Decoder_SetJumpingSumoPilotingAddCapOffsetCallback
                0x0000000000038770       0x4c /home/heratom/Firefly-project/out/arsdk-native/build/libARCommands/obj/gen/Sources/ARCOMMANDS_Decoder.c.o
                0x0000000000038770                ARCOMMANDS_Decoder_SetJumpingSumoPilotingAddCapOffsetCallback
 *fill*         0x00000000000387bc        0x4 
 .text.ARCOMMANDS_Decoder_SetJumpingSumoAnimationsJumpStopCallback
                0x00000000000387c0       0x4c /home/heratom/Firefly-project/out/arsdk-native/build/libARCommands/obj/gen/Sources/ARCOMMANDS_Decoder.c.o
                0x00000000000387c0                ARCOMMANDS_Decoder_SetJumpingSumoAnimationsJumpStopCallback
 *fill*         0x000000000003880c        0x4 
 .text.ARCOMMANDS_Decoder_SetJumpingSumoAnimationsJumpCancelCallback
                0x0000000000038810       0x4c /home/heratom/Firefly-project/out/arsdk-native/build/libARCommands/obj/gen/Sources/ARCOMMANDS_Decoder.c.o
                0x0000000000038810                ARCOMMANDS_Decoder_SetJumpingSumoAnimationsJumpCancelCallback
 *fill*         0x000000000003885c        0x4 
 .text.ARCOMMANDS_Decoder_SetJumpingSumoAnimationsJumpLoadCallback
                0x0000000000038860       0x4c /home/heratom/Firefly-project/out/arsdk-native/build/libARCommands/obj/gen/Sources/ARCOMMANDS_Decoder.c.o
                0x0000000000038860                ARCOMMANDS_Decoder_SetJumpingSumoAnimationsJumpLoadCallback
 *fill*         0x00000000000388ac        0x4 
 .text.ARCOMMANDS_Decoder_SetJumpingSumoAnimationsJumpCallback
                0x00000000000388b0       0x4c /home/heratom/Firefly-project/out/arsdk-native/build/libARCommands/obj/gen/Sources/ARCOMMANDS_Decoder.c.o
                0x00000000000388b0                ARCOMMANDS_Decoder_SetJumpingSumoAnimationsJumpCallback
 *fill*         0x00000000000388fc        0x4 
 .text.ARCOMMANDS_Decoder_SetJumpingSumoAnimationsSimpleAnimationCallback
                0x0000000000038900       0x4c /home/heratom/Firefly-project/out/arsdk-native/build/libARCommands/obj/gen/Sources/ARCOMMANDS_Decoder.c.o
                0x0000000000038900                ARCOMMANDS_Decoder_SetJumpingSumoAnimationsSimpleAnimationCallback
 *fill*         0x000000000003894c        0x4 
 .text.ARCOMMANDS_Decoder_SetJumpingSumoMediaRecordPictureCallback
                0x0000000000038950       0x4c /home/heratom/Firefly-project/out/arsdk-native/build/libARCommands/obj/gen/Sources/ARCOMMANDS_Decoder.c.o
                0x0000000000038950                ARCOMMANDS_Decoder_SetJumpingSumoMediaRecordPictureCallback
 *fill*         0x000000000003899c        0x4 
 .text.ARCOMMANDS_Decoder_SetJumpingSumoMediaRecordVideoCallback
                0x00000000000389a0       0x4c /home/heratom/Firefly-project/out/arsdk-native/build/libARCommands/obj/gen/Sources/ARCOMMANDS_Decoder.c.o
                0x00000000000389a0                ARCOMMANDS_Decoder_SetJumpingSumoMediaRecordVideoCallback
 *fill*         0x00000000000389ec        0x4 
 .text.ARCOMMANDS_Decoder_SetJumpingSumoMediaRecordPictureV2Callback
                0x00000000000389f0       0x4c /home/heratom/Firefly-project/out/arsdk-native/build/libARCommands/obj/gen/Sources/ARCOMMANDS_Decoder.c.o
                0x00000000000389f0                ARCOMMANDS_Decoder_SetJumpingSumoMediaRecordPictureV2Callback
 *fill*         0x0000000000038a3c        0x4 
 .text.ARCOMMANDS_Decoder_SetJumpingSumoMediaRecordVideoV2Callback
                0x0000000000038a40       0x4c /home/heratom/Firefly-project/out/arsdk-native/build/libARCommands/obj/gen/Sources/ARCOMMANDS_Decoder.c.o
                0x0000000000038a40                ARCOMMANDS_Decoder_SetJumpingSumoMediaRecordVideoV2Callback
 *fill*         0x0000000000038a8c        0x4 
 .text.ARCOMMANDS_Decoder_SetJumpingSumoNetworkSettingsWifiSelectionCallback
                0x0000000000038a90       0x4c /home/heratom/Firefly-project/out/arsdk-native/build/libARCommands/obj/gen/Sources/ARCOMMANDS_Decoder.c.o
                0x0000000000038a90                ARCOMMANDS_Decoder_SetJumpingSumoNetworkSettingsWifiSelectionCallback
 *fill*         0x0000000000038adc        0x4 
 .text.ARCOMMANDS_Decoder_SetJumpingSumoNetworkWifiScanCallback
                0x0000000000038ae0       0x4c /home/heratom/Firefly-project/out/arsdk-native/build/libARCommands/obj/gen/Sources/ARCOMMANDS_Decoder.c.o
                0x0000000000038ae0                ARCOMMANDS_Decoder_SetJumpingSumoNetworkWifiScanCallback
 *fill*         0x0000000000038b2c        0x4 
 .text.ARCOMMANDS_Decoder_SetJumpingSumoNetworkWifiAuthChannelCallback
                0x0000000000038b30       0x4c /home/heratom/Firefly-project/out/arsdk-native/build/libARCommands/obj/gen/Sources/ARCOMMANDS_Decoder.c.o
                0x0000000000038b30                ARCOMMANDS_Decoder_SetJumpingSumoNetworkWifiAuthChannelCallback
 *fill*         0x0000000000038b7c        0x4 
 .text.ARCOMMANDS_Decoder_SetJumpingSumoAudioSettingsMasterVolumeCallback
                0x0000000000038b80       0x4c /home/heratom/Firefly-project/out/arsdk-native/build/libARCommands/obj/gen/Sources/ARCOMMANDS_Decoder.c.o
                0x0000000000038b80                ARCOMMANDS_Decoder_SetJumpingSumoAudioSettingsMasterVolumeCallback
 *fill*         0x0000000000038bcc        0x4 
 .text.ARCOMMANDS_Decoder_SetJumpingSumoAudioSettingsThemeCallback
                0x0000000000038bd0       0x4c /home/heratom/Firefly-project/out/arsdk-native/build/libARCommands/obj/gen/Sources/ARCOMMANDS_Decoder.c.o
                0x0000000000038bd0                ARCOMMANDS_Decoder_SetJumpingSumoAudioSettingsThemeCallback
 *fill*         0x0000000000038c1c        0x4 
 .text.ARCOMMANDS_Decoder_SetJumpingSumoRoadPlanAllScriptsMetadataCallback
                0x0000000000038c20       0x4c /home/heratom/Firefly-project/out/arsdk-native/build/libARCommands/obj/gen/Sources/ARCOMMANDS_Decoder.c.o
                0x0000000000038c20                ARCOMMANDS_Decoder_SetJumpingSumoRoadPlanAllScriptsMetadataCallback
 *fill*         0x0000000000038c6c        0x4 
 .text.ARCOMMANDS_Decoder_SetJumpingSumoRoadPlanScriptUploadedCallback
                0x0000000000038c70       0x4c /home/heratom/Firefly-project/out/arsdk-native/build/libARCommands/obj/gen/Sources/ARCOMMANDS_Decoder.c.o
                0x0000000000038c70                ARCOMMANDS_Decoder_SetJumpingSumoRoadPlanScriptUploadedCallback
 *fill*         0x0000000000038cbc        0x4 
 .text.ARCOMMANDS_Decoder_SetJumpingSumoRoadPlanScriptDeleteCallback
                0x0000000000038cc0       0x4c /home/heratom/Firefly-project/out/arsdk-native/build/libARCommands/obj/gen/Sources/ARCOMMANDS_Decoder.c.o
                0x0000000000038cc0                ARCOMMANDS_Decoder_SetJumpingSumoRoadPlanScriptDeleteCallback
 *fill*         0x0000000000038d0c        0x4 
 .text.ARCOMMANDS_Decoder_SetJumpingSumoRoadPlanPlayScriptCallback
                0x0000000000038d10       0x4c /home/heratom/Firefly-project/out/arsdk-native/build/libARCommands/obj/gen/Sources/ARCOMMANDS_Decoder.c.o
                0x0000000000038d10                ARCOMMANDS_Decoder_SetJumpingSumoRoadPlanPlayScriptCallback
 *fill*         0x0000000000038d5c        0x4 
 .text.ARCOMMANDS_Decoder_SetJumpingSumoSpeedSettingsOutdoorCallback
                0x0000000000038d60       0x4c /home/heratom/Firefly-project/out/arsdk-native/build/libARCommands/obj/gen/Sources/ARCOMMANDS_Decoder.c.o
                0x0000000000038d60                ARCOMMANDS_Decoder_SetJumpingSumoSpeedSettingsOutdoorCallback
 *fill*         0x0000000000038dac        0x4 
 .text.ARCOMMANDS_Decoder_SetJumpingSumoMediaStreamingVideoEnableCallback
                0x0000000000038db0       0x4c /home/heratom/Firefly-project/out/arsdk-native/build/libARCommands/obj/gen/Sources/ARCOMMANDS_Decoder.c.o
                0x0000000000038db0                ARCOMMANDS_Decoder_SetJumpingSumoMediaStreamingVideoEnableCallback
 *fill*         0x0000000000038dfc        0x4 
 .text.ARCOMMANDS_Decoder_SetJumpingSumoVideoSettingsAutorecordCallback
                0x0000000000038e00       0x4c /home/heratom/Firefly-project/out/arsdk-native/build/libARCommands/obj/gen/Sources/ARCOMMANDS_Decoder.c.o
                0x0000000000038e00                ARCOMMANDS_Decoder_SetJumpingSumoVideoSettingsAutorecordCallback
 *fill*         0x0000000000038e4c        0x4 
 .text.ARCOMMANDS_Decoder_SetJumpingSumoPilotingStatePostureChangedCallback
                0x0000000000038e50       0x4c /home/heratom/Firefly-project/out/arsdk-native/build/libARCommands/obj/gen/Sources/ARCOMMANDS_Decoder.c.o
                0x0000000000038e50                ARCOMMANDS_Decoder_SetJumpingSumoPilotingStatePostureChangedCallback
 *fill*         0x0000000000038e9c        0x4 
 .text.ARCOMMANDS_Decoder_SetJumpingSumoPilotingStateAlertStateChangedCallback
                0x0000000000038ea0       0x4c /home/heratom/Firefly-project/out/arsdk-native/build/libARCommands/obj/gen/Sources/ARCOMMANDS_Decoder.c.o
                0x0000000000038ea0                ARCOMMANDS_Decoder_SetJumpingSumoPilotingStateAlertStateChangedCallback
 *fill*         0x0000000000038eec        0x4 
 .text.ARCOMMANDS_Decoder_SetJumpingSumoPilotingStateSpeedChangedCallback
                0x0000000000038ef0       0x4c /home/heratom/Firefly-project/out/arsdk-native/build/libARCommands/obj/gen/Sources/ARCOMMANDS_Decoder.c.o
                0x0000000000038ef0                ARCOMMANDS_Decoder_SetJumpingSumoPilotingStateSpeedChangedCallback
 *fill*         0x0000000000038f3c        0x4 
 .text.ARCOMMANDS_Decoder_SetJumpingSumoAnimationsStateJumpLoadChangedCallback
                0x0000000000038f40       0x4c /home/heratom/Firefly-project/out/arsdk-native/build/libARCommands/obj/gen/Sources/ARCOMMANDS_Decoder.c.o
                0x0000000000038f40                ARCOMMANDS_Decoder_SetJumpingSumoAnimationsStateJumpLoadChangedCallback
 *fill*         0x0000000000038f8c        0x4 
 .text.ARCOMMANDS_Decoder_SetJumpingSumoAnimationsStateJumpTypeChangedCallback
                0x0000000000038f90       0x4c /home/heratom/Firefly-project/out/arsdk-native/build/libARCommands/obj/gen/Sources/ARCOMMANDS_Decoder.c.o
                0x0000000000038f90                ARCOMMANDS_Decoder_SetJumpingSumoAnimationsStateJumpTypeChangedCallback
 *fill*         0x0000000000038fdc        0x4 
 .text.ARCOMMANDS_Decoder_SetJumpingSumoAnimationsStateJumpMotorProblemChangedCallback
                0x0000000000038fe0       0x4c /home/heratom/Firefly-project/out/arsdk-native/build/libARCommands/obj/gen/Sources/ARCOMMANDS_Decoder.c.o
                0x0000000000038fe0                ARCOMMANDS_Decoder_SetJumpingSumoAnimationsStateJumpMotorProblemChangedCallback
 *fill*         0x000000000003902c        0x4 
 .text.ARCOMMANDS_Decoder_SetJumpingSumoSettingsStateProductGPSVersionChangedCallback
                0x0000000000039030       0x4c /home/heratom/Firefly-project/out/arsdk-native/build/libARCommands/obj/gen/Sources/ARCOMMANDS_Decoder.c.o
                0x0000000000039030                ARCOMMANDS_Decoder_SetJumpingSumoSettingsStateProductGPSVersionChangedCallback
 *fill*         0x000000000003907c        0x4 
 .text.ARCOMMANDS_Decoder_SetJumpingSumoMediaRecordStatePictureStateChangedCallback
                0x0000000000039080       0x4c /home/heratom/Firefly-project/out/arsdk-native/build/libARCommands/obj/gen/Sources/ARCOMMANDS_Decoder.c.o
                0x0000000000039080                ARCOMMANDS_Decoder_SetJumpingSumoMediaRecordStatePictureStateChangedCallback
 *fill*         0x00000000000390cc        0x4 
 .text.ARCOMMANDS_Decoder_SetJumpingSumoMediaRecordStateVideoStateChangedCallback
                0x00000000000390d0       0x4c /home/heratom/Firefly-project/out/arsdk-native/build/libARCommands/obj/gen/Sources/ARCOMMANDS_Decoder.c.o
                0x00000000000390d0                ARCOMMANDS_Decoder_SetJumpingSumoMediaRecordStateVideoStateChangedCallback
 *fill*         0x000000000003911c        0x4 
 .text.ARCOMMANDS_Decoder_SetJumpingSumoMediaRecordStatePictureStateChangedV2Callback
                0x0000000000039120       0x4c /home/heratom/Firefly-project/out/arsdk-native/build/libARCommands/obj/gen/Sources/ARCOMMANDS_Decoder.c.o
                0x0000000000039120                ARCOMMANDS_Decoder_SetJumpingSumoMediaRecordStatePictureStateChangedV2Callback
 *fill*         0x000000000003916c        0x4 
 .text.ARCOMMANDS_Decoder_SetJumpingSumoMediaRecordStateVideoStateChangedV2Callback
                0x0000000000039170       0x4c /home/heratom/Firefly-project/out/arsdk-native/build/libARCommands/obj/gen/Sources/ARCOMMANDS_Decoder.c.o
                0x0000000000039170                ARCOMMANDS_Decoder_SetJumpingSumoMediaRecordStateVideoStateChangedV2Callback
 *fill*         0x00000000000391bc        0x4 
 .text.ARCOMMANDS_Decoder_SetJumpingSumoMediaRecordEventPictureEventChangedCallback
                0x00000000000391c0       0x4c /home/heratom/Firefly-project/out/arsdk-native/build/libARCommands/obj/gen/Sources/ARCOMMANDS_Decoder.c.o
                0x00000000000391c0                ARCOMMANDS_Decoder_SetJumpingSumoMediaRecordEventPictureEventChangedCallback
 *fill*         0x000000000003920c        0x4 
 .text.ARCOMMANDS_Decoder_SetJumpingSumoMediaRecordEventVideoEventChangedCallback
                0x0000000000039210       0x4c /home/heratom/Firefly-project/out/arsdk-native/build/libARCommands/obj/gen/Sources/ARCOMMANDS_Decoder.c.o
                0x0000000000039210                ARCOMMANDS_Decoder_SetJumpingSumoMediaRecordEventVideoEventChangedCallback
 *fill*         0x000000000003925c        0x4 
 .text.ARCOMMANDS_Decoder_SetJumpingSumoNetworkSettingsStateWifiSelectionChangedCallback
                0x0000000000039260       0x4c /home/heratom/Firefly-project/out/arsdk-native/build/libARCommands/obj/gen/Sources/ARCOMMANDS_Decoder.c.o
                0x0000000000039260                ARCOMMANDS_Decoder_SetJumpingSumoNetworkSettingsStateWifiSelectionChangedCallback
 *fill*         0x00000000000392ac        0x4 
 .text.ARCOMMANDS_Decoder_SetJumpingSumoNetworkStateWifiScanListChangedCallback
                0x00000000000392b0       0x4c /home/heratom/Firefly-project/out/arsdk-native/build/libARCommands/obj/gen/Sources/ARCOMMANDS_Decoder.c.o
                0x00000000000392b0                ARCOMMANDS_Decoder_SetJumpingSumoNetworkStateWifiScanListChangedCallback
 *fill*         0x00000000000392fc        0x4 
 .text.ARCOMMANDS_Decoder_SetJumpingSumoNetworkStateAllWifiScanChangedCallback
                0x0000000000039300       0x4c /home/heratom/Firefly-project/out/arsdk-native/build/libARCommands/obj/gen/Sources/ARCOMMANDS_Decoder.c.o
                0x0000000000039300                ARCOMMANDS_Decoder_SetJumpingSumoNetworkStateAllWifiScanChangedCallback
 *fill*         0x000000000003934c        0x4 
 .text.ARCOMMANDS_Decoder_SetJumpingSumoNetworkStateWifiAuthChannelListChangedCallback
                0x0000000000039350       0x4c /home/heratom/Firefly-project/out/arsdk-native/build/libARCommands/obj/gen/Sources/ARCOMMANDS_Decoder.c.o
                0x0000000000039350                ARCOMMANDS_Decoder_SetJumpingSumoNetworkStateWifiAuthChannelListChangedCallback
 *fill*         0x000000000003939c        0x4 
 .text.ARCOMMANDS_Decoder_SetJumpingSumoNetworkStateAllWifiAuthChannelChangedCallback
                0x00000000000393a0       0x4c /home/heratom/Firefly-project/out/arsdk-native/build/libARCommands/obj/gen/Sources/ARCOMMANDS_Decoder.c.o
                0x00000000000393a0                ARCOMMANDS_Decoder_SetJumpingSumoNetworkStateAllWifiAuthChannelChangedCallback
 *fill*         0x00000000000393ec        0x4 
 .text.ARCOMMANDS_Decoder_SetJumpingSumoNetworkStateLinkQualityChangedCallback
                0x00000000000393f0       0x4c /home/heratom/Firefly-project/out/arsdk-native/build/libARCommands/obj/gen/Sources/ARCOMMANDS_Decoder.c.o
                0x00000000000393f0                ARCOMMANDS_Decoder_SetJumpingSumoNetworkStateLinkQualityChangedCallback
 *fill*         0x000000000003943c        0x4 
 .text.ARCOMMANDS_Decoder_SetJumpingSumoAudioSettingsStateMasterVolumeChangedCallback
                0x0000000000039440       0x4c /home/heratom/Firefly-project/out/arsdk-native/build/libARCommands/obj/gen/Sources/ARCOMMANDS_Decoder.c.o
                0x0000000000039440                ARCOMMANDS_Decoder_SetJumpingSumoAudioSettingsStateMasterVolumeChangedCallback
 *fill*         0x000000000003948c        0x4 
 .text.ARCOMMANDS_Decoder_SetJumpingSumoAudioSettingsStateThemeChangedCallback
                0x0000000000039490       0x4c /home/heratom/Firefly-project/out/arsdk-native/build/libARCommands/obj/gen/Sources/ARCOMMANDS_Decoder.c.o
                0x0000000000039490                ARCOMMANDS_Decoder_SetJumpingSumoAudioSettingsStateThemeChangedCallback
 *fill*         0x00000000000394dc        0x4 
 .text.ARCOMMANDS_Decoder_SetJumpingSumoRoadPlanStateScriptMetadataListChangedCallback
                0x00000000000394e0       0x4c /home/heratom/Firefly-project/out/arsdk-native/build/libARCommands/obj/gen/Sources/ARCOMMANDS_Decoder.c.o
                0x00000000000394e0                ARCOMMANDS_Decoder_SetJumpingSumoRoadPlanStateScriptMetadataListChangedCallback
 *fill*         0x000000000003952c        0x4 
 .text.ARCOMMANDS_Decoder_SetJumpingSumoRoadPlanStateAllScriptsMetadataChangedCallback
                0x0000000000039530       0x4c /home/heratom/Firefly-project/out/arsdk-native/build/libARCommands/obj/gen/Sources/ARCOMMANDS_Decoder.c.o
                0x0000000000039530                ARCOMMANDS_Decoder_SetJumpingSumoRoadPlanStateAllScriptsMetadataChangedCallback
 *fill*         0x000000000003957c        0x4 
 .text.ARCOMMANDS_Decoder_SetJumpingSumoRoadPlanStateScriptUploadChangedCallback
                0x0000000000039580       0x4c /home/heratom/Firefly-project/out/arsdk-native/build/libARCommands/obj/gen/Sources/ARCOMMANDS_Decoder.c.o
                0x0000000000039580                ARCOMMANDS_Decoder_SetJumpingSumoRoadPlanStateScriptUploadChangedCallback
 *fill*         0x00000000000395cc        0x4 
 .text.ARCOMMANDS_Decoder_SetJumpingSumoRoadPlanStateScriptDeleteChangedCallback
                0x00000000000395d0       0x4c /home/heratom/Firefly-project/out/arsdk-native/build/libARCommands/obj/gen/Sources/ARCOMMANDS_Decoder.c.o
                0x00000000000395d0                ARCOMMANDS_Decoder_SetJumpingSumoRoadPlanStateScriptDeleteChangedCallback
 *fill*         0x000000000003961c        0x4 
 .text.ARCOMMANDS_Decoder_SetJumpingSumoRoadPlanStatePlayScriptChangedCallback
                0x0000000000039620       0x4c /home/heratom/Firefly-project/out/arsdk-native/build/libARCommands/obj/gen/Sources/ARCOMMANDS_Decoder.c.o
                0x0000000000039620                ARCOMMANDS_Decoder_SetJumpingSumoRoadPlanStatePlayScriptChangedCallback
 *fill*         0x000000000003966c        0x4 
 .text.ARCOMMANDS_Decoder_SetJumpingSumoSpeedSettingsStateOutdoorChangedCallback
                0x0000000000039670       0x4c /home/heratom/Firefly-project/out/arsdk-native/build/libARCommands/obj/gen/Sources/ARCOMMANDS_Decoder.c.o
                0x0000000000039670                ARCOMMANDS_Decoder_SetJumpingSumoSpeedSettingsStateOutdoorChangedCallback
 *fill*         0x00000000000396bc        0x4 
 .text.ARCOMMANDS_Decoder_SetJumpingSumoMediaStreamingStateVideoEnableChangedCallback
                0x00000000000396c0       0x4c /home/heratom/Firefly-project/out/arsdk-native/build/libARCommands/obj/gen/Sources/ARCOMMANDS_Decoder.c.o
                0x00000000000396c0                ARCOMMANDS_Decoder_SetJumpingSumoMediaStreamingStateVideoEnableChangedCallback
 *fill*         0x000000000003970c        0x4 
 .text.ARCOMMANDS_Decoder_SetJumpingSumoVideoSettingsStateAutorecordChangedCallback
                0x0000000000039710       0x4c /home/heratom/Firefly-project/out/arsdk-native/build/libARCommands/obj/gen/Sources/ARCOMMANDS_Decoder.c.o
                0x0000000000039710                ARCOMMANDS_Decoder_SetJumpingSumoVideoSettingsStateAutorecordChangedCallback
 *fill*         0x000000000003975c        0x4 
 .text.ARCOMMANDS_Decoder_SetMiniDronePilotingFlatTrimCallback
                0x0000000000039760       0x4c /home/heratom/Firefly-project/out/arsdk-native/build/libARCommands/obj/gen/Sources/ARCOMMANDS_Decoder.c.o
                0x0000000000039760                ARCOMMANDS_Decoder_SetMiniDronePilotingFlatTrimCallback
 *fill*         0x00000000000397ac        0x4 
 .text.ARCOMMANDS_Decoder_SetMiniDronePilotingTakeOffCallback
                0x00000000000397b0       0x4c /home/heratom/Firefly-project/out/arsdk-native/build/libARCommands/obj/gen/Sources/ARCOMMANDS_Decoder.c.o
                0x00000000000397b0                ARCOMMANDS_Decoder_SetMiniDronePilotingTakeOffCallback
 *fill*         0x00000000000397fc        0x4 
 .text.ARCOMMANDS_Decoder_SetMiniDronePilotingPCMDCallback
                0x0000000000039800       0x4c /home/heratom/Firefly-project/out/arsdk-native/build/libARCommands/obj/gen/Sources/ARCOMMANDS_Decoder.c.o
                0x0000000000039800                ARCOMMANDS_Decoder_SetMiniDronePilotingPCMDCallback
 *fill*         0x000000000003984c        0x4 
 .text.ARCOMMANDS_Decoder_SetMiniDronePilotingLandingCallback
                0x0000000000039850       0x4c /home/heratom/Firefly-project/out/arsdk-native/build/libARCommands/obj/gen/Sources/ARCOMMANDS_Decoder.c.o
                0x0000000000039850                ARCOMMANDS_Decoder_SetMiniDronePilotingLandingCallback
 *fill*         0x000000000003989c        0x4 
 .text.ARCOMMANDS_Decoder_SetMiniDronePilotingEmergencyCallback
                0x00000000000398a0       0x4c /home/heratom/Firefly-project/out/arsdk-native/build/libARCommands/obj/gen/Sources/ARCOMMANDS_Decoder.c.o
                0x00000000000398a0                ARCOMMANDS_Decoder_SetMiniDronePilotingEmergencyCallback
 *fill*         0x00000000000398ec        0x4 
 .text.ARCOMMANDS_Decoder_SetMiniDronePilotingAutoTakeOffModeCallback
                0x00000000000398f0       0x4c /home/heratom/Firefly-project/out/arsdk-native/build/libARCommands/obj/gen/Sources/ARCOMMANDS_Decoder.c.o
                0x00000000000398f0                ARCOMMANDS_Decoder_SetMiniDronePilotingAutoTakeOffModeCallback
 *fill*         0x000000000003993c        0x4 
 .text.ARCOMMANDS_Decoder_SetMiniDroneAnimationsFlipCallback
                0x0000000000039940       0x4c /home/heratom/Firefly-project/out/arsdk-native/build/libARCommands/obj/gen/Sources/ARCOMMANDS_Decoder.c.o
                0x0000000000039940                ARCOMMANDS_Decoder_SetMiniDroneAnimationsFlipCallback
 *fill*         0x000000000003998c        0x4 
 .text.ARCOMMANDS_Decoder_SetMiniDroneAnimationsCapCallback
                0x0000000000039990       0x4c /home/heratom/Firefly-project/out/arsdk-native/build/libARCommands/obj/gen/Sources/ARCOMMANDS_Decoder.c.o
                0x0000000000039990                ARCOMMANDS_Decoder_SetMiniDroneAnimationsCapCallback
 *fill*         0x00000000000399dc        0x4 
 .text.ARCOMMANDS_Decoder_SetMiniDroneMediaRecordPictureCallback
                0x00000000000399e0       0x4c /home/heratom/Firefly-project/out/arsdk-native/build/libARCommands/obj/gen/Sources/ARCOMMANDS_Decoder.c.o
                0x00000000000399e0                ARCOMMANDS_Decoder_SetMiniDroneMediaRecordPictureCallback
 *fill*         0x0000000000039a2c        0x4 
 .text.ARCOMMANDS_Decoder_SetMiniDroneMediaRecordPictureV2Callback
                0x0000000000039a30       0x4c /home/heratom/Firefly-project/out/arsdk-native/build/libARCommands/obj/gen/Sources/ARCOMMANDS_Decoder.c.o
                0x0000000000039a30                ARCOMMANDS_Decoder_SetMiniDroneMediaRecordPictureV2Callback
 *fill*         0x0000000000039a7c        0x4 
 .text.ARCOMMANDS_Decoder_SetMiniDronePilotingSettingsMaxAltitudeCallback
                0x0000000000039a80       0x4c /home/heratom/Firefly-project/out/arsdk-native/build/libARCommands/obj/gen/Sources/ARCOMMANDS_Decoder.c.o
                0x0000000000039a80                ARCOMMANDS_Decoder_SetMiniDronePilotingSettingsMaxAltitudeCallback
 *fill*         0x0000000000039acc        0x4 
 .text.ARCOMMANDS_Decoder_SetMiniDronePilotingSettingsMaxTiltCallback
                0x0000000000039ad0       0x4c /home/heratom/Firefly-project/out/arsdk-native/build/libARCommands/obj/gen/Sources/ARCOMMANDS_Decoder.c.o
                0x0000000000039ad0                ARCOMMANDS_Decoder_SetMiniDronePilotingSettingsMaxTiltCallback
 *fill*         0x0000000000039b1c        0x4 
 .text.ARCOMMANDS_Decoder_SetMiniDroneSpeedSettingsMaxVerticalSpeedCallback
                0x0000000000039b20       0x4c /home/heratom/Firefly-project/out/arsdk-native/build/libARCommands/obj/gen/Sources/ARCOMMANDS_Decoder.c.o
                0x0000000000039b20                ARCOMMANDS_Decoder_SetMiniDroneSpeedSettingsMaxVerticalSpeedCallback
 *fill*         0x0000000000039b6c        0x4 
 .text.ARCOMMANDS_Decoder_SetMiniDroneSpeedSettingsMaxRotationSpeedCallback
                0x0000000000039b70       0x4c /home/heratom/Firefly-project/out/arsdk-native/build/libARCommands/obj/gen/Sources/ARCOMMANDS_Decoder.c.o
                0x0000000000039b70                ARCOMMANDS_Decoder_SetMiniDroneSpeedSettingsMaxRotationSpeedCallback
 *fill*         0x0000000000039bbc        0x4 
 .text.ARCOMMANDS_Decoder_SetMiniDroneSpeedSettingsWheelsCallback
                0x0000000000039bc0       0x4c /home/heratom/Firefly-project/out/arsdk-native/build/libARCommands/obj/gen/Sources/ARCOMMANDS_Decoder.c.o
                0x0000000000039bc0                ARCOMMANDS_Decoder_SetMiniDroneSpeedSettingsWheelsCallback
 *fill*         0x0000000000039c0c        0x4 
 .text.ARCOMMANDS_Decoder_SetMiniDroneSpeedSettingsMaxHorizontalSpeedCallback
                0x0000000000039c10       0x4c /home/heratom/Firefly-project/out/arsdk-native/build/libARCommands/obj/gen/Sources/ARCOMMANDS_Decoder.c.o
                0x0000000000039c10                ARCOMMANDS_Decoder_SetMiniDroneSpeedSettingsMaxHorizontalSpeedCallback
 *fill*         0x0000000000039c5c        0x4 
 .text.ARCOMMANDS_Decoder_SetMiniDroneSettingsCutOutModeCallback
                0x0000000000039c60       0x4c /home/heratom/Firefly-project/out/arsdk-native/build/libARCommands/obj/gen/Sources/ARCOMMANDS_Decoder.c.o
                0x0000000000039c60                ARCOMMANDS_Decoder_SetMiniDroneSettingsCutOutModeCallback
 *fill*         0x0000000000039cac        0x4 
 .text.ARCOMMANDS_Decoder_SetMiniDroneGPSControllerLatitudeForRunCallback
                0x0000000000039cb0       0x4c /home/heratom/Firefly-project/out/arsdk-native/build/libARCommands/obj/gen/Sources/ARCOMMANDS_Decoder.c.o
                0x0000000000039cb0                ARCOMMANDS_Decoder_SetMiniDroneGPSControllerLatitudeForRunCallback
 *fill*         0x0000000000039cfc        0x4 
 .text.ARCOMMANDS_Decoder_SetMiniDroneGPSControllerLongitudeForRunCallback
                0x0000000000039d00       0x4c /home/heratom/Firefly-project/out/arsdk-native/build/libARCommands/obj/gen/Sources/ARCOMMANDS_Decoder.c.o
                0x0000000000039d00                ARCOMMANDS_Decoder_SetMiniDroneGPSControllerLongitudeForRunCallback
 *fill*         0x0000000000039d4c        0x4 
 .text.ARCOMMANDS_Decoder_SetMiniDroneConfigurationControllerTypeCallback
                0x0000000000039d50       0x4c /home/heratom/Firefly-project/out/arsdk-native/build/libARCommands/obj/gen/Sources/ARCOMMANDS_Decoder.c.o
                0x0000000000039d50                ARCOMMANDS_Decoder_SetMiniDroneConfigurationControllerTypeCallback
 *fill*         0x0000000000039d9c        0x4 
 .text.ARCOMMANDS_Decoder_SetMiniDroneConfigurationControllerNameCallback
                0x0000000000039da0       0x4c /home/heratom/Firefly-project/out/arsdk-native/build/libARCommands/obj/gen/Sources/ARCOMMANDS_Decoder.c.o
                0x0000000000039da0                ARCOMMANDS_Decoder_SetMiniDroneConfigurationControllerNameCallback
 *fill*         0x0000000000039dec        0x4 
 .text.ARCOMMANDS_Decoder_SetMiniDronePilotingStateFlatTrimChangedCallback
                0x0000000000039df0       0x4c /home/heratom/Firefly-project/out/arsdk-native/build/libARCommands/obj/gen/Sources/ARCOMMANDS_Decoder.c.o
                0x0000000000039df0                ARCOMMANDS_Decoder_SetMiniDronePilotingStateFlatTrimChangedCallback
 *fill*         0x0000000000039e3c        0x4 
 .text.ARCOMMANDS_Decoder_SetMiniDronePilotingStateFlyingStateChangedCallback
                0x0000000000039e40       0x4c /home/heratom/Firefly-project/out/arsdk-native/build/libARCommands/obj/gen/Sources/ARCOMMANDS_Decoder.c.o
                0x0000000000039e40                ARCOMMANDS_Decoder_SetMiniDronePilotingStateFlyingStateChangedCallback
 *fill*         0x0000000000039e8c        0x4 
 .text.ARCOMMANDS_Decoder_SetMiniDronePilotingStateAlertStateChangedCallback
                0x0000000000039e90       0x4c /home/heratom/Firefly-project/out/arsdk-native/build/libARCommands/obj/gen/Sources/ARCOMMANDS_Decoder.c.o
                0x0000000000039e90                ARCOMMANDS_Decoder_SetMiniDronePilotingStateAlertStateChangedCallback
 *fill*         0x0000000000039edc        0x4 
 .text.ARCOMMANDS_Decoder_SetMiniDronePilotingStateAutoTakeOffModeChangedCallback
                0x0000000000039ee0       0x4c /home/heratom/Firefly-project/out/arsdk-native/build/libARCommands/obj/gen/Sources/ARCOMMANDS_Decoder.c.o
                0x0000000000039ee0                ARCOMMANDS_Decoder_SetMiniDronePilotingStateAutoTakeOffModeChangedCallback
 *fill*         0x0000000000039f2c        0x4 
 .text.ARCOMMANDS_Decoder_SetMiniDroneMediaRecordStatePictureStateChangedCallback
                0x0000000000039f30       0x4c /home/heratom/Firefly-project/out/arsdk-native/build/libARCommands/obj/gen/Sources/ARCOMMANDS_Decoder.c.o
                0x0000000000039f30                ARCOMMANDS_Decoder_SetMiniDroneMediaRecordStatePictureStateChangedCallback
 *fill*         0x0000000000039f7c        0x4 
 .text.ARCOMMANDS_Decoder_SetMiniDroneMediaRecordStatePictureStateChangedV2Callback
                0x0000000000039f80       0x4c /home/heratom/Firefly-project/out/arsdk-native/build/libARCommands/obj/gen/Sources/ARCOMMANDS_Decoder.c.o
                0x0000000000039f80                ARCOMMANDS_Decoder_SetMiniDroneMediaRecordStatePictureStateChangedV2Callback
 *fill*         0x0000000000039fcc        0x4 
 .text.ARCOMMANDS_Decoder_SetMiniDroneMediaRecordEventPictureEventChangedCallback
                0x0000000000039fd0       0x4c /home/heratom/Firefly-project/out/arsdk-native/build/libARCommands/obj/gen/Sources/ARCOMMANDS_Decoder.c.o
                0x0000000000039fd0                ARCOMMANDS_Decoder_SetMiniDroneMediaRecordEventPictureEventChangedCallback
 *fill*         0x000000000003a01c        0x4 
 .text.ARCOMMANDS_Decoder_SetMiniDronePilotingSettingsStateMaxAltitudeChangedCallback
                0x000000000003a020       0x4c /home/heratom/Firefly-project/out/arsdk-native/build/libARCommands/obj/gen/Sources/ARCOMMANDS_Decoder.c.o
                0x000000000003a020                ARCOMMANDS_Decoder_SetMiniDronePilotingSettingsStateMaxAltitudeChangedCallback
 *fill*         0x000000000003a06c        0x4 
 .text.ARCOMMANDS_Decoder_SetMiniDronePilotingSettingsStateMaxTiltChangedCallback
                0x000000000003a070       0x4c /home/heratom/Firefly-project/out/arsdk-native/build/libARCommands/obj/gen/Sources/ARCOMMANDS_Decoder.c.o
                0x000000000003a070                ARCOMMANDS_Decoder_SetMiniDronePilotingSettingsStateMaxTiltChangedCallback
 *fill*         0x000000000003a0bc        0x4 
 .text.ARCOMMANDS_Decoder_SetMiniDroneSpeedSettingsStateMaxVerticalSpeedChangedCallback
                0x000000000003a0c0       0x4c /home/heratom/Firefly-project/out/arsdk-native/build/libARCommands/obj/gen/Sources/ARCOMMANDS_Decoder.c.o
                0x000000000003a0c0                ARCOMMANDS_Decoder_SetMiniDroneSpeedSettingsStateMaxVerticalSpeedChangedCallback
 *fill*         0x000000000003a10c        0x4 
 .text.ARCOMMANDS_Decoder_SetMiniDroneSpeedSettingsStateMaxRotationSpeedChangedCallback
                0x000000000003a110       0x4c /home/heratom/Firefly-project/out/arsdk-native/build/libARCommands/obj/gen/Sources/ARCOMMANDS_Decoder.c.o
                0x000000000003a110                ARCOMMANDS_Decoder_SetMiniDroneSpeedSettingsStateMaxRotationSpeedChangedCallback
 *fill*         0x000000000003a15c        0x4 
 .text.ARCOMMANDS_Decoder_SetMiniDroneSpeedSettingsStateWheelsChangedCallback
                0x000000000003a160       0x4c /home/heratom/Firefly-project/out/arsdk-native/build/libARCommands/obj/gen/Sources/ARCOMMANDS_Decoder.c.o
                0x000000000003a160                ARCOMMANDS_Decoder_SetMiniDroneSpeedSettingsStateWheelsChangedCallback
 *fill*         0x000000000003a1ac        0x4 
 .text.ARCOMMANDS_Decoder_SetMiniDroneSpeedSettingsStateMaxHorizontalSpeedChangedCallback
                0x000000000003a1b0       0x4c /home/heratom/Firefly-project/out/arsdk-native/build/libARCommands/obj/gen/Sources/ARCOMMANDS_Decoder.c.o
                0x000000000003a1b0                ARCOMMANDS_Decoder_SetMiniDroneSpeedSettingsStateMaxHorizontalSpeedChangedCallback
 *fill*         0x000000000003a1fc        0x4 
 .text.ARCOMMANDS_Decoder_SetMiniDroneSettingsStateProductMotorsVersionChangedCallback
                0x000000000003a200       0x4c /home/heratom/Firefly-project/out/arsdk-native/build/libARCommands/obj/gen/Sources/ARCOMMANDS_Decoder.c.o
                0x000000000003a200                ARCOMMANDS_Decoder_SetMiniDroneSettingsStateProductMotorsVersionChangedCallback
 *fill*         0x000000000003a24c        0x4 
 .text.ARCOMMANDS_Decoder_SetMiniDroneSettingsStateProductInertialVersionChangedCallback
                0x000000000003a250       0x4c /home/heratom/Firefly-project/out/arsdk-native/build/libARCommands/obj/gen/Sources/ARCOMMANDS_Decoder.c.o
                0x000000000003a250                ARCOMMANDS_Decoder_SetMiniDroneSettingsStateProductInertialVersionChangedCallback
 *fill*         0x000000000003a29c        0x4 
 .text.ARCOMMANDS_Decoder_SetMiniDroneSettingsStateCutOutModeChangedCallback
                0x000000000003a2a0       0x4c /home/heratom/Firefly-project/out/arsdk-native/build/libARCommands/obj/gen/Sources/ARCOMMANDS_Decoder.c.o
                0x000000000003a2a0                ARCOMMANDS_Decoder_SetMiniDroneSettingsStateCutOutModeChangedCallback
 *fill*         0x000000000003a2ec        0x4 
 .text.ARCOMMANDS_Decoder_SetMiniDroneFloodControlStateFloodControlChangedCallback
                0x000000000003a2f0       0x4c /home/heratom/Firefly-project/out/arsdk-native/build/libARCommands/obj/gen/Sources/ARCOMMANDS_Decoder.c.o
                0x000000000003a2f0                ARCOMMANDS_Decoder_SetMiniDroneFloodControlStateFloodControlChangedCallback
 *fill*         0x000000000003a33c        0x4 
 .text.ARCOMMANDS_Decoder_SetSkyControllerWifiRequestWifiListCallback
                0x000000000003a340       0x4c /home/heratom/Firefly-project/out/arsdk-native/build/libARCommands/obj/gen/Sources/ARCOMMANDS_Decoder.c.o
                0x000000000003a340                ARCOMMANDS_Decoder_SetSkyControllerWifiRequestWifiListCallback
 *fill*         0x000000000003a38c        0x4 
 .text.ARCOMMANDS_Decoder_SetSkyControllerWifiRequestCurrentWifiCallback
                0x000000000003a390       0x4c /home/heratom/Firefly-project/out/arsdk-native/build/libARCommands/obj/gen/Sources/ARCOMMANDS_Decoder.c.o
                0x000000000003a390                ARCOMMANDS_Decoder_SetSkyControllerWifiRequestCurrentWifiCallback
 *fill*         0x000000000003a3dc        0x4 
 .text.ARCOMMANDS_Decoder_SetSkyControllerWifiConnectToWifiCallback
                0x000000000003a3e0       0x4c /home/heratom/Firefly-project/out/arsdk-native/build/libARCommands/obj/gen/Sources/ARCOMMANDS_Decoder.c.o
                0x000000000003a3e0                ARCOMMANDS_Decoder_SetSkyControllerWifiConnectToWifiCallback
 *fill*         0x000000000003a42c        0x4 
 .text.ARCOMMANDS_Decoder_SetSkyControllerWifiForgetWifiCallback
                0x000000000003a430       0x4c /home/heratom/Firefly-project/out/arsdk-native/build/libARCommands/obj/gen/Sources/ARCOMMANDS_Decoder.c.o
                0x000000000003a430                ARCOMMANDS_Decoder_SetSkyControllerWifiForgetWifiCallback
 *fill*         0x000000000003a47c        0x4 
 .text.ARCOMMANDS_Decoder_SetSkyControllerWifiWifiAuthChannelCallback
                0x000000000003a480       0x4c /home/heratom/Firefly-project/out/arsdk-native/build/libARCommands/obj/gen/Sources/ARCOMMANDS_Decoder.c.o
                0x000000000003a480                ARCOMMANDS_Decoder_SetSkyControllerWifiWifiAuthChannelCallback
 *fill*         0x000000000003a4cc        0x4 
 .text.ARCOMMANDS_Decoder_SetSkyControllerDeviceRequestDeviceListCallback
                0x000000000003a4d0       0x4c /home/heratom/Firefly-project/out/arsdk-native/build/libARCommands/obj/gen/Sources/ARCOMMANDS_Decoder.c.o
                0x000000000003a4d0                ARCOMMANDS_Decoder_SetSkyControllerDeviceRequestDeviceListCallback
 *fill*         0x000000000003a51c        0x4 
 .text.ARCOMMANDS_Decoder_SetSkyControllerDeviceRequestCurrentDeviceCallback
                0x000000000003a520       0x4c /home/heratom/Firefly-project/out/arsdk-native/build/libARCommands/obj/gen/Sources/ARCOMMANDS_Decoder.c.o
                0x000000000003a520                ARCOMMANDS_Decoder_SetSkyControllerDeviceRequestCurrentDeviceCallback
 *fill*         0x000000000003a56c        0x4 
 .text.ARCOMMANDS_Decoder_SetSkyControllerDeviceConnectToDeviceCallback
                0x000000000003a570       0x4c /home/heratom/Firefly-project/out/arsdk-native/build/libARCommands/obj/gen/Sources/ARCOMMANDS_Decoder.c.o
                0x000000000003a570                ARCOMMANDS_Decoder_SetSkyControllerDeviceConnectToDeviceCallback
 *fill*         0x000000000003a5bc        0x4 
 .text.ARCOMMANDS_Decoder_SetSkyControllerSettingsAllSettingsCallback
                0x000000000003a5c0       0x4c /home/heratom/Firefly-project/out/arsdk-native/build/libARCommands/obj/gen/Sources/ARCOMMANDS_Decoder.c.o
                0x000000000003a5c0                ARCOMMANDS_Decoder_SetSkyControllerSettingsAllSettingsCallback
 *fill*         0x000000000003a60c        0x4 
 .text.ARCOMMANDS_Decoder_SetSkyControllerSettingsResetCallback
                0x000000000003a610       0x4c /home/heratom/Firefly-project/out/arsdk-native/build/libARCommands/obj/gen/Sources/ARCOMMANDS_Decoder.c.o
                0x000000000003a610                ARCOMMANDS_Decoder_SetSkyControllerSettingsResetCallback
 *fill*         0x000000000003a65c        0x4 
 .text.ARCOMMANDS_Decoder_SetSkyControllerCommonAllStatesCallback
                0x000000000003a660       0x4c /home/heratom/Firefly-project/out/arsdk-native/build/libARCommands/obj/gen/Sources/ARCOMMANDS_Decoder.c.o
                0x000000000003a660                ARCOMMANDS_Decoder_SetSkyControllerCommonAllStatesCallback
 *fill*         0x000000000003a6ac        0x4 
 .text.ARCOMMANDS_Decoder_SetSkyControllerAccessPointSettingsAccessPointSSIDCallback
                0x000000000003a6b0       0x4c /home/heratom/Firefly-project/out/arsdk-native/build/libARCommands/obj/gen/Sources/ARCOMMANDS_Decoder.c.o
                0x000000000003a6b0                ARCOMMANDS_Decoder_SetSkyControllerAccessPointSettingsAccessPointSSIDCallback
 *fill*         0x000000000003a6fc        0x4 
 .text.ARCOMMANDS_Decoder_SetSkyControllerAccessPointSettingsAccessPointChannelCallback
                0x000000000003a700       0x4c /home/heratom/Firefly-project/out/arsdk-native/build/libARCommands/obj/gen/Sources/ARCOMMANDS_Decoder.c.o
                0x000000000003a700                ARCOMMANDS_Decoder_SetSkyControllerAccessPointSettingsAccessPointChannelCallback
 *fill*         0x000000000003a74c        0x4 
 .text.ARCOMMANDS_Decoder_SetSkyControllerAccessPointSettingsWifiSelectionCallback
                0x000000000003a750       0x4c /home/heratom/Firefly-project/out/arsdk-native/build/libARCommands/obj/gen/Sources/ARCOMMANDS_Decoder.c.o
                0x000000000003a750                ARCOMMANDS_Decoder_SetSkyControllerAccessPointSettingsWifiSelectionCallback
 *fill*         0x000000000003a79c        0x4 
 .text.ARCOMMANDS_Decoder_SetSkyControllerCameraResetOrientationCallback
                0x000000000003a7a0       0x4c /home/heratom/Firefly-project/out/arsdk-native/build/libARCommands/obj/gen/Sources/ARCOMMANDS_Decoder.c.o
                0x000000000003a7a0                ARCOMMANDS_Decoder_SetSkyControllerCameraResetOrientationCallback
 *fill*         0x000000000003a7ec        0x4 
 .text.ARCOMMANDS_Decoder_SetSkyControllerGamepadInfosGetGamepadControlsCallback
                0x000000000003a7f0       0x4c /home/heratom/Firefly-project/out/arsdk-native/build/libARCommands/obj/gen/Sources/ARCOMMANDS_Decoder.c.o
                0x000000000003a7f0                ARCOMMANDS_Decoder_SetSkyControllerGamepadInfosGetGamepadControlsCallback
 *fill*         0x000000000003a83c        0x4 
 .text.ARCOMMANDS_Decoder_SetSkyControllerButtonMappingsGetCurrentButtonMappingsCallback
                0x000000000003a840       0x4c /home/heratom/Firefly-project/out/arsdk-native/build/libARCommands/obj/gen/Sources/ARCOMMANDS_Decoder.c.o
                0x000000000003a840                ARCOMMANDS_Decoder_SetSkyControllerButtonMappingsGetCurrentButtonMappingsCallback
 *fill*         0x000000000003a88c        0x4 
 .text.ARCOMMANDS_Decoder_SetSkyControllerButtonMappingsGetAvailableButtonMappingsCallback
                0x000000000003a890       0x4c /home/heratom/Firefly-project/out/arsdk-native/build/libARCommands/obj/gen/Sources/ARCOMMANDS_Decoder.c.o
                0x000000000003a890                ARCOMMANDS_Decoder_SetSkyControllerButtonMappingsGetAvailableButtonMappingsCallback
 *fill*         0x000000000003a8dc        0x4 
 .text.ARCOMMANDS_Decoder_SetSkyControllerButtonMappingsSetButtonMappingCallback
                0x000000000003a8e0       0x4c /home/heratom/Firefly-project/out/arsdk-native/build/libARCommands/obj/gen/Sources/ARCOMMANDS_Decoder.c.o
                0x000000000003a8e0                ARCOMMANDS_Decoder_SetSkyControllerButtonMappingsSetButtonMappingCallback
 *fill*         0x000000000003a92c        0x4 
 .text.ARCOMMANDS_Decoder_SetSkyControllerButtonMappingsDefaultButtonMappingCallback
                0x000000000003a930       0x4c /home/heratom/Firefly-project/out/arsdk-native/build/libARCommands/obj/gen/Sources/ARCOMMANDS_Decoder.c.o
                0x000000000003a930                ARCOMMANDS_Decoder_SetSkyControllerButtonMappingsDefaultButtonMappingCallback
 *fill*         0x000000000003a97c        0x4 
 .text.ARCOMMANDS_Decoder_SetSkyControllerAxisMappingsGetCurrentAxisMappingsCallback
                0x000000000003a980       0x4c /home/heratom/Firefly-project/out/arsdk-native/build/libARCommands/obj/gen/Sources/ARCOMMANDS_Decoder.c.o
                0x000000000003a980                ARCOMMANDS_Decoder_SetSkyControllerAxisMappingsGetCurrentAxisMappingsCallback
 *fill*         0x000000000003a9cc        0x4 
 .text.ARCOMMANDS_Decoder_SetSkyControllerAxisMappingsGetAvailableAxisMappingsCallback
                0x000000000003a9d0       0x4c /home/heratom/Firefly-project/out/arsdk-native/build/libARCommands/obj/gen/Sources/ARCOMMANDS_Decoder.c.o
                0x000000000003a9d0                ARCOMMANDS_Decoder_SetSkyControllerAxisMappingsGetAvailableAxisMappingsCallback
 *fill*         0x000000000003aa1c        0x4 
 .text.ARCOMMANDS_Decoder_SetSkyControllerAxisMappingsSetAxisMappingCallback
                0x000000000003aa20       0x4c /home/heratom/Firefly-project/out/arsdk-native/build/libARCommands/obj/gen/Sources/ARCOMMANDS_Decoder.c.o
                0x000000000003aa20                ARCOMMANDS_Decoder_SetSkyControllerAxisMappingsSetAxisMappingCallback
 *fill*         0x000000000003aa6c        0x4 
 .text.ARCOMMANDS_Decoder_SetSkyControllerAxisMappingsDefaultAxisMappingCallback
                0x000000000003aa70       0x4c /home/heratom/Firefly-project/out/arsdk-native/build/libARCommands/obj/gen/Sources/ARCOMMANDS_Decoder.c.o
                0x000000000003aa70                ARCOMMANDS_Decoder_SetSkyControllerAxisMappingsDefaultAxisMappingCallback
 *fill*         0x000000000003aabc        0x4 
 .text.ARCOMMANDS_Decoder_SetSkyControllerAxisFiltersGetCurrentAxisFiltersCallback
                0x000000000003aac0       0x4c /home/heratom/Firefly-project/out/arsdk-native/build/libARCommands/obj/gen/Sources/ARCOMMANDS_Decoder.c.o
                0x000000000003aac0                ARCOMMANDS_Decoder_SetSkyControllerAxisFiltersGetCurrentAxisFiltersCallback
 *fill*         0x000000000003ab0c        0x4 
 .text.ARCOMMANDS_Decoder_SetSkyControllerAxisFiltersGetPresetAxisFiltersCallback
                0x000000000003ab10       0x4c /home/heratom/Firefly-project/out/arsdk-native/build/libARCommands/obj/gen/Sources/ARCOMMANDS_Decoder.c.o
                0x000000000003ab10                ARCOMMANDS_Decoder_SetSkyControllerAxisFiltersGetPresetAxisFiltersCallback
 *fill*         0x000000000003ab5c        0x4 
 .text.ARCOMMANDS_Decoder_SetSkyControllerAxisFiltersSetAxisFilterCallback
                0x000000000003ab60       0x4c /home/heratom/Firefly-project/out/arsdk-native/build/libARCommands/obj/gen/Sources/ARCOMMANDS_Decoder.c.o
                0x000000000003ab60                ARCOMMANDS_Decoder_SetSkyControllerAxisFiltersSetAxisFilterCallback
 *fill*         0x000000000003abac        0x4 
 .text.ARCOMMANDS_Decoder_SetSkyControllerAxisFiltersDefaultAxisFiltersCallback
                0x000000000003abb0       0x4c /home/heratom/Firefly-project/out/arsdk-native/build/libARCommands/obj/gen/Sources/ARCOMMANDS_Decoder.c.o
                0x000000000003abb0                ARCOMMANDS_Decoder_SetSkyControllerAxisFiltersDefaultAxisFiltersCallback
 *fill*         0x000000000003abfc        0x4 
 .text.ARCOMMANDS_Decoder_SetSkyControllerCoPilotingSetPilotingSourceCallback
                0x000000000003ac00       0x4c /home/heratom/Firefly-project/out/arsdk-native/build/libARCommands/obj/gen/Sources/ARCOMMANDS_Decoder.c.o
                0x000000000003ac00                ARCOMMANDS_Decoder_SetSkyControllerCoPilotingSetPilotingSourceCallback
 *fill*         0x000000000003ac4c        0x4 
 .text.ARCOMMANDS_Decoder_SetSkyControllerCalibrationEnableMagnetoCalibrationQualityUpdatesCallback
                0x000000000003ac50       0x4c /home/heratom/Firefly-project/out/arsdk-native/build/libARCommands/obj/gen/Sources/ARCOMMANDS_Decoder.c.o
                0x000000000003ac50                ARCOMMANDS_Decoder_SetSkyControllerCalibrationEnableMagnetoCalibrationQualityUpdatesCallback
 *fill*         0x000000000003ac9c        0x4 
 .text.ARCOMMANDS_Decoder_SetSkyControllerWifiStateWifiListCallback
                0x000000000003aca0       0x4c /home/heratom/Firefly-project/out/arsdk-native/build/libARCommands/obj/gen/Sources/ARCOMMANDS_Decoder.c.o
                0x000000000003aca0                ARCOMMANDS_Decoder_SetSkyControllerWifiStateWifiListCallback
 *fill*         0x000000000003acec        0x4 
 .text.ARCOMMANDS_Decoder_SetSkyControllerWifiStateConnexionChangedCallback
                0x000000000003acf0       0x4c /home/heratom/Firefly-project/out/arsdk-native/build/libARCommands/obj/gen/Sources/ARCOMMANDS_Decoder.c.o
                0x000000000003acf0                ARCOMMANDS_Decoder_SetSkyControllerWifiStateConnexionChangedCallback
 *fill*         0x000000000003ad3c        0x4 
 .text.ARCOMMANDS_Decoder_SetSkyControllerWifiStateWifiAuthChannelListChangedCallback
                0x000000000003ad40       0x4c /home/heratom/Firefly-project/out/arsdk-native/build/libARCommands/obj/gen/Sources/ARCOMMANDS_Decoder.c.o
                0x000000000003ad40                ARCOMMANDS_Decoder_SetSkyControllerWifiStateWifiAuthChannelListChangedCallback
 *fill*         0x000000000003ad8c        0x4 
 .text.ARCOMMANDS_Decoder_SetSkyControllerWifiStateAllWifiAuthChannelChangedCallback
                0x000000000003ad90       0x4c /home/heratom/Firefly-project/out/arsdk-native/build/libARCommands/obj/gen/Sources/ARCOMMANDS_Decoder.c.o
                0x000000000003ad90                ARCOMMANDS_Decoder_SetSkyControllerWifiStateAllWifiAuthChannelChangedCallback
 *fill*         0x000000000003addc        0x4 
 .text.ARCOMMANDS_Decoder_SetSkyControllerWifiStateWifiSignalChangedCallback
                0x000000000003ade0       0x4c /home/heratom/Firefly-project/out/arsdk-native/build/libARCommands/obj/gen/Sources/ARCOMMANDS_Decoder.c.o
                0x000000000003ade0                ARCOMMANDS_Decoder_SetSkyControllerWifiStateWifiSignalChangedCallback
 *fill*         0x000000000003ae2c        0x4 
 .text.ARCOMMANDS_Decoder_SetSkyControllerDeviceStateDeviceListCallback
                0x000000000003ae30       0x4c /home/heratom/Firefly-project/out/arsdk-native/build/libARCommands/obj/gen/Sources/ARCOMMANDS_Decoder.c.o
                0x000000000003ae30                ARCOMMANDS_Decoder_SetSkyControllerDeviceStateDeviceListCallback
 *fill*         0x000000000003ae7c        0x4 
 .text.ARCOMMANDS_Decoder_SetSkyControllerDeviceStateConnexionChangedCallback
                0x000000000003ae80       0x4c /home/heratom/Firefly-project/out/arsdk-native/build/libARCommands/obj/gen/Sources/ARCOMMANDS_Decoder.c.o
                0x000000000003ae80                ARCOMMANDS_Decoder_SetSkyControllerDeviceStateConnexionChangedCallback
 *fill*         0x000000000003aecc        0x4 
 .text.ARCOMMANDS_Decoder_SetSkyControllerSettingsStateAllSettingsChangedCallback
                0x000000000003aed0       0x4c /home/heratom/Firefly-project/out/arsdk-native/build/libARCommands/obj/gen/Sources/ARCOMMANDS_Decoder.c.o
                0x000000000003aed0                ARCOMMANDS_Decoder_SetSkyControllerSettingsStateAllSettingsChangedCallback
 *fill*         0x000000000003af1c        0x4 
 .text.ARCOMMANDS_Decoder_SetSkyControllerSettingsStateResetChangedCallback
                0x000000000003af20       0x4c /home/heratom/Firefly-project/out/arsdk-native/build/libARCommands/obj/gen/Sources/ARCOMMANDS_Decoder.c.o
                0x000000000003af20                ARCOMMANDS_Decoder_SetSkyControllerSettingsStateResetChangedCallback
 *fill*         0x000000000003af6c        0x4 
 .text.ARCOMMANDS_Decoder_SetSkyControllerSettingsStateProductSerialChangedCallback
                0x000000000003af70       0x4c /home/heratom/Firefly-project/out/arsdk-native/build/libARCommands/obj/gen/Sources/ARCOMMANDS_Decoder.c.o
                0x000000000003af70                ARCOMMANDS_Decoder_SetSkyControllerSettingsStateProductSerialChangedCallback
 *fill*         0x000000000003afbc        0x4 
 .text.ARCOMMANDS_Decoder_SetSkyControllerSettingsStateProductVariantChangedCallback
                0x000000000003afc0       0x4c /home/heratom/Firefly-project/out/arsdk-native/build/libARCommands/obj/gen/Sources/ARCOMMANDS_Decoder.c.o
                0x000000000003afc0                ARCOMMANDS_Decoder_SetSkyControllerSettingsStateProductVariantChangedCallback
 *fill*         0x000000000003b00c        0x4 
 .text.ARCOMMANDS_Decoder_SetSkyControllerCommonStateAllStatesChangedCallback
                0x000000000003b010       0x4c /home/heratom/Firefly-project/out/arsdk-native/build/libARCommands/obj/gen/Sources/ARCOMMANDS_Decoder.c.o
                0x000000000003b010                ARCOMMANDS_Decoder_SetSkyControllerCommonStateAllStatesChangedCallback
 *fill*         0x000000000003b05c        0x4 
 .text.ARCOMMANDS_Decoder_SetSkyControllerSkyControllerStateBatteryChangedCallback
                0x000000000003b060       0x4c /home/heratom/Firefly-project/out/arsdk-native/build/libARCommands/obj/gen/Sources/ARCOMMANDS_Decoder.c.o
                0x000000000003b060                ARCOMMANDS_Decoder_SetSkyControllerSkyControllerStateBatteryChangedCallback
 *fill*         0x000000000003b0ac        0x4 
 .text.ARCOMMANDS_Decoder_SetSkyControllerSkyControllerStateGpsFixChangedCallback
                0x000000000003b0b0       0x4c /home/heratom/Firefly-project/out/arsdk-native/build/libARCommands/obj/gen/Sources/ARCOMMANDS_Decoder.c.o
                0x000000000003b0b0                ARCOMMANDS_Decoder_SetSkyControllerSkyControllerStateGpsFixChangedCallback
 *fill*         0x000000000003b0fc        0x4 
 .text.ARCOMMANDS_Decoder_SetSkyControllerSkyControllerStateGpsPositionChangedCallback
                0x000000000003b100       0x4c /home/heratom/Firefly-project/out/arsdk-native/build/libARCommands/obj/gen/Sources/ARCOMMANDS_Decoder.c.o
                0x000000000003b100                ARCOMMANDS_Decoder_SetSkyControllerSkyControllerStateGpsPositionChangedCallback
 *fill*         0x000000000003b14c        0x4 
 .text.ARCOMMANDS_Decoder_SetSkyControllerAccessPointSettingsStateAccessPointSSIDChangedCallback
                0x000000000003b150       0x4c /home/heratom/Firefly-project/out/arsdk-native/build/libARCommands/obj/gen/Sources/ARCOMMANDS_Decoder.c.o
                0x000000000003b150                ARCOMMANDS_Decoder_SetSkyControllerAccessPointSettingsStateAccessPointSSIDChangedCallback
 *fill*         0x000000000003b19c        0x4 
 .text.ARCOMMANDS_Decoder_SetSkyControllerAccessPointSettingsStateAccessPointChannelChangedCallback
                0x000000000003b1a0       0x4c /home/heratom/Firefly-project/out/arsdk-native/build/libARCommands/obj/gen/Sources/ARCOMMANDS_Decoder.c.o
                0x000000000003b1a0                ARCOMMANDS_Decoder_SetSkyControllerAccessPointSettingsStateAccessPointChannelChangedCallback
 *fill*         0x000000000003b1ec        0x4 
 .text.ARCOMMANDS_Decoder_SetSkyControllerAccessPointSettingsStateWifiSelectionChangedCallback
                0x000000000003b1f0       0x4c /home/heratom/Firefly-project/out/arsdk-native/build/libARCommands/obj/gen/Sources/ARCOMMANDS_Decoder.c.o
                0x000000000003b1f0                ARCOMMANDS_Decoder_SetSkyControllerAccessPointSettingsStateWifiSelectionChangedCallback
 *fill*         0x000000000003b23c        0x4 
 .text.ARCOMMANDS_Decoder_SetSkyControllerGamepadInfosStateGamepadControlCallback
                0x000000000003b240       0x4c /home/heratom/Firefly-project/out/arsdk-native/build/libARCommands/obj/gen/Sources/ARCOMMANDS_Decoder.c.o
                0x000000000003b240                ARCOMMANDS_Decoder_SetSkyControllerGamepadInfosStateGamepadControlCallback
 *fill*         0x000000000003b28c        0x4 
 .text.ARCOMMANDS_Decoder_SetSkyControllerGamepadInfosStateAllGamepadControlsSentCallback
                0x000000000003b290       0x4c /home/heratom/Firefly-project/out/arsdk-native/build/libARCommands/obj/gen/Sources/ARCOMMANDS_Decoder.c.o
                0x000000000003b290                ARCOMMANDS_Decoder_SetSkyControllerGamepadInfosStateAllGamepadControlsSentCallback
 *fill*         0x000000000003b2dc        0x4 
 .text.ARCOMMANDS_Decoder_SetSkyControllerButtonMappingsStateCurrentButtonMappingsCallback
                0x000000000003b2e0       0x4c /home/heratom/Firefly-project/out/arsdk-native/build/libARCommands/obj/gen/Sources/ARCOMMANDS_Decoder.c.o
                0x000000000003b2e0                ARCOMMANDS_Decoder_SetSkyControllerButtonMappingsStateCurrentButtonMappingsCallback
 *fill*         0x000000000003b32c        0x4 
 .text.ARCOMMANDS_Decoder_SetSkyControllerButtonMappingsStateAllCurrentButtonMappingsSentCallback
                0x000000000003b330       0x4c /home/heratom/Firefly-project/out/arsdk-native/build/libARCommands/obj/gen/Sources/ARCOMMANDS_Decoder.c.o
                0x000000000003b330                ARCOMMANDS_Decoder_SetSkyControllerButtonMappingsStateAllCurrentButtonMappingsSentCallback
 *fill*         0x000000000003b37c        0x4 
 .text.ARCOMMANDS_Decoder_SetSkyControllerButtonMappingsStateAvailableButtonMappingsCallback
                0x000000000003b380       0x4c /home/heratom/Firefly-project/out/arsdk-native/build/libARCommands/obj/gen/Sources/ARCOMMANDS_Decoder.c.o
                0x000000000003b380                ARCOMMANDS_Decoder_SetSkyControllerButtonMappingsStateAvailableButtonMappingsCallback
 *fill*         0x000000000003b3cc        0x4 
 .text.ARCOMMANDS_Decoder_SetSkyControllerButtonMappingsStateAllAvailableButtonsMappingsSentCallback
                0x000000000003b3d0       0x4c /home/heratom/Firefly-project/out/arsdk-native/build/libARCommands/obj/gen/Sources/ARCOMMANDS_Decoder.c.o
                0x000000000003b3d0                ARCOMMANDS_Decoder_SetSkyControllerButtonMappingsStateAllAvailableButtonsMappingsSentCallback
 *fill*         0x000000000003b41c        0x4 
 .text.ARCOMMANDS_Decoder_SetSkyControllerAxisMappingsStateCurrentAxisMappingsCallback
                0x000000000003b420       0x4c /home/heratom/Firefly-project/out/arsdk-native/build/libARCommands/obj/gen/Sources/ARCOMMANDS_Decoder.c.o
                0x000000000003b420                ARCOMMANDS_Decoder_SetSkyControllerAxisMappingsStateCurrentAxisMappingsCallback
 *fill*         0x000000000003b46c        0x4 
 .text.ARCOMMANDS_Decoder_SetSkyControllerAxisMappingsStateAllCurrentAxisMappingsSentCallback
                0x000000000003b470       0x4c /home/heratom/Firefly-project/out/arsdk-native/build/libARCommands/obj/gen/Sources/ARCOMMANDS_Decoder.c.o
                0x000000000003b470                ARCOMMANDS_Decoder_SetSkyControllerAxisMappingsStateAllCurrentAxisMappingsSentCallback
 *fill*         0x000000000003b4bc        0x4 
 .text.ARCOMMANDS_Decoder_SetSkyControllerAxisMappingsStateAvailableAxisMappingsCallback
                0x000000000003b4c0       0x4c /home/heratom/Firefly-project/out/arsdk-native/build/libARCommands/obj/gen/Sources/ARCOMMANDS_Decoder.c.o
                0x000000000003b4c0                ARCOMMANDS_Decoder_SetSkyControllerAxisMappingsStateAvailableAxisMappingsCallback
 *fill*         0x000000000003b50c        0x4 
 .text.ARCOMMANDS_Decoder_SetSkyControllerAxisMappingsStateAllAvailableAxisMappingsSentCallback
                0x000000000003b510       0x4c /home/heratom/Firefly-project/out/arsdk-native/build/libARCommands/obj/gen/Sources/ARCOMMANDS_Decoder.c.o
                0x000000000003b510                ARCOMMANDS_Decoder_SetSkyControllerAxisMappingsStateAllAvailableAxisMappingsSentCallback
 *fill*         0x000000000003b55c        0x4 
 .text.ARCOMMANDS_Decoder_SetSkyControllerAxisFiltersStateCurrentAxisFiltersCallback
                0x000000000003b560       0x4c /home/heratom/Firefly-project/out/arsdk-native/build/libARCommands/obj/gen/Sources/ARCOMMANDS_Decoder.c.o
                0x000000000003b560                ARCOMMANDS_Decoder_SetSkyControllerAxisFiltersStateCurrentAxisFiltersCallback
 *fill*         0x000000000003b5ac        0x4 
 .text.ARCOMMANDS_Decoder_SetSkyControllerAxisFiltersStateAllCurrentFiltersSentCallback
                0x000000000003b5b0       0x4c /home/heratom/Firefly-project/out/arsdk-native/build/libARCommands/obj/gen/Sources/ARCOMMANDS_Decoder.c.o
                0x000000000003b5b0                ARCOMMANDS_Decoder_SetSkyControllerAxisFiltersStateAllCurrentFiltersSentCallback
 *fill*         0x000000000003b5fc        0x4 
 .text.ARCOMMANDS_Decoder_SetSkyControllerAxisFiltersStatePresetAxisFiltersCallback
                0x000000000003b600       0x4c /home/heratom/Firefly-project/out/arsdk-native/build/libARCommands/obj/gen/Sources/ARCOMMANDS_Decoder.c.o
                0x000000000003b600                ARCOMMANDS_Decoder_SetSkyControllerAxisFiltersStatePresetAxisFiltersCallback
 *fill*         0x000000000003b64c        0x4 
 .text.ARCOMMANDS_Decoder_SetSkyControllerAxisFiltersStateAllPresetFiltersSentCallback
                0x000000000003b650       0x4c /home/heratom/Firefly-project/out/arsdk-native/build/libARCommands/obj/gen/Sources/ARCOMMANDS_Decoder.c.o
                0x000000000003b650                ARCOMMANDS_Decoder_SetSkyControllerAxisFiltersStateAllPresetFiltersSentCallback
 *fill*         0x000000000003b69c        0x4 
 .text.ARCOMMANDS_Decoder_SetSkyControllerCoPilotingStatePilotingSourceCallback
                0x000000000003b6a0       0x4c /home/heratom/Firefly-project/out/arsdk-native/build/libARCommands/obj/gen/Sources/ARCOMMANDS_Decoder.c.o
                0x000000000003b6a0                ARCOMMANDS_Decoder_SetSkyControllerCoPilotingStatePilotingSourceCallback
 *fill*         0x000000000003b6ec        0x4 
 .text.ARCOMMANDS_Decoder_SetSkyControllerCalibrationStateMagnetoCalibrationStateCallback
                0x000000000003b6f0       0x4c /home/heratom/Firefly-project/out/arsdk-native/build/libARCommands/obj/gen/Sources/ARCOMMANDS_Decoder.c.o
                0x000000000003b6f0                ARCOMMANDS_Decoder_SetSkyControllerCalibrationStateMagnetoCalibrationStateCallback
 *fill*         0x000000000003b73c        0x4 
 .text.ARCOMMANDS_Decoder_SetSkyControllerCalibrationStateMagnetoCalibrationQualityUpdatesStateCallback
                0x000000000003b740       0x4c /home/heratom/Firefly-project/out/arsdk-native/build/libARCommands/obj/gen/Sources/ARCOMMANDS_Decoder.c.o
                0x000000000003b740                ARCOMMANDS_Decoder_SetSkyControllerCalibrationStateMagnetoCalibrationQualityUpdatesStateCallback
 *fill*         0x000000000003b78c        0x4 
 .text.ARCOMMANDS_Decoder_SetSkyControllerButtonEventsSettingsCallback
                0x000000000003b790       0x4c /home/heratom/Firefly-project/out/arsdk-native/build/libARCommands/obj/gen/Sources/ARCOMMANDS_Decoder.c.o
                0x000000000003b790                ARCOMMANDS_Decoder_SetSkyControllerButtonEventsSettingsCallback
 *fill*         0x000000000003b7dc        0x4 
 .text.ARCOMMANDS_Decoder_SetUnknownFeature1GeographicRunCallback
                0x000000000003b7e0       0x4c /home/heratom/Firefly-project/out/arsdk-native/build/libARCommands/obj/gen/Sources/ARCOMMANDS_Decoder.c.o
                0x000000000003b7e0                ARCOMMANDS_Decoder_SetUnknownFeature1GeographicRunCallback
 *fill*         0x000000000003b82c        0x4 
 .text.ARCOMMANDS_Decoder_SetUnknownFeature1RelativeRunCallback
                0x000000000003b830       0x4c /home/heratom/Firefly-project/out/arsdk-native/build/libARCommands/obj/gen/Sources/ARCOMMANDS_Decoder.c.o
                0x000000000003b830                ARCOMMANDS_Decoder_SetUnknownFeature1RelativeRunCallback
 *fill*         0x000000000003b87c        0x4 
 .text.ARCOMMANDS_Decoder_SetUnknownFeature1LookAtRunCallback
                0x000000000003b880       0x4c /home/heratom/Firefly-project/out/arsdk-native/build/libARCommands/obj/gen/Sources/ARCOMMANDS_Decoder.c.o
                0x000000000003b880                ARCOMMANDS_Decoder_SetUnknownFeature1LookAtRunCallback
 *fill*         0x000000000003b8cc        0x4 
 .text.ARCOMMANDS_Decoder_SetUnknownFeature1SpiralAnimRunCallback
                0x000000000003b8d0       0x4c /home/heratom/Firefly-project/out/arsdk-native/build/libARCommands/obj/gen/Sources/ARCOMMANDS_Decoder.c.o
                0x000000000003b8d0                ARCOMMANDS_Decoder_SetUnknownFeature1SpiralAnimRunCallback
 *fill*         0x000000000003b91c        0x4 
 .text.ARCOMMANDS_Decoder_SetUnknownFeature1SwingAnimRunCallback
                0x000000000003b920       0x4c /home/heratom/Firefly-project/out/arsdk-native/build/libARCommands/obj/gen/Sources/ARCOMMANDS_Decoder.c.o
                0x000000000003b920                ARCOMMANDS_Decoder_SetUnknownFeature1SwingAnimRunCallback
 *fill*         0x000000000003b96c        0x4 
 .text.ARCOMMANDS_Decoder_SetUnknownFeature1BoomerangAnimRunCallback
                0x000000000003b970       0x4c /home/heratom/Firefly-project/out/arsdk-native/build/libARCommands/obj/gen/Sources/ARCOMMANDS_Decoder.c.o
                0x000000000003b970                ARCOMMANDS_Decoder_SetUnknownFeature1BoomerangAnimRunCallback
 *fill*         0x000000000003b9bc        0x4 
 .text.ARCOMMANDS_Decoder_SetUnknownFeature1CandleAnimRunCallback
                0x000000000003b9c0       0x4c /home/heratom/Firefly-project/out/arsdk-native/build/libARCommands/obj/gen/Sources/ARCOMMANDS_Decoder.c.o
                0x000000000003b9c0                ARCOMMANDS_Decoder_SetUnknownFeature1CandleAnimRunCallback
 *fill*         0x000000000003ba0c        0x4 
 .text.ARCOMMANDS_Decoder_SetUnknownFeature1DollySlideAnimRunCallback
                0x000000000003ba10       0x4c /home/heratom/Firefly-project/out/arsdk-native/build/libARCommands/obj/gen/Sources/ARCOMMANDS_Decoder.c.o
                0x000000000003ba10                ARCOMMANDS_Decoder_SetUnknownFeature1DollySlideAnimRunCallback
 *fill*         0x000000000003ba5c        0x4 
 .text.ARCOMMANDS_Decoder_SetUnknownFeature1UserFramingPositionCallback
                0x000000000003ba60       0x4c /home/heratom/Firefly-project/out/arsdk-native/build/libARCommands/obj/gen/Sources/ARCOMMANDS_Decoder.c.o
                0x000000000003ba60                ARCOMMANDS_Decoder_SetUnknownFeature1UserFramingPositionCallback
 *fill*         0x000000000003baac        0x4 
 .text.ARCOMMANDS_Decoder_SetUnknownFeature1UserGPSDataCallback
                0x000000000003bab0       0x4c /home/heratom/Firefly-project/out/arsdk-native/build/libARCommands/obj/gen/Sources/ARCOMMANDS_Decoder.c.o
                0x000000000003bab0                ARCOMMANDS_Decoder_SetUnknownFeature1UserGPSDataCallback
 *fill*         0x000000000003bafc        0x4 
 .text.ARCOMMANDS_Decoder_SetUnknownFeature1UserBaroDataCallback
                0x000000000003bb00       0x4c /home/heratom/Firefly-project/out/arsdk-native/build/libARCommands/obj/gen/Sources/ARCOMMANDS_Decoder.c.o
                0x000000000003bb00                ARCOMMANDS_Decoder_SetUnknownFeature1UserBaroDataCallback
 *fill*         0x000000000003bb4c        0x4 
 .text.ARCOMMANDS_Decoder_SetUnknownFeature1LynxDetectionCallback
                0x000000000003bb50       0x4c /home/heratom/Firefly-project/out/arsdk-native/build/libARCommands/obj/gen/Sources/ARCOMMANDS_Decoder.c.o
                0x000000000003bb50                ARCOMMANDS_Decoder_SetUnknownFeature1LynxDetectionCallback
 *fill*         0x000000000003bb9c        0x4 
 .text.ARCOMMANDS_Decoder_SetUnknownFeature1AvailabilityCallback
                0x000000000003bba0       0x4c /home/heratom/Firefly-project/out/arsdk-native/build/libARCommands/obj/gen/Sources/ARCOMMANDS_Decoder.c.o
                0x000000000003bba0                ARCOMMANDS_Decoder_SetUnknownFeature1AvailabilityCallback
 *fill*         0x000000000003bbec        0x4 
 .text.ARCOMMANDS_Decoder_SetUnknownFeature1RunCallback
                0x000000000003bbf0       0x4c /home/heratom/Firefly-project/out/arsdk-native/build/libARCommands/obj/gen/Sources/ARCOMMANDS_Decoder.c.o
                0x000000000003bbf0                ARCOMMANDS_Decoder_SetUnknownFeature1RunCallback
 *fill*         0x000000000003bc3c        0x4 
 .text.ARCOMMANDS_Decoder_SetUnknownFeature1GeographicConfigChangedCallback
                0x000000000003bc40       0x4c /home/heratom/Firefly-project/out/arsdk-native/build/libARCommands/obj/gen/Sources/ARCOMMANDS_Decoder.c.o
                0x000000000003bc40                ARCOMMANDS_Decoder_SetUnknownFeature1GeographicConfigChangedCallback
 *fill*         0x000000000003bc8c        0x4 
 .text.ARCOMMANDS_Decoder_SetUnknownFeature1RelativeConfigChangedCallback
                0x000000000003bc90       0x4c /home/heratom/Firefly-project/out/arsdk-native/build/libARCommands/obj/gen/Sources/ARCOMMANDS_Decoder.c.o
                0x000000000003bc90                ARCOMMANDS_Decoder_SetUnknownFeature1RelativeConfigChangedCallback
 *fill*         0x000000000003bcdc        0x4 
 .text.ARCOMMANDS_Decoder_SetUnknownFeature1AnimRunCallback
                0x000000000003bce0       0x4c /home/heratom/Firefly-project/out/arsdk-native/build/libARCommands/obj/gen/Sources/ARCOMMANDS_Decoder.c.o
                0x000000000003bce0                ARCOMMANDS_Decoder_SetUnknownFeature1AnimRunCallback
 *fill*         0x000000000003bd2c        0x4 
 .text.ARCOMMANDS_Decoder_SetUnknownFeature1SpiralAnimConfigChangedCallback
                0x000000000003bd30       0x4c /home/heratom/Firefly-project/out/arsdk-native/build/libARCommands/obj/gen/Sources/ARCOMMANDS_Decoder.c.o
                0x000000000003bd30                ARCOMMANDS_Decoder_SetUnknownFeature1SpiralAnimConfigChangedCallback
 *fill*         0x000000000003bd7c        0x4 
 .text.ARCOMMANDS_Decoder_SetUnknownFeature1SwingAnimConfigChangedCallback
                0x000000000003bd80       0x4c /home/heratom/Firefly-project/out/arsdk-native/build/libARCommands/obj/gen/Sources/ARCOMMANDS_Decoder.c.o
                0x000000000003bd80                ARCOMMANDS_Decoder_SetUnknownFeature1SwingAnimConfigChangedCallback
 *fill*         0x000000000003bdcc        0x4 
 .text.ARCOMMANDS_Decoder_SetUnknownFeature1BoomerangAnimConfigChangedCallback
                0x000000000003bdd0       0x4c /home/heratom/Firefly-project/out/arsdk-native/build/libARCommands/obj/gen/Sources/ARCOMMANDS_Decoder.c.o
                0x000000000003bdd0                ARCOMMANDS_Decoder_SetUnknownFeature1BoomerangAnimConfigChangedCallback
 *fill*         0x000000000003be1c        0x4 
 .text.ARCOMMANDS_Decoder_SetUnknownFeature1CandleAnimConfigChangedCallback
                0x000000000003be20       0x4c /home/heratom/Firefly-project/out/arsdk-native/build/libARCommands/obj/gen/Sources/ARCOMMANDS_Decoder.c.o
                0x000000000003be20                ARCOMMANDS_Decoder_SetUnknownFeature1CandleAnimConfigChangedCallback
 *fill*         0x000000000003be6c        0x4 
 .text.ARCOMMANDS_Decoder_SetUnknownFeature1DollySlideAnimConfigChangedCallback
                0x000000000003be70       0x4c /home/heratom/Firefly-project/out/arsdk-native/build/libARCommands/obj/gen/Sources/ARCOMMANDS_Decoder.c.o
                0x000000000003be70                ARCOMMANDS_Decoder_SetUnknownFeature1DollySlideAnimConfigChangedCallback
 *fill*         0x000000000003bebc        0x4 
 .text.ARCOMMANDS_Decoder_SetUnknownFeature1UserFramingPositionChangedCallback
                0x000000000003bec0       0x4c /home/heratom/Firefly-project/out/arsdk-native/build/libARCommands/obj/gen/Sources/ARCOMMANDS_Decoder.c.o
                0x000000000003bec0                ARCOMMANDS_Decoder_SetUnknownFeature1UserFramingPositionChangedCallback
 *fill*         0x000000000003bf0c        0x4 
 .text.ARCOMMANDS_Decoder_SetCommonNetworkDisconnectCallback
                0x000000000003bf10       0x4c /home/heratom/Firefly-project/out/arsdk-native/build/libARCommands/obj/gen/Sources/ARCOMMANDS_Decoder.c.o
                0x000000000003bf10                ARCOMMANDS_Decoder_SetCommonNetworkDisconnectCallback
 *fill*         0x000000000003bf5c        0x4 
 .text.ARCOMMANDS_Decoder_SetCommonSettingsAllSettingsCallback
                0x000000000003bf60       0x4c /home/heratom/Firefly-project/out/arsdk-native/build/libARCommands/obj/gen/Sources/ARCOMMANDS_Decoder.c.o
                0x000000000003bf60                ARCOMMANDS_Decoder_SetCommonSettingsAllSettingsCallback
 *fill*         0x000000000003bfac        0x4 
 .text.ARCOMMANDS_Decoder_SetCommonSettingsResetCallback
                0x000000000003bfb0       0x4c /home/heratom/Firefly-project/out/arsdk-native/build/libARCommands/obj/gen/Sources/ARCOMMANDS_Decoder.c.o
                0x000000000003bfb0                ARCOMMANDS_Decoder_SetCommonSettingsResetCallback
 *fill*         0x000000000003bffc        0x4 
 .text.ARCOMMANDS_Decoder_SetCommonSettingsProductNameCallback
                0x000000000003c000       0x4c /home/heratom/Firefly-project/out/arsdk-native/build/libARCommands/obj/gen/Sources/ARCOMMANDS_Decoder.c.o
                0x000000000003c000                ARCOMMANDS_Decoder_SetCommonSettingsProductNameCallback
 *fill*         0x000000000003c04c        0x4 
 .text.ARCOMMANDS_Decoder_SetCommonSettingsCountryCallback
                0x000000000003c050       0x4c /home/heratom/Firefly-project/out/arsdk-native/build/libARCommands/obj/gen/Sources/ARCOMMANDS_Decoder.c.o
                0x000000000003c050                ARCOMMANDS_Decoder_SetCommonSettingsCountryCallback
 *fill*         0x000000000003c09c        0x4 
 .text.ARCOMMANDS_Decoder_SetCommonSettingsAutoCountryCallback
                0x000000000003c0a0       0x4c /home/heratom/Firefly-project/out/arsdk-native/build/libARCommands/obj/gen/Sources/ARCOMMANDS_Decoder.c.o
                0x000000000003c0a0                ARCOMMANDS_Decoder_SetCommonSettingsAutoCountryCallback
 *fill*         0x000000000003c0ec        0x4 
 .text.ARCOMMANDS_Decoder_SetCommonCommonAllStatesCallback
                0x000000000003c0f0       0x4c /home/heratom/Firefly-project/out/arsdk-native/build/libARCommands/obj/gen/Sources/ARCOMMANDS_Decoder.c.o
                0x000000000003c0f0                ARCOMMANDS_Decoder_SetCommonCommonAllStatesCallback
 *fill*         0x000000000003c13c        0x4 
 .text.ARCOMMANDS_Decoder_SetCommonCommonCurrentDateCallback
                0x000000000003c140       0x4c /home/heratom/Firefly-project/out/arsdk-native/build/libARCommands/obj/gen/Sources/ARCOMMANDS_Decoder.c.o
                0x000000000003c140                ARCOMMANDS_Decoder_SetCommonCommonCurrentDateCallback
 *fill*         0x000000000003c18c        0x4 
 .text.ARCOMMANDS_Decoder_SetCommonCommonCurrentTimeCallback
                0x000000000003c190       0x4c /home/heratom/Firefly-project/out/arsdk-native/build/libARCommands/obj/gen/Sources/ARCOMMANDS_Decoder.c.o
                0x000000000003c190                ARCOMMANDS_Decoder_SetCommonCommonCurrentTimeCallback
 *fill*         0x000000000003c1dc        0x4 
 .text.ARCOMMANDS_Decoder_SetCommonCommonRebootCallback
                0x000000000003c1e0       0x4c /home/heratom/Firefly-project/out/arsdk-native/build/libARCommands/obj/gen/Sources/ARCOMMANDS_Decoder.c.o
                0x000000000003c1e0                ARCOMMANDS_Decoder_SetCommonCommonRebootCallback
 *fill*         0x000000000003c22c        0x4 
 .text.ARCOMMANDS_Decoder_SetCommonOverHeatSwitchOffCallback
                0x000000000003c230       0x4c /home/heratom/Firefly-project/out/arsdk-native/build/libARCommands/obj/gen/Sources/ARCOMMANDS_Decoder.c.o
                0x000000000003c230                ARCOMMANDS_Decoder_SetCommonOverHeatSwitchOffCallback
 *fill*         0x000000000003c27c        0x4 
 .text.ARCOMMANDS_Decoder_SetCommonOverHeatVentilateCallback
                0x000000000003c280       0x4c /home/heratom/Firefly-project/out/arsdk-native/build/libARCommands/obj/gen/Sources/ARCOMMANDS_Decoder.c.o
                0x000000000003c280                ARCOMMANDS_Decoder_SetCommonOverHeatVentilateCallback
 *fill*         0x000000000003c2cc        0x4 
 .text.ARCOMMANDS_Decoder_SetCommonControllerIsPilotingCallback
                0x000000000003c2d0       0x4c /home/heratom/Firefly-project/out/arsdk-native/build/libARCommands/obj/gen/Sources/ARCOMMANDS_Decoder.c.o
                0x000000000003c2d0                ARCOMMANDS_Decoder_SetCommonControllerIsPilotingCallback
 *fill*         0x000000000003c31c        0x4 
 .text.ARCOMMANDS_Decoder_SetCommonWifiSettingsOutdoorSettingCallback
                0x000000000003c320       0x4c /home/heratom/Firefly-project/out/arsdk-native/build/libARCommands/obj/gen/Sources/ARCOMMANDS_Decoder.c.o
                0x000000000003c320                ARCOMMANDS_Decoder_SetCommonWifiSettingsOutdoorSettingCallback
 *fill*         0x000000000003c36c        0x4 
 .text.ARCOMMANDS_Decoder_SetCommonMavlinkStartCallback
                0x000000000003c370       0x4c /home/heratom/Firefly-project/out/arsdk-native/build/libARCommands/obj/gen/Sources/ARCOMMANDS_Decoder.c.o
                0x000000000003c370                ARCOMMANDS_Decoder_SetCommonMavlinkStartCallback
 *fill*         0x000000000003c3bc        0x4 
 .text.ARCOMMANDS_Decoder_SetCommonMavlinkPauseCallback
                0x000000000003c3c0       0x4c /home/heratom/Firefly-project/out/arsdk-native/build/libARCommands/obj/gen/Sources/ARCOMMANDS_Decoder.c.o
                0x000000000003c3c0                ARCOMMANDS_Decoder_SetCommonMavlinkPauseCallback
 *fill*         0x000000000003c40c        0x4 
 .text.ARCOMMANDS_Decoder_SetCommonMavlinkStopCallback
                0x000000000003c410       0x4c /home/heratom/Firefly-project/out/arsdk-native/build/libARCommands/obj/gen/Sources/ARCOMMANDS_Decoder.c.o
                0x000000000003c410                ARCOMMANDS_Decoder_SetCommonMavlinkStopCallback
 *fill*         0x000000000003c45c        0x4 
 .text.ARCOMMANDS_Decoder_SetCommonCalibrationMagnetoCalibrationCallback
                0x000000000003c460       0x4c /home/heratom/Firefly-project/out/arsdk-native/build/libARCommands/obj/gen/Sources/ARCOMMANDS_Decoder.c.o
                0x000000000003c460                ARCOMMANDS_Decoder_SetCommonCalibrationMagnetoCalibrationCallback
 *fill*         0x000000000003c4ac        0x4 
 .text.ARCOMMANDS_Decoder_SetCommonGPSControllerPositionForRunCallback
                0x000000000003c4b0       0x4c /home/heratom/Firefly-project/out/arsdk-native/build/libARCommands/obj/gen/Sources/ARCOMMANDS_Decoder.c.o
                0x000000000003c4b0                ARCOMMANDS_Decoder_SetCommonGPSControllerPositionForRunCallback
 *fill*         0x000000000003c4fc        0x4 
 .text.ARCOMMANDS_Decoder_SetCommonAudioControllerReadyForStreamingCallback
                0x000000000003c500       0x4c /home/heratom/Firefly-project/out/arsdk-native/build/libARCommands/obj/gen/Sources/ARCOMMANDS_Decoder.c.o
                0x000000000003c500                ARCOMMANDS_Decoder_SetCommonAudioControllerReadyForStreamingCallback
 *fill*         0x000000000003c54c        0x4 
 .text.ARCOMMANDS_Decoder_SetCommonHeadlightsIntensityCallback
                0x000000000003c550       0x4c /home/heratom/Firefly-project/out/arsdk-native/build/libARCommands/obj/gen/Sources/ARCOMMANDS_Decoder.c.o
                0x000000000003c550                ARCOMMANDS_Decoder_SetCommonHeadlightsIntensityCallback
 *fill*         0x000000000003c59c        0x4 
 .text.ARCOMMANDS_Decoder_SetCommonAnimationsStartAnimationCallback
                0x000000000003c5a0       0x4c /home/heratom/Firefly-project/out/arsdk-native/build/libARCommands/obj/gen/Sources/ARCOMMANDS_Decoder.c.o
                0x000000000003c5a0                ARCOMMANDS_Decoder_SetCommonAnimationsStartAnimationCallback
 *fill*         0x000000000003c5ec        0x4 
 .text.ARCOMMANDS_Decoder_SetCommonAnimationsStopAnimationCallback
                0x000000000003c5f0       0x4c /home/heratom/Firefly-project/out/arsdk-native/build/libARCommands/obj/gen/Sources/ARCOMMANDS_Decoder.c.o
                0x000000000003c5f0                ARCOMMANDS_Decoder_SetCommonAnimationsStopAnimationCallback
 *fill*         0x000000000003c63c        0x4 
 .text.ARCOMMANDS_Decoder_SetCommonAnimationsStopAllAnimationsCallback
                0x000000000003c640       0x4c /home/heratom/Firefly-project/out/arsdk-native/build/libARCommands/obj/gen/Sources/ARCOMMANDS_Decoder.c.o
                0x000000000003c640                ARCOMMANDS_Decoder_SetCommonAnimationsStopAllAnimationsCallback
 *fill*         0x000000000003c68c        0x4 
 .text.ARCOMMANDS_Decoder_SetCommonAccessoryConfigCallback
                0x000000000003c690       0x4c /home/heratom/Firefly-project/out/arsdk-native/build/libARCommands/obj/gen/Sources/ARCOMMANDS_Decoder.c.o
                0x000000000003c690                ARCOMMANDS_Decoder_SetCommonAccessoryConfigCallback
 *fill*         0x000000000003c6dc        0x4 
 .text.ARCOMMANDS_Decoder_SetCommonChargerSetMaxChargeRateCallback
                0x000000000003c6e0       0x4c /home/heratom/Firefly-project/out/arsdk-native/build/libARCommands/obj/gen/Sources/ARCOMMANDS_Decoder.c.o
                0x000000000003c6e0                ARCOMMANDS_Decoder_SetCommonChargerSetMaxChargeRateCallback
 *fill*         0x000000000003c72c        0x4 
 .text.ARCOMMANDS_Decoder_SetCommonNetworkEventDisconnectionCallback
                0x000000000003c730       0x4c /home/heratom/Firefly-project/out/arsdk-native/build/libARCommands/obj/gen/Sources/ARCOMMANDS_Decoder.c.o
                0x000000000003c730                ARCOMMANDS_Decoder_SetCommonNetworkEventDisconnectionCallback
 *fill*         0x000000000003c77c        0x4 
 .text.ARCOMMANDS_Decoder_SetCommonSettingsStateAllSettingsChangedCallback
                0x000000000003c780       0x4c /home/heratom/Firefly-project/out/arsdk-native/build/libARCommands/obj/gen/Sources/ARCOMMANDS_Decoder.c.o
                0x000000000003c780                ARCOMMANDS_Decoder_SetCommonSettingsStateAllSettingsChangedCallback
 *fill*         0x000000000003c7cc        0x4 
 .text.ARCOMMANDS_Decoder_SetCommonSettingsStateResetChangedCallback
                0x000000000003c7d0       0x4c /home/heratom/Firefly-project/out/arsdk-native/build/libARCommands/obj/gen/Sources/ARCOMMANDS_Decoder.c.o
                0x000000000003c7d0                ARCOMMANDS_Decoder_SetCommonSettingsStateResetChangedCallback
 *fill*         0x000000000003c81c        0x4 
 .text.ARCOMMANDS_Decoder_SetCommonSettingsStateProductNameChangedCallback
                0x000000000003c820       0x4c /home/heratom/Firefly-project/out/arsdk-native/build/libARCommands/obj/gen/Sources/ARCOMMANDS_Decoder.c.o
                0x000000000003c820                ARCOMMANDS_Decoder_SetCommonSettingsStateProductNameChangedCallback
 *fill*         0x000000000003c86c        0x4 
 .text.ARCOMMANDS_Decoder_SetCommonSettingsStateProductVersionChangedCallback
                0x000000000003c870       0x4c /home/heratom/Firefly-project/out/arsdk-native/build/libARCommands/obj/gen/Sources/ARCOMMANDS_Decoder.c.o
                0x000000000003c870                ARCOMMANDS_Decoder_SetCommonSettingsStateProductVersionChangedCallback
 *fill*         0x000000000003c8bc        0x4 
 .text.ARCOMMANDS_Decoder_SetCommonSettingsStateProductSerialHighChangedCallback
                0x000000000003c8c0       0x4c /home/heratom/Firefly-project/out/arsdk-native/build/libARCommands/obj/gen/Sources/ARCOMMANDS_Decoder.c.o
                0x000000000003c8c0                ARCOMMANDS_Decoder_SetCommonSettingsStateProductSerialHighChangedCallback
 *fill*         0x000000000003c90c        0x4 
 .text.ARCOMMANDS_Decoder_SetCommonSettingsStateProductSerialLowChangedCallback
                0x000000000003c910       0x4c /home/heratom/Firefly-project/out/arsdk-native/build/libARCommands/obj/gen/Sources/ARCOMMANDS_Decoder.c.o
                0x000000000003c910                ARCOMMANDS_Decoder_SetCommonSettingsStateProductSerialLowChangedCallback
 *fill*         0x000000000003c95c        0x4 
 .text.ARCOMMANDS_Decoder_SetCommonSettingsStateCountryChangedCallback
                0x000000000003c960       0x4c /home/heratom/Firefly-project/out/arsdk-native/build/libARCommands/obj/gen/Sources/ARCOMMANDS_Decoder.c.o
                0x000000000003c960                ARCOMMANDS_Decoder_SetCommonSettingsStateCountryChangedCallback
 *fill*         0x000000000003c9ac        0x4 
 .text.ARCOMMANDS_Decoder_SetCommonSettingsStateAutoCountryChangedCallback
                0x000000000003c9b0       0x4c /home/heratom/Firefly-project/out/arsdk-native/build/libARCommands/obj/gen/Sources/ARCOMMANDS_Decoder.c.o
                0x000000000003c9b0                ARCOMMANDS_Decoder_SetCommonSettingsStateAutoCountryChangedCallback
 *fill*         0x000000000003c9fc        0x4 
 .text.ARCOMMANDS_Decoder_SetCommonCommonStateAllStatesChangedCallback
                0x000000000003ca00       0x4c /home/heratom/Firefly-project/out/arsdk-native/build/libARCommands/obj/gen/Sources/ARCOMMANDS_Decoder.c.o
                0x000000000003ca00                ARCOMMANDS_Decoder_SetCommonCommonStateAllStatesChangedCallback
 *fill*         0x000000000003ca4c        0x4 
 .text.ARCOMMANDS_Decoder_SetCommonCommonStateBatteryStateChangedCallback
                0x000000000003ca50       0x4c /home/heratom/Firefly-project/out/arsdk-native/build/libARCommands/obj/gen/Sources/ARCOMMANDS_Decoder.c.o
                0x000000000003ca50                ARCOMMANDS_Decoder_SetCommonCommonStateBatteryStateChangedCallback
 *fill*         0x000000000003ca9c        0x4 
 .text.ARCOMMANDS_Decoder_SetCommonCommonStateMassStorageStateListChangedCallback
                0x000000000003caa0       0x4c /home/heratom/Firefly-project/out/arsdk-native/build/libARCommands/obj/gen/Sources/ARCOMMANDS_Decoder.c.o
                0x000000000003caa0                ARCOMMANDS_Decoder_SetCommonCommonStateMassStorageStateListChangedCallback
 *fill*         0x000000000003caec        0x4 
 .text.ARCOMMANDS_Decoder_SetCommonCommonStateMassStorageInfoStateListChangedCallback
                0x000000000003caf0       0x4c /home/heratom/Firefly-project/out/arsdk-native/build/libARCommands/obj/gen/Sources/ARCOMMANDS_Decoder.c.o
                0x000000000003caf0                ARCOMMANDS_Decoder_SetCommonCommonStateMassStorageInfoStateListChangedCallback
 *fill*         0x000000000003cb3c        0x4 
 .text.ARCOMMANDS_Decoder_SetCommonCommonStateCurrentDateChangedCallback
                0x000000000003cb40       0x4c /home/heratom/Firefly-project/out/arsdk-native/build/libARCommands/obj/gen/Sources/ARCOMMANDS_Decoder.c.o
                0x000000000003cb40                ARCOMMANDS_Decoder_SetCommonCommonStateCurrentDateChangedCallback
 *fill*         0x000000000003cb8c        0x4 
 .text.ARCOMMANDS_Decoder_SetCommonCommonStateCurrentTimeChangedCallback
                0x000000000003cb90       0x4c /home/heratom/Firefly-project/out/arsdk-native/build/libARCommands/obj/gen/Sources/ARCOMMANDS_Decoder.c.o
                0x000000000003cb90                ARCOMMANDS_Decoder_SetCommonCommonStateCurrentTimeChangedCallback
 *fill*         0x000000000003cbdc        0x4 
 .text.ARCOMMANDS_Decoder_SetCommonCommonStateMassStorageInfoRemainingListChangedCallback
                0x000000000003cbe0       0x4c /home/heratom/Firefly-project/out/arsdk-native/build/libARCommands/obj/gen/Sources/ARCOMMANDS_Decoder.c.o
                0x000000000003cbe0                ARCOMMANDS_Decoder_SetCommonCommonStateMassStorageInfoRemainingListChangedCallback
 *fill*         0x000000000003cc2c        0x4 
 .text.ARCOMMANDS_Decoder_SetCommonCommonStateWifiSignalChangedCallback
                0x000000000003cc30       0x4c /home/heratom/Firefly-project/out/arsdk-native/build/libARCommands/obj/gen/Sources/ARCOMMANDS_Decoder.c.o
                0x000000000003cc30                ARCOMMANDS_Decoder_SetCommonCommonStateWifiSignalChangedCallback
 *fill*         0x000000000003cc7c        0x4 
 .text.ARCOMMANDS_Decoder_SetCommonCommonStateSensorsStatesListChangedCallback
                0x000000000003cc80       0x4c /home/heratom/Firefly-project/out/arsdk-native/build/libARCommands/obj/gen/Sources/ARCOMMANDS_Decoder.c.o
                0x000000000003cc80                ARCOMMANDS_Decoder_SetCommonCommonStateSensorsStatesListChangedCallback
 *fill*         0x000000000003cccc        0x4 
 .text.ARCOMMANDS_Decoder_SetCommonCommonStateProductModelCallback
                0x000000000003ccd0       0x4c /home/heratom/Firefly-project/out/arsdk-native/build/libARCommands/obj/gen/Sources/ARCOMMANDS_Decoder.c.o
                0x000000000003ccd0                ARCOMMANDS_Decoder_SetCommonCommonStateProductModelCallback
 *fill*         0x000000000003cd1c        0x4 
 .text.ARCOMMANDS_Decoder_SetCommonCommonStateCountryListKnownCallback
                0x000000000003cd20       0x4c /home/heratom/Firefly-project/out/arsdk-native/build/libARCommands/obj/gen/Sources/ARCOMMANDS_Decoder.c.o
                0x000000000003cd20                ARCOMMANDS_Decoder_SetCommonCommonStateCountryListKnownCallback
 *fill*         0x000000000003cd6c        0x4 
 .text.ARCOMMANDS_Decoder_SetCommonOverHeatStateOverHeatChangedCallback
                0x000000000003cd70       0x4c /home/heratom/Firefly-project/out/arsdk-native/build/libARCommands/obj/gen/Sources/ARCOMMANDS_Decoder.c.o
                0x000000000003cd70                ARCOMMANDS_Decoder_SetCommonOverHeatStateOverHeatChangedCallback
 *fill*         0x000000000003cdbc        0x4 
 .text.ARCOMMANDS_Decoder_SetCommonOverHeatStateOverHeatRegulationChangedCallback
                0x000000000003cdc0       0x4c /home/heratom/Firefly-project/out/arsdk-native/build/libARCommands/obj/gen/Sources/ARCOMMANDS_Decoder.c.o
                0x000000000003cdc0                ARCOMMANDS_Decoder_SetCommonOverHeatStateOverHeatRegulationChangedCallback
 *fill*         0x000000000003ce0c        0x4 
 .text.ARCOMMANDS_Decoder_SetCommonWifiSettingsStateOutdoorSettingsChangedCallback
                0x000000000003ce10       0x4c /home/heratom/Firefly-project/out/arsdk-native/build/libARCommands/obj/gen/Sources/ARCOMMANDS_Decoder.c.o
                0x000000000003ce10                ARCOMMANDS_Decoder_SetCommonWifiSettingsStateOutdoorSettingsChangedCallback
 *fill*         0x000000000003ce5c        0x4 
 .text.ARCOMMANDS_Decoder_SetCommonMavlinkStateMavlinkFilePlayingStateChangedCallback
                0x000000000003ce60       0x4c /home/heratom/Firefly-project/out/arsdk-native/build/libARCommands/obj/gen/Sources/ARCOMMANDS_Decoder.c.o
                0x000000000003ce60                ARCOMMANDS_Decoder_SetCommonMavlinkStateMavlinkFilePlayingStateChangedCallback
 *fill*         0x000000000003ceac        0x4 
 .text.ARCOMMANDS_Decoder_SetCommonMavlinkStateMavlinkPlayErrorStateChangedCallback
                0x000000000003ceb0       0x4c /home/heratom/Firefly-project/out/arsdk-native/build/libARCommands/obj/gen/Sources/ARCOMMANDS_Decoder.c.o
                0x000000000003ceb0                ARCOMMANDS_Decoder_SetCommonMavlinkStateMavlinkPlayErrorStateChangedCallback
 *fill*         0x000000000003cefc        0x4 
 .text.ARCOMMANDS_Decoder_SetCommonCalibrationStateMagnetoCalibrationStateChangedCallback
                0x000000000003cf00       0x4c /home/heratom/Firefly-project/out/arsdk-native/build/libARCommands/obj/gen/Sources/ARCOMMANDS_Decoder.c.o
                0x000000000003cf00                ARCOMMANDS_Decoder_SetCommonCalibrationStateMagnetoCalibrationStateChangedCallback
 *fill*         0x000000000003cf4c        0x4 
 .text.ARCOMMANDS_Decoder_SetCommonCalibrationStateMagnetoCalibrationRequiredStateCallback
                0x000000000003cf50       0x4c /home/heratom/Firefly-project/out/arsdk-native/build/libARCommands/obj/gen/Sources/ARCOMMANDS_Decoder.c.o
                0x000000000003cf50                ARCOMMANDS_Decoder_SetCommonCalibrationStateMagnetoCalibrationRequiredStateCallback
 *fill*         0x000000000003cf9c        0x4 
 .text.ARCOMMANDS_Decoder_SetCommonCalibrationStateMagnetoCalibrationAxisToCalibrateChangedCallback
                0x000000000003cfa0       0x4c /home/heratom/Firefly-project/out/arsdk-native/build/libARCommands/obj/gen/Sources/ARCOMMANDS_Decoder.c.o
                0x000000000003cfa0                ARCOMMANDS_Decoder_SetCommonCalibrationStateMagnetoCalibrationAxisToCalibrateChangedCallback
 *fill*         0x000000000003cfec        0x4 
 .text.ARCOMMANDS_Decoder_SetCommonCalibrationStateMagnetoCalibrationStartedChangedCallback
                0x000000000003cff0       0x4c /home/heratom/Firefly-project/out/arsdk-native/build/libARCommands/obj/gen/Sources/ARCOMMANDS_Decoder.c.o
                0x000000000003cff0                ARCOMMANDS_Decoder_SetCommonCalibrationStateMagnetoCalibrationStartedChangedCallback
 *fill*         0x000000000003d03c        0x4 
 .text.ARCOMMANDS_Decoder_SetCommonCameraSettingsStateCameraSettingsChangedCallback
                0x000000000003d040       0x4c /home/heratom/Firefly-project/out/arsdk-native/build/libARCommands/obj/gen/Sources/ARCOMMANDS_Decoder.c.o
                0x000000000003d040                ARCOMMANDS_Decoder_SetCommonCameraSettingsStateCameraSettingsChangedCallback
 *fill*         0x000000000003d08c        0x4 
 .text.ARCOMMANDS_Decoder_SetCommonFlightPlanStateAvailabilityStateChangedCallback
                0x000000000003d090       0x4c /home/heratom/Firefly-project/out/arsdk-native/build/libARCommands/obj/gen/Sources/ARCOMMANDS_Decoder.c.o
                0x000000000003d090                ARCOMMANDS_Decoder_SetCommonFlightPlanStateAvailabilityStateChangedCallback
 *fill*         0x000000000003d0dc        0x4 
 .text.ARCOMMANDS_Decoder_SetCommonFlightPlanStateComponentStateListChangedCallback
                0x000000000003d0e0       0x4c /home/heratom/Firefly-project/out/arsdk-native/build/libARCommands/obj/gen/Sources/ARCOMMANDS_Decoder.c.o
                0x000000000003d0e0                ARCOMMANDS_Decoder_SetCommonFlightPlanStateComponentStateListChangedCallback
 *fill*         0x000000000003d12c        0x4 
 .text.ARCOMMANDS_Decoder_SetCommonFlightPlanEventStartingErrorEventCallback
                0x000000000003d130       0x4c /home/heratom/Firefly-project/out/arsdk-native/build/libARCommands/obj/gen/Sources/ARCOMMANDS_Decoder.c.o
                0x000000000003d130                ARCOMMANDS_Decoder_SetCommonFlightPlanEventStartingErrorEventCallback
 *fill*         0x000000000003d17c        0x4 
 .text.ARCOMMANDS_Decoder_SetCommonFlightPlanEventSpeedBridleEventCallback
                0x000000000003d180       0x4c /home/heratom/Firefly-project/out/arsdk-native/build/libARCommands/obj/gen/Sources/ARCOMMANDS_Decoder.c.o
                0x000000000003d180                ARCOMMANDS_Decoder_SetCommonFlightPlanEventSpeedBridleEventCallback
 *fill*         0x000000000003d1cc        0x4 
 .text.ARCOMMANDS_Decoder_SetCommonARLibsVersionsStateControllerLibARCommandsVersionCallback
                0x000000000003d1d0       0x4c /home/heratom/Firefly-project/out/arsdk-native/build/libARCommands/obj/gen/Sources/ARCOMMANDS_Decoder.c.o
                0x000000000003d1d0                ARCOMMANDS_Decoder_SetCommonARLibsVersionsStateControllerLibARCommandsVersionCallback
 *fill*         0x000000000003d21c        0x4 
 .text.ARCOMMANDS_Decoder_SetCommonARLibsVersionsStateSkyControllerLibARCommandsVersionCallback
                0x000000000003d220       0x4c /home/heratom/Firefly-project/out/arsdk-native/build/libARCommands/obj/gen/Sources/ARCOMMANDS_Decoder.c.o
                0x000000000003d220                ARCOMMANDS_Decoder_SetCommonARLibsVersionsStateSkyControllerLibARCommandsVersionCallback
 *fill*         0x000000000003d26c        0x4 
 .text.ARCOMMANDS_Decoder_SetCommonARLibsVersionsStateDeviceLibARCommandsVersionCallback
                0x000000000003d270       0x4c /home/heratom/Firefly-project/out/arsdk-native/build/libARCommands/obj/gen/Sources/ARCOMMANDS_Decoder.c.o
                0x000000000003d270                ARCOMMANDS_Decoder_SetCommonARLibsVersionsStateDeviceLibARCommandsVersionCallback
 *fill*         0x000000000003d2bc        0x4 
 .text.ARCOMMANDS_Decoder_SetCommonAudioStateAudioStreamingRunningCallback
                0x000000000003d2c0       0x4c /home/heratom/Firefly-project/out/arsdk-native/build/libARCommands/obj/gen/Sources/ARCOMMANDS_Decoder.c.o
                0x000000000003d2c0                ARCOMMANDS_Decoder_SetCommonAudioStateAudioStreamingRunningCallback
 *fill*         0x000000000003d30c        0x4 
 .text.ARCOMMANDS_Decoder_SetCommonHeadlightsStateIntensityChangedCallback
                0x000000000003d310       0x4c /home/heratom/Firefly-project/out/arsdk-native/build/libARCommands/obj/gen/Sources/ARCOMMANDS_Decoder.c.o
                0x000000000003d310                ARCOMMANDS_Decoder_SetCommonHeadlightsStateIntensityChangedCallback
 *fill*         0x000000000003d35c        0x4 
 .text.ARCOMMANDS_Decoder_SetCommonAnimationsStateListCallback
                0x000000000003d360       0x4c /home/heratom/Firefly-project/out/arsdk-native/build/libARCommands/obj/gen/Sources/ARCOMMANDS_Decoder.c.o
                0x000000000003d360                ARCOMMANDS_Decoder_SetCommonAnimationsStateListCallback
 *fill*         0x000000000003d3ac        0x4 
 .text.ARCOMMANDS_Decoder_SetCommonAccessoryStateSupportedAccessoriesListChangedCallback
                0x000000000003d3b0       0x4c /home/heratom/Firefly-project/out/arsdk-native/build/libARCommands/obj/gen/Sources/ARCOMMANDS_Decoder.c.o
                0x000000000003d3b0                ARCOMMANDS_Decoder_SetCommonAccessoryStateSupportedAccessoriesListChangedCallback
 *fill*         0x000000000003d3fc        0x4 
 .text.ARCOMMANDS_Decoder_SetCommonAccessoryStateAccessoryConfigChangedCallback
                0x000000000003d400       0x4c /home/heratom/Firefly-project/out/arsdk-native/build/libARCommands/obj/gen/Sources/ARCOMMANDS_Decoder.c.o
                0x000000000003d400                ARCOMMANDS_Decoder_SetCommonAccessoryStateAccessoryConfigChangedCallback
 *fill*         0x000000000003d44c        0x4 
 .text.ARCOMMANDS_Decoder_SetCommonAccessoryStateAccessoryConfigModificationEnabledCallback
                0x000000000003d450       0x4c /home/heratom/Firefly-project/out/arsdk-native/build/libARCommands/obj/gen/Sources/ARCOMMANDS_Decoder.c.o
                0x000000000003d450                ARCOMMANDS_Decoder_SetCommonAccessoryStateAccessoryConfigModificationEnabledCallback
 *fill*         0x000000000003d49c        0x4 
 .text.ARCOMMANDS_Decoder_SetCommonChargerStateMaxChargeRateChangedCallback
                0x000000000003d4a0       0x4c /home/heratom/Firefly-project/out/arsdk-native/build/libARCommands/obj/gen/Sources/ARCOMMANDS_Decoder.c.o
                0x000000000003d4a0                ARCOMMANDS_Decoder_SetCommonChargerStateMaxChargeRateChangedCallback
 *fill*         0x000000000003d4ec        0x4 
 .text.ARCOMMANDS_Decoder_SetCommonChargerStateCurrentChargeStateChangedCallback
                0x000000000003d4f0       0x4c /home/heratom/Firefly-project/out/arsdk-native/build/libARCommands/obj/gen/Sources/ARCOMMANDS_Decoder.c.o
                0x000000000003d4f0                ARCOMMANDS_Decoder_SetCommonChargerStateCurrentChargeStateChangedCallback
 *fill*         0x000000000003d53c        0x4 
 .text.ARCOMMANDS_Decoder_SetCommonChargerStateLastChargeRateChangedCallback
                0x000000000003d540       0x4c /home/heratom/Firefly-project/out/arsdk-native/build/libARCommands/obj/gen/Sources/ARCOMMANDS_Decoder.c.o
                0x000000000003d540                ARCOMMANDS_Decoder_SetCommonChargerStateLastChargeRateChangedCallback
 *fill*         0x000000000003d58c        0x4 
 .text.ARCOMMANDS_Decoder_SetCommonChargerStateChargingInfoCallback
                0x000000000003d590       0x4c /home/heratom/Firefly-project/out/arsdk-native/build/libARCommands/obj/gen/Sources/ARCOMMANDS_Decoder.c.o
                0x000000000003d590                ARCOMMANDS_Decoder_SetCommonChargerStateChargingInfoCallback
 *fill*         0x000000000003d5dc        0x4 
 .text.ARCOMMANDS_Decoder_SetCommonRunStateRunIdChangedCallback
                0x000000000003d5e0       0x4c /home/heratom/Firefly-project/out/arsdk-native/build/libARCommands/obj/gen/Sources/ARCOMMANDS_Decoder.c.o
                0x000000000003d5e0                ARCOMMANDS_Decoder_SetCommonRunStateRunIdChangedCallback
 *fill*         0x000000000003d62c        0x4 
 .text.ARCOMMANDS_Decoder_SetCommonDebugStatsSendPacketCallback
                0x000000000003d630       0x4c /home/heratom/Firefly-project/out/arsdk-native/build/libARCommands/obj/gen/Sources/ARCOMMANDS_Decoder.c.o
                0x000000000003d630                ARCOMMANDS_Decoder_SetCommonDebugStatsSendPacketCallback
 *fill*         0x000000000003d67c        0x4 
 .text.ARCOMMANDS_Decoder_SetCommonDebugStatsStartSendingPacketFromDroneCallback
                0x000000000003d680       0x4c /home/heratom/Firefly-project/out/arsdk-native/build/libARCommands/obj/gen/Sources/ARCOMMANDS_Decoder.c.o
                0x000000000003d680                ARCOMMANDS_Decoder_SetCommonDebugStatsStartSendingPacketFromDroneCallback
 *fill*         0x000000000003d6cc        0x4 
 .text.ARCOMMANDS_Decoder_SetCommonDebugStatsStopSendingPacketFromDroneCallback
                0x000000000003d6d0       0x4c /home/heratom/Firefly-project/out/arsdk-native/build/libARCommands/obj/gen/Sources/ARCOMMANDS_Decoder.c.o
                0x000000000003d6d0                ARCOMMANDS_Decoder_SetCommonDebugStatsStopSendingPacketFromDroneCallback
 *fill*         0x000000000003d71c        0x4 
 .text.ARCOMMANDS_Decoder_SetCommonDebugDebugSettingsGetAllCallback
                0x000000000003d720       0x4c /home/heratom/Firefly-project/out/arsdk-native/build/libARCommands/obj/gen/Sources/ARCOMMANDS_Decoder.c.o
                0x000000000003d720                ARCOMMANDS_Decoder_SetCommonDebugDebugSettingsGetAllCallback
 *fill*         0x000000000003d76c        0x4 
 .text.ARCOMMANDS_Decoder_SetCommonDebugDebugSettingsSetCallback
                0x000000000003d770       0x4c /home/heratom/Firefly-project/out/arsdk-native/build/libARCommands/obj/gen/Sources/ARCOMMANDS_Decoder.c.o
                0x000000000003d770                ARCOMMANDS_Decoder_SetCommonDebugDebugSettingsSetCallback
 *fill*         0x000000000003d7bc        0x4 
 .text.ARCOMMANDS_Decoder_SetCommonDebugStatsEventSendPacketCallback
                0x000000000003d7c0       0x4c /home/heratom/Firefly-project/out/arsdk-native/build/libARCommands/obj/gen/Sources/ARCOMMANDS_Decoder.c.o
                0x000000000003d7c0                ARCOMMANDS_Decoder_SetCommonDebugStatsEventSendPacketCallback
 *fill*         0x000000000003d80c        0x4 
 .text.ARCOMMANDS_Decoder_SetCommonDebugDebugSettingsStateInfoCallback
                0x000000000003d810       0x4c /home/heratom/Firefly-project/out/arsdk-native/build/libARCommands/obj/gen/Sources/ARCOMMANDS_Decoder.c.o
                0x000000000003d810                ARCOMMANDS_Decoder_SetCommonDebugDebugSettingsStateInfoCallback
 *fill*         0x000000000003d85c        0x4 
 .text.ARCOMMANDS_Decoder_SetCommonDebugDebugSettingsStateListChangedCallback
                0x000000000003d860       0x4c /home/heratom/Firefly-project/out/arsdk-native/build/libARCommands/obj/gen/Sources/ARCOMMANDS_Decoder.c.o
                0x000000000003d860                ARCOMMANDS_Decoder_SetCommonDebugDebugSettingsStateListChangedCallback
 *fill*         0x000000000003d8ac        0x4 
 .text.ARCOMMANDS_Decoder_SetProProBoughtFeaturesCallback
                0x000000000003d8b0       0x4c /home/heratom/Firefly-project/out/arsdk-native/build/libARCommands/obj/gen/Sources/ARCOMMANDS_Decoder.c.o
                0x000000000003d8b0                ARCOMMANDS_Decoder_SetProProBoughtFeaturesCallback
 *fill*         0x000000000003d8fc        0x4 
 .text.ARCOMMANDS_Decoder_SetProProResponseCallback
                0x000000000003d900       0x4c /home/heratom/Firefly-project/out/arsdk-native/build/libARCommands/obj/gen/Sources/ARCOMMANDS_Decoder.c.o
                0x000000000003d900                ARCOMMANDS_Decoder_SetProProResponseCallback
 *fill*         0x000000000003d94c        0x4 
 .text.ARCOMMANDS_Decoder_SetProProActivateFeaturesCallback
                0x000000000003d950       0x4c /home/heratom/Firefly-project/out/arsdk-native/build/libARCommands/obj/gen/Sources/ARCOMMANDS_Decoder.c.o
                0x000000000003d950                ARCOMMANDS_Decoder_SetProProActivateFeaturesCallback
 *fill*         0x000000000003d99c        0x4 
 .text.ARCOMMANDS_Decoder_SetProProStateSupportedFeaturesCallback
                0x000000000003d9a0       0x4c /home/heratom/Firefly-project/out/arsdk-native/build/libARCommands/obj/gen/Sources/ARCOMMANDS_Decoder.c.o
                0x000000000003d9a0                ARCOMMANDS_Decoder_SetProProStateSupportedFeaturesCallback
 *fill*         0x000000000003d9ec        0x4 
 .text.ARCOMMANDS_Decoder_SetProProStateFeaturesActivatedCallback
                0x000000000003d9f0       0x4c /home/heratom/Firefly-project/out/arsdk-native/build/libARCommands/obj/gen/Sources/ARCOMMANDS_Decoder.c.o
                0x000000000003d9f0                ARCOMMANDS_Decoder_SetProProStateFeaturesActivatedCallback
 *fill*         0x000000000003da3c        0x4 
 .text.ARCOMMANDS_Decoder_SetProProEventChallengeEventCallback
                0x000000000003da40       0x4c /home/heratom/Firefly-project/out/arsdk-native/build/libARCommands/obj/gen/Sources/ARCOMMANDS_Decoder.c.o
                0x000000000003da40                ARCOMMANDS_Decoder_SetProProEventChallengeEventCallback
 *fill*         0x000000000003da8c        0x4 
 .text.ARCOMMANDS_Decoder_SetWifiScanCallback
                0x000000000003da90       0x4c /home/heratom/Firefly-project/out/arsdk-native/build/libARCommands/obj/gen/Sources/ARCOMMANDS_Decoder.c.o
                0x000000000003da90                ARCOMMANDS_Decoder_SetWifiScanCallback
 *fill*         0x000000000003dadc        0x4 
 .text.ARCOMMANDS_Decoder_SetWifiUpdateAuthorizedChannelsCallback
                0x000000000003dae0       0x4c /home/heratom/Firefly-project/out/arsdk-native/build/libARCommands/obj/gen/Sources/ARCOMMANDS_Decoder.c.o
                0x000000000003dae0                ARCOMMANDS_Decoder_SetWifiUpdateAuthorizedChannelsCallback
 *fill*         0x000000000003db2c        0x4 
 .text.ARCOMMANDS_Decoder_SetWifiSetApChannelCallback
                0x000000000003db30       0x4c /home/heratom/Firefly-project/out/arsdk-native/build/libARCommands/obj/gen/Sources/ARCOMMANDS_Decoder.c.o
                0x000000000003db30                ARCOMMANDS_Decoder_SetWifiSetApChannelCallback
 *fill*         0x000000000003db7c        0x4 
 .text.ARCOMMANDS_Decoder_SetWifiSetSecurityCallback
                0x000000000003db80       0x4c /home/heratom/Firefly-project/out/arsdk-native/build/libARCommands/obj/gen/Sources/ARCOMMANDS_Decoder.c.o
                0x000000000003db80                ARCOMMANDS_Decoder_SetWifiSetSecurityCallback
 *fill*         0x000000000003dbcc        0x4 
 .text.ARCOMMANDS_Decoder_SetWifiSetCountryCallback
                0x000000000003dbd0       0x4c /home/heratom/Firefly-project/out/arsdk-native/build/libARCommands/obj/gen/Sources/ARCOMMANDS_Decoder.c.o
                0x000000000003dbd0                ARCOMMANDS_Decoder_SetWifiSetCountryCallback
 *fill*         0x000000000003dc1c        0x4 
 .text.ARCOMMANDS_Decoder_SetWifiSetEnvironementCallback
                0x000000000003dc20       0x4c /home/heratom/Firefly-project/out/arsdk-native/build/libARCommands/obj/gen/Sources/ARCOMMANDS_Decoder.c.o
                0x000000000003dc20                ARCOMMANDS_Decoder_SetWifiSetEnvironementCallback
 *fill*         0x000000000003dc6c        0x4 
 .text.ARCOMMANDS_Decoder_SetWifiScannedItemCallback
                0x000000000003dc70       0x4c /home/heratom/Firefly-project/out/arsdk-native/build/libARCommands/obj/gen/Sources/ARCOMMANDS_Decoder.c.o
                0x000000000003dc70                ARCOMMANDS_Decoder_SetWifiScannedItemCallback
 *fill*         0x000000000003dcbc        0x4 
 .text.ARCOMMANDS_Decoder_SetWifiAuthorizedChannelCallback
                0x000000000003dcc0       0x4c /home/heratom/Firefly-project/out/arsdk-native/build/libARCommands/obj/gen/Sources/ARCOMMANDS_Decoder.c.o
                0x000000000003dcc0                ARCOMMANDS_Decoder_SetWifiAuthorizedChannelCallback
 *fill*         0x000000000003dd0c        0x4 
 .text.ARCOMMANDS_Decoder_SetWifiApChannelChangedCallback
                0x000000000003dd10       0x4c /home/heratom/Firefly-project/out/arsdk-native/build/libARCommands/obj/gen/Sources/ARCOMMANDS_Decoder.c.o
                0x000000000003dd10                ARCOMMANDS_Decoder_SetWifiApChannelChangedCallback
 *fill*         0x000000000003dd5c        0x4 
 .text.ARCOMMANDS_Decoder_SetWifiSecurityChangedCallback
                0x000000000003dd60       0x4c /home/heratom/Firefly-project/out/arsdk-native/build/libARCommands/obj/gen/Sources/ARCOMMANDS_Decoder.c.o
                0x000000000003dd60                ARCOMMANDS_Decoder_SetWifiSecurityChangedCallback
 *fill*         0x000000000003ddac        0x4 
 .text.ARCOMMANDS_Decoder_SetWifiCountryChangedCallback
                0x000000000003ddb0       0x4c /home/heratom/Firefly-project/out/arsdk-native/build/libARCommands/obj/gen/Sources/ARCOMMANDS_Decoder.c.o
                0x000000000003ddb0                ARCOMMANDS_Decoder_SetWifiCountryChangedCallback
 *fill*         0x000000000003ddfc        0x4 
 .text.ARCOMMANDS_Decoder_SetWifiEnvironementChangedCallback
                0x000000000003de00       0x4c /home/heratom/Firefly-project/out/arsdk-native/build/libARCommands/obj/gen/Sources/ARCOMMANDS_Decoder.c.o
                0x000000000003de00                ARCOMMANDS_Decoder_SetWifiEnvironementChangedCallback
 *fill*         0x000000000003de4c        0x4 
 .text.ARCOMMANDS_Decoder_SetWifiRssiChangedCallback
                0x000000000003de50       0x4c /home/heratom/Firefly-project/out/arsdk-native/build/libARCommands/obj/gen/Sources/ARCOMMANDS_Decoder.c.o
                0x000000000003de50                ARCOMMANDS_Decoder_SetWifiRssiChangedCallback
 *fill*         0x000000000003de9c        0x4 
 .text.ARCOMMANDS_Decoder_DecodeBuffer
                0x000000000003dea0     0xd920 /home/heratom/Firefly-project/out/arsdk-native/build/libARCommands/obj/gen/Sources/ARCOMMANDS_Decoder.c.o
                0x000000000003dea0                ARCOMMANDS_Decoder_DecodeBuffer
 .text.ARCOMMANDS_Decoder_DescribeBuffer
                0x000000000004b7c0    0x112cf /home/heratom/Firefly-project/out/arsdk-native/build/libARCommands/obj/gen/Sources/ARCOMMANDS_Decoder.c.o
                0x000000000004b7c0                ARCOMMANDS_Decoder_DescribeBuffer
 *fill*         0x000000000005ca8f        0x1 
 .text.ARCOMMANDS_Filter_NewFilter
                0x000000000005ca90      0x9a2 /home/heratom/Firefly-project/out/arsdk-native/build/libARCommands/obj/gen/Sources/ARCOMMANDS_Filter.c.o
                0x000000000005ca90                ARCOMMANDS_Filter_NewFilter
 *fill*         0x000000000005d432        0xe 
 .text.ARCOMMANDS_Filter_DeleteFilter
                0x000000000005d440       0x1f /home/heratom/Firefly-project/out/arsdk-native/build/libARCommands/obj/gen/Sources/ARCOMMANDS_Filter.c.o
                0x000000000005d440                ARCOMMANDS_Filter_DeleteFilter
 *fill*         0x000000000005d45f        0x1 
 .text.ARCOMMANDS_Filter_FilterCommand
                0x000000000005d460     0x26c3 /home/heratom/Firefly-project/out/arsdk-native/build/libARCommands/obj/gen/Sources/ARCOMMANDS_Filter.c.o
                0x000000000005d460                ARCOMMANDS_Filter_FilterCommand
 *fill*         0x000000000005fb23        0xd 
 .text.ARCOMMANDS_Filter_SetGenericBehavior
                0x000000000005fb30       0x28 /home/heratom/Firefly-project/out/arsdk-native/build/libARCommands/obj/gen/Sources/ARCOMMANDS_Filter.c.o
                0x000000000005fb30                ARCOMMANDS_Filter_SetGenericBehavior
 *fill*         0x000000000005fb58        0x8 
 .text.ARCOMMANDS_Filter_SetGenericDefaultBehavior
                0x000000000005fb60       0x28 /home/heratom/Firefly-project/out/arsdk-native/build/libARCommands/obj/gen/Sources/ARCOMMANDS_Filter.c.o
                0x000000000005fb60                ARCOMMANDS_Filter_SetGenericDefaultBehavior
 *fill*         0x000000000005fb88        0x8 
 .text.ARCOMMANDS_Filter_SetARDrone3Behavior
                0x000000000005fb90      0x2db /home/heratom/Firefly-project/out/arsdk-native/build/libARCommands/obj/gen/Sources/ARCOMMANDS_Filter.c.o
                0x000000000005fb90                ARCOMMANDS_Filter_SetARDrone3Behavior
 *fill*         0x000000000005fe6b        0x5 
 .text.ARCOMMANDS_Filter_SetARDrone3PilotingBehavior
                0x000000000005fe70       0x44 /home/heratom/Firefly-project/out/arsdk-native/build/libARCommands/obj/gen/Sources/ARCOMMANDS_Filter.c.o
                0x000000000005fe70                ARCOMMANDS_Filter_SetARDrone3PilotingBehavior
 *fill*         0x000000000005feb4        0xc 
 .text.ARCOMMANDS_Filter_SetARDrone3AnimationsBehavior
                0x000000000005fec0       0x29 /home/heratom/Firefly-project/out/arsdk-native/build/libARCommands/obj/gen/Sources/ARCOMMANDS_Filter.c.o
                0x000000000005fec0                ARCOMMANDS_Filter_SetARDrone3AnimationsBehavior
 *fill*         0x000000000005fee9        0x7 
 .text.ARCOMMANDS_Filter_SetARDrone3CameraBehavior
                0x000000000005fef0       0x29 /home/heratom/Firefly-project/out/arsdk-native/build/libARCommands/obj/gen/Sources/ARCOMMANDS_Filter.c.o
                0x000000000005fef0                ARCOMMANDS_Filter_SetARDrone3CameraBehavior
 *fill*         0x000000000005ff19        0x7 
 .text.ARCOMMANDS_Filter_SetARDrone3MediaRecordBehavior
                0x000000000005ff20       0x32 /home/heratom/Firefly-project/out/arsdk-native/build/libARCommands/obj/gen/Sources/ARCOMMANDS_Filter.c.o
                0x000000000005ff20                ARCOMMANDS_Filter_SetARDrone3MediaRecordBehavior
 *fill*         0x000000000005ff52        0xe 
 .text.ARCOMMANDS_Filter_SetARDrone3MediaRecordStateBehavior
                0x000000000005ff60       0x3e /home/heratom/Firefly-project/out/arsdk-native/build/libARCommands/obj/gen/Sources/ARCOMMANDS_Filter.c.o
                0x000000000005ff60                ARCOMMANDS_Filter_SetARDrone3MediaRecordStateBehavior
 *fill*         0x000000000005ff9e        0x2 
 .text.ARCOMMANDS_Filter_SetARDrone3MediaRecordEventBehavior
                0x000000000005ffa0       0x32 /home/heratom/Firefly-project/out/arsdk-native/build/libARCommands/obj/gen/Sources/ARCOMMANDS_Filter.c.o
                0x000000000005ffa0                ARCOMMANDS_Filter_SetARDrone3MediaRecordEventBehavior
 *fill*         0x000000000005ffd2        0xe 
 .text.ARCOMMANDS_Filter_SetARDrone3PilotingStateBehavior
                0x000000000005ffe0       0x5c /home/heratom/Firefly-project/out/arsdk-native/build/libARCommands/obj/gen/Sources/ARCOMMANDS_Filter.c.o
                0x000000000005ffe0                ARCOMMANDS_Filter_SetARDrone3PilotingStateBehavior
 *fill*         0x000000000006003c        0x4 
 .text.ARCOMMANDS_Filter_SetARDrone3PilotingEventBehavior
                0x0000000000060040       0x2c /home/heratom/Firefly-project/out/arsdk-native/build/libARCommands/obj/gen/Sources/ARCOMMANDS_Filter.c.o
                0x0000000000060040                ARCOMMANDS_Filter_SetARDrone3PilotingEventBehavior
 *fill*         0x000000000006006c        0x4 
 .text.ARCOMMANDS_Filter_SetARDrone3NetworkBehavior
                0x0000000000060070       0x2c /home/heratom/Firefly-project/out/arsdk-native/build/libARCommands/obj/gen/Sources/ARCOMMANDS_Filter.c.o
                0x0000000000060070                ARCOMMANDS_Filter_SetARDrone3NetworkBehavior
 *fill*         0x000000000006009c        0x4 
 .text.ARCOMMANDS_Filter_SetARDrone3NetworkStateBehavior
                0x00000000000600a0       0x3e /home/heratom/Firefly-project/out/arsdk-native/build/libARCommands/obj/gen/Sources/ARCOMMANDS_Filter.c.o
                0x00000000000600a0                ARCOMMANDS_Filter_SetARDrone3NetworkStateBehavior
 *fill*         0x00000000000600de        0x2 
 .text.ARCOMMANDS_Filter_SetARDrone3PilotingSettingsBehavior
                0x00000000000600e0       0x65 /home/heratom/Firefly-project/out/arsdk-native/build/libARCommands/obj/gen/Sources/ARCOMMANDS_Filter.c.o
                0x00000000000600e0                ARCOMMANDS_Filter_SetARDrone3PilotingSettingsBehavior
 *fill*         0x0000000000060145        0xb 
 .text.ARCOMMANDS_Filter_SetARDrone3PilotingSettingsStateBehavior
                0x0000000000060150       0x8c /home/heratom/Firefly-project/out/arsdk-native/build/libARCommands/obj/gen/Sources/ARCOMMANDS_Filter.c.o
                0x0000000000060150                ARCOMMANDS_Filter_SetARDrone3PilotingSettingsStateBehavior
 *fill*         0x00000000000601dc        0x4 
 .text.ARCOMMANDS_Filter_SetARDrone3SpeedSettingsBehavior
                0x00000000000601e0       0x44 /home/heratom/Firefly-project/out/arsdk-native/build/libARCommands/obj/gen/Sources/ARCOMMANDS_Filter.c.o
                0x00000000000601e0                ARCOMMANDS_Filter_SetARDrone3SpeedSettingsBehavior
 *fill*         0x0000000000060224        0xc 
 .text.ARCOMMANDS_Filter_SetARDrone3SpeedSettingsStateBehavior
                0x0000000000060230       0x44 /home/heratom/Firefly-project/out/arsdk-native/build/libARCommands/obj/gen/Sources/ARCOMMANDS_Filter.c.o
                0x0000000000060230                ARCOMMANDS_Filter_SetARDrone3SpeedSettingsStateBehavior
 *fill*         0x0000000000060274        0xc 
 .text.ARCOMMANDS_Filter_SetARDrone3NetworkSettingsBehavior
                0x0000000000060280       0x32 /home/heratom/Firefly-project/out/arsdk-native/build/libARCommands/obj/gen/Sources/ARCOMMANDS_Filter.c.o
                0x0000000000060280                ARCOMMANDS_Filter_SetARDrone3NetworkSettingsBehavior
 *fill*         0x00000000000602b2        0xe 
 .text.ARCOMMANDS_Filter_SetARDrone3NetworkSettingsStateBehavior
                0x00000000000602c0       0x38 /home/heratom/Firefly-project/out/arsdk-native/build/libARCommands/obj/gen/Sources/ARCOMMANDS_Filter.c.o
                0x00000000000602c0                ARCOMMANDS_Filter_SetARDrone3NetworkSettingsStateBehavior
 *fill*         0x00000000000602f8        0x8 
 .text.ARCOMMANDS_Filter_SetARDrone3SettingsStateBehavior
                0x0000000000060300       0x50 /home/heratom/Firefly-project/out/arsdk-native/build/libARCommands/obj/gen/Sources/ARCOMMANDS_Filter.c.o
                0x0000000000060300                ARCOMMANDS_Filter_SetARDrone3SettingsStateBehavior
 .text.ARCOMMANDS_Filter_SetARDrone3PictureSettingsBehavior
                0x0000000000060350       0x50 /home/heratom/Firefly-project/out/arsdk-native/build/libARCommands/obj/gen/Sources/ARCOMMANDS_Filter.c.o
                0x0000000000060350                ARCOMMANDS_Filter_SetARDrone3PictureSettingsBehavior
 .text.ARCOMMANDS_Filter_SetARDrone3PictureSettingsStateBehavior
                0x00000000000603a0       0x50 /home/heratom/Firefly-project/out/arsdk-native/build/libARCommands/obj/gen/Sources/ARCOMMANDS_Filter.c.o
                0x00000000000603a0                ARCOMMANDS_Filter_SetARDrone3PictureSettingsStateBehavior
 .text.ARCOMMANDS_Filter_SetARDrone3MediaStreamingBehavior
                0x00000000000603f0       0x2c /home/heratom/Firefly-project/out/arsdk-native/build/libARCommands/obj/gen/Sources/ARCOMMANDS_Filter.c.o
                0x00000000000603f0                ARCOMMANDS_Filter_SetARDrone3MediaStreamingBehavior
 *fill*         0x000000000006041c        0x4 
 .text.ARCOMMANDS_Filter_SetARDrone3MediaStreamingStateBehavior
                0x0000000000060420       0x2c /home/heratom/Firefly-project/out/arsdk-native/build/libARCommands/obj/gen/Sources/ARCOMMANDS_Filter.c.o
                0x0000000000060420                ARCOMMANDS_Filter_SetARDrone3MediaStreamingStateBehavior
 *fill*         0x000000000006044c        0x4 
 .text.ARCOMMANDS_Filter_SetARDrone3GPSSettingsBehavior
                0x0000000000060450       0x44 /home/heratom/Firefly-project/out/arsdk-native/build/libARCommands/obj/gen/Sources/ARCOMMANDS_Filter.c.o
                0x0000000000060450                ARCOMMANDS_Filter_SetARDrone3GPSSettingsBehavior
 *fill*         0x0000000000060494        0xc 
 .text.ARCOMMANDS_Filter_SetARDrone3GPSSettingsStateBehavior
                0x00000000000604a0       0x4a /home/heratom/Firefly-project/out/arsdk-native/build/libARCommands/obj/gen/Sources/ARCOMMANDS_Filter.c.o
                0x00000000000604a0                ARCOMMANDS_Filter_SetARDrone3GPSSettingsStateBehavior
 *fill*         0x00000000000604ea        0x6 
 .text.ARCOMMANDS_Filter_SetARDrone3CameraStateBehavior
                0x00000000000604f0       0x32 /home/heratom/Firefly-project/out/arsdk-native/build/libARCommands/obj/gen/Sources/ARCOMMANDS_Filter.c.o
                0x00000000000604f0                ARCOMMANDS_Filter_SetARDrone3CameraStateBehavior
 *fill*         0x0000000000060522        0xe 
 .text.ARCOMMANDS_Filter_SetARDrone3AntiflickeringBehavior
                0x0000000000060530       0x32 /home/heratom/Firefly-project/out/arsdk-native/build/libARCommands/obj/gen/Sources/ARCOMMANDS_Filter.c.o
                0x0000000000060530                ARCOMMANDS_Filter_SetARDrone3AntiflickeringBehavior
 *fill*         0x0000000000060562        0xe 
 .text.ARCOMMANDS_Filter_SetARDrone3AntiflickeringStateBehavior
                0x0000000000060570       0x32 /home/heratom/Firefly-project/out/arsdk-native/build/libARCommands/obj/gen/Sources/ARCOMMANDS_Filter.c.o
                0x0000000000060570                ARCOMMANDS_Filter_SetARDrone3AntiflickeringStateBehavior
 *fill*         0x00000000000605a2        0xe 
 .text.ARCOMMANDS_Filter_SetARDrone3GPSStateBehavior
                0x00000000000605b0       0x38 /home/heratom/Firefly-project/out/arsdk-native/build/libARCommands/obj/gen/Sources/ARCOMMANDS_Filter.c.o
                0x00000000000605b0                ARCOMMANDS_Filter_SetARDrone3GPSStateBehavior
 *fill*         0x00000000000605e8        0x8 
 .text.ARCOMMANDS_Filter_SetARDrone3PROStateBehavior
                0x00000000000605f0       0x2c /home/heratom/Firefly-project/out/arsdk-native/build/libARCommands/obj/gen/Sources/ARCOMMANDS_Filter.c.o
                0x00000000000605f0                ARCOMMANDS_Filter_SetARDrone3PROStateBehavior
 *fill*         0x000000000006061c        0x4 
 .text.ARCOMMANDS_Filter_SetARDrone3PilotingFlatTrimBehavior
                0x0000000000060620       0x29 /home/heratom/Firefly-project/out/arsdk-native/build/libARCommands/obj/gen/Sources/ARCOMMANDS_Filter.c.o
                0x0000000000060620                ARCOMMANDS_Filter_SetARDrone3PilotingFlatTrimBehavior
 *fill*         0x0000000000060649        0x7 
 .text.ARCOMMANDS_Filter_SetARDrone3PilotingTakeOffBehavior
                0x0000000000060650       0x29 /home/heratom/Firefly-project/out/arsdk-native/build/libARCommands/obj/gen/Sources/ARCOMMANDS_Filter.c.o
                0x0000000000060650                ARCOMMANDS_Filter_SetARDrone3PilotingTakeOffBehavior
 *fill*         0x0000000000060679        0x7 
 .text.ARCOMMANDS_Filter_SetARDrone3PilotingPCMDBehavior
                0x0000000000060680       0x29 /home/heratom/Firefly-project/out/arsdk-native/build/libARCommands/obj/gen/Sources/ARCOMMANDS_Filter.c.o
                0x0000000000060680                ARCOMMANDS_Filter_SetARDrone3PilotingPCMDBehavior
 *fill*         0x00000000000606a9        0x7 
 .text.ARCOMMANDS_Filter_SetARDrone3PilotingLandingBehavior
                0x00000000000606b0       0x29 /home/heratom/Firefly-project/out/arsdk-native/build/libARCommands/obj/gen/Sources/ARCOMMANDS_Filter.c.o
                0x00000000000606b0                ARCOMMANDS_Filter_SetARDrone3PilotingLandingBehavior
 *fill*         0x00000000000606d9        0x7 
 .text.ARCOMMANDS_Filter_SetARDrone3PilotingEmergencyBehavior
                0x00000000000606e0       0x29 /home/heratom/Firefly-project/out/arsdk-native/build/libARCommands/obj/gen/Sources/ARCOMMANDS_Filter.c.o
                0x00000000000606e0                ARCOMMANDS_Filter_SetARDrone3PilotingEmergencyBehavior
 *fill*         0x0000000000060709        0x7 
 .text.ARCOMMANDS_Filter_SetARDrone3PilotingNavigateHomeBehavior
                0x0000000000060710       0x29 /home/heratom/Firefly-project/out/arsdk-native/build/libARCommands/obj/gen/Sources/ARCOMMANDS_Filter.c.o
                0x0000000000060710                ARCOMMANDS_Filter_SetARDrone3PilotingNavigateHomeBehavior
 *fill*         0x0000000000060739        0x7 
 .text.ARCOMMANDS_Filter_SetARDrone3PilotingAutoTakeOffModeBehavior
                0x0000000000060740       0x29 /home/heratom/Firefly-project/out/arsdk-native/build/libARCommands/obj/gen/Sources/ARCOMMANDS_Filter.c.o
                0x0000000000060740                ARCOMMANDS_Filter_SetARDrone3PilotingAutoTakeOffModeBehavior
 *fill*         0x0000000000060769        0x7 
 .text.ARCOMMANDS_Filter_SetARDrone3PilotingMoveByBehavior
                0x0000000000060770       0x29 /home/heratom/Firefly-project/out/arsdk-native/build/libARCommands/obj/gen/Sources/ARCOMMANDS_Filter.c.o
                0x0000000000060770                ARCOMMANDS_Filter_SetARDrone3PilotingMoveByBehavior
 *fill*         0x0000000000060799        0x7 
 .text.ARCOMMANDS_Filter_SetARDrone3PilotingUserTakeOffBehavior
                0x00000000000607a0       0x29 /home/heratom/Firefly-project/out/arsdk-native/build/libARCommands/obj/gen/Sources/ARCOMMANDS_Filter.c.o
                0x00000000000607a0                ARCOMMANDS_Filter_SetARDrone3PilotingUserTakeOffBehavior
 *fill*         0x00000000000607c9        0x7 
 .text.ARCOMMANDS_Filter_SetARDrone3PilotingCircleBehavior
                0x00000000000607d0       0x29 /home/heratom/Firefly-project/out/arsdk-native/build/libARCommands/obj/gen/Sources/ARCOMMANDS_Filter.c.o
                0x00000000000607d0                ARCOMMANDS_Filter_SetARDrone3PilotingCircleBehavior
 *fill*         0x00000000000607f9        0x7 
 .text.ARCOMMANDS_Filter_SetARDrone3AnimationsFlipBehavior
                0x0000000000060800       0x29 /home/heratom/Firefly-project/out/arsdk-native/build/libARCommands/obj/gen/Sources/ARCOMMANDS_Filter.c.o
                0x0000000000060800                ARCOMMANDS_Filter_SetARDrone3AnimationsFlipBehavior
 *fill*         0x0000000000060829        0x7 
 .text.ARCOMMANDS_Filter_SetARDrone3CameraOrientationBehavior
                0x0000000000060830       0x29 /home/heratom/Firefly-project/out/arsdk-native/build/libARCommands/obj/gen/Sources/ARCOMMANDS_Filter.c.o
                0x0000000000060830                ARCOMMANDS_Filter_SetARDrone3CameraOrientationBehavior
 *fill*         0x0000000000060859        0x7 
 .text.ARCOMMANDS_Filter_SetARDrone3MediaRecordPictureBehavior
                0x0000000000060860       0x29 /home/heratom/Firefly-project/out/arsdk-native/build/libARCommands/obj/gen/Sources/ARCOMMANDS_Filter.c.o
                0x0000000000060860                ARCOMMANDS_Filter_SetARDrone3MediaRecordPictureBehavior
 *fill*         0x0000000000060889        0x7 
 .text.ARCOMMANDS_Filter_SetARDrone3MediaRecordVideoBehavior
                0x0000000000060890       0x29 /home/heratom/Firefly-project/out/arsdk-native/build/libARCommands/obj/gen/Sources/ARCOMMANDS_Filter.c.o
                0x0000000000060890                ARCOMMANDS_Filter_SetARDrone3MediaRecordVideoBehavior
 *fill*         0x00000000000608b9        0x7 
 .text.ARCOMMANDS_Filter_SetARDrone3MediaRecordPictureV2Behavior
                0x00000000000608c0       0x29 /home/heratom/Firefly-project/out/arsdk-native/build/libARCommands/obj/gen/Sources/ARCOMMANDS_Filter.c.o
                0x00000000000608c0                ARCOMMANDS_Filter_SetARDrone3MediaRecordPictureV2Behavior
 *fill*         0x00000000000608e9        0x7 
 .text.ARCOMMANDS_Filter_SetARDrone3MediaRecordVideoV2Behavior
                0x00000000000608f0       0x29 /home/heratom/Firefly-project/out/arsdk-native/build/libARCommands/obj/gen/Sources/ARCOMMANDS_Filter.c.o
                0x00000000000608f0                ARCOMMANDS_Filter_SetARDrone3MediaRecordVideoV2Behavior
 *fill*         0x0000000000060919        0x7 
 .text.ARCOMMANDS_Filter_SetARDrone3NetworkWifiScanBehavior
                0x0000000000060920       0x29 /home/heratom/Firefly-project/out/arsdk-native/build/libARCommands/obj/gen/Sources/ARCOMMANDS_Filter.c.o
                0x0000000000060920                ARCOMMANDS_Filter_SetARDrone3NetworkWifiScanBehavior
 *fill*         0x0000000000060949        0x7 
 .text.ARCOMMANDS_Filter_SetARDrone3NetworkWifiAuthChannelBehavior
                0x0000000000060950       0x29 /home/heratom/Firefly-project/out/arsdk-native/build/libARCommands/obj/gen/Sources/ARCOMMANDS_Filter.c.o
                0x0000000000060950                ARCOMMANDS_Filter_SetARDrone3NetworkWifiAuthChannelBehavior
 *fill*         0x0000000000060979        0x7 
 .text.ARCOMMANDS_Filter_SetARDrone3PilotingSettingsMaxAltitudeBehavior
                0x0000000000060980       0x29 /home/heratom/Firefly-project/out/arsdk-native/build/libARCommands/obj/gen/Sources/ARCOMMANDS_Filter.c.o
                0x0000000000060980                ARCOMMANDS_Filter_SetARDrone3PilotingSettingsMaxAltitudeBehavior
 *fill*         0x00000000000609a9        0x7 
 .text.ARCOMMANDS_Filter_SetARDrone3PilotingSettingsMaxTiltBehavior
                0x00000000000609b0       0x29 /home/heratom/Firefly-project/out/arsdk-native/build/libARCommands/obj/gen/Sources/ARCOMMANDS_Filter.c.o
                0x00000000000609b0                ARCOMMANDS_Filter_SetARDrone3PilotingSettingsMaxTiltBehavior
 *fill*         0x00000000000609d9        0x7 
 .text.ARCOMMANDS_Filter_SetARDrone3PilotingSettingsAbsolutControlBehavior
                0x00000000000609e0       0x29 /home/heratom/Firefly-project/out/arsdk-native/build/libARCommands/obj/gen/Sources/ARCOMMANDS_Filter.c.o
                0x00000000000609e0                ARCOMMANDS_Filter_SetARDrone3PilotingSettingsAbsolutControlBehavior
 *fill*         0x0000000000060a09        0x7 
 .text.ARCOMMANDS_Filter_SetARDrone3PilotingSettingsMaxDistanceBehavior
                0x0000000000060a10       0x29 /home/heratom/Firefly-project/out/arsdk-native/build/libARCommands/obj/gen/Sources/ARCOMMANDS_Filter.c.o
                0x0000000000060a10                ARCOMMANDS_Filter_SetARDrone3PilotingSettingsMaxDistanceBehavior
 *fill*         0x0000000000060a39        0x7 
 .text.ARCOMMANDS_Filter_SetARDrone3PilotingSettingsNoFlyOverMaxDistanceBehavior
                0x0000000000060a40       0x29 /home/heratom/Firefly-project/out/arsdk-native/build/libARCommands/obj/gen/Sources/ARCOMMANDS_Filter.c.o
                0x0000000000060a40                ARCOMMANDS_Filter_SetARDrone3PilotingSettingsNoFlyOverMaxDistanceBehavior
 *fill*         0x0000000000060a69        0x7 
 .text.ARCOMMANDS_Filter_SetARDrone3PilotingSettingsSetAutonomousFlightMaxHorizontalSpeedBehavior
                0x0000000000060a70       0x29 /home/heratom/Firefly-project/out/arsdk-native/build/libARCommands/obj/gen/Sources/ARCOMMANDS_Filter.c.o
                0x0000000000060a70                ARCOMMANDS_Filter_SetARDrone3PilotingSettingsSetAutonomousFlightMaxHorizontalSpeedBehavior
 *fill*         0x0000000000060a99        0x7 
 .text.ARCOMMANDS_Filter_SetARDrone3PilotingSettingsSetAutonomousFlightMaxVerticalSpeedBehavior
                0x0000000000060aa0       0x29 /home/heratom/Firefly-project/out/arsdk-native/build/libARCommands/obj/gen/Sources/ARCOMMANDS_Filter.c.o
                0x0000000000060aa0                ARCOMMANDS_Filter_SetARDrone3PilotingSettingsSetAutonomousFlightMaxVerticalSpeedBehavior
 *fill*         0x0000000000060ac9        0x7 
 .text.ARCOMMANDS_Filter_SetARDrone3PilotingSettingsSetAutonomousFlightMaxHorizontalAccelerationBehavior
                0x0000000000060ad0       0x29 /home/heratom/Firefly-project/out/arsdk-native/build/libARCommands/obj/gen/Sources/ARCOMMANDS_Filter.c.o
                0x0000000000060ad0                ARCOMMANDS_Filter_SetARDrone3PilotingSettingsSetAutonomousFlightMaxHorizontalAccelerationBehavior
 *fill*         0x0000000000060af9        0x7 
 .text.ARCOMMANDS_Filter_SetARDrone3PilotingSettingsSetAutonomousFlightMaxVerticalAccelerationBehavior
                0x0000000000060b00       0x29 /home/heratom/Firefly-project/out/arsdk-native/build/libARCommands/obj/gen/Sources/ARCOMMANDS_Filter.c.o
                0x0000000000060b00                ARCOMMANDS_Filter_SetARDrone3PilotingSettingsSetAutonomousFlightMaxVerticalAccelerationBehavior
 *fill*         0x0000000000060b29        0x7 
 .text.ARCOMMANDS_Filter_SetARDrone3PilotingSettingsSetAutonomousFlightMaxRotationSpeedBehavior
                0x0000000000060b30       0x29 /home/heratom/Firefly-project/out/arsdk-native/build/libARCommands/obj/gen/Sources/ARCOMMANDS_Filter.c.o
                0x0000000000060b30                ARCOMMANDS_Filter_SetARDrone3PilotingSettingsSetAutonomousFlightMaxRotationSpeedBehavior
 *fill*         0x0000000000060b59        0x7 
 .text.ARCOMMANDS_Filter_SetARDrone3PilotingSettingsBankedTurnBehavior
                0x0000000000060b60       0x29 /home/heratom/Firefly-project/out/arsdk-native/build/libARCommands/obj/gen/Sources/ARCOMMANDS_Filter.c.o
                0x0000000000060b60                ARCOMMANDS_Filter_SetARDrone3PilotingSettingsBankedTurnBehavior
 *fill*         0x0000000000060b89        0x7 
 .text.ARCOMMANDS_Filter_SetARDrone3PilotingSettingsMinAltitudeBehavior
                0x0000000000060b90       0x29 /home/heratom/Firefly-project/out/arsdk-native/build/libARCommands/obj/gen/Sources/ARCOMMANDS_Filter.c.o
                0x0000000000060b90                ARCOMMANDS_Filter_SetARDrone3PilotingSettingsMinAltitudeBehavior
 *fill*         0x0000000000060bb9        0x7 
 .text.ARCOMMANDS_Filter_SetARDrone3PilotingSettingsCirclingDirectionBehavior
                0x0000000000060bc0       0x29 /home/heratom/Firefly-project/out/arsdk-native/build/libARCommands/obj/gen/Sources/ARCOMMANDS_Filter.c.o
                0x0000000000060bc0                ARCOMMANDS_Filter_SetARDrone3PilotingSettingsCirclingDirectionBehavior
 *fill*         0x0000000000060be9        0x7 
 .text.ARCOMMANDS_Filter_SetARDrone3PilotingSettingsCirclingRadiusBehavior
                0x0000000000060bf0       0x2c /home/heratom/Firefly-project/out/arsdk-native/build/libARCommands/obj/gen/Sources/ARCOMMANDS_Filter.c.o
                0x0000000000060bf0                ARCOMMANDS_Filter_SetARDrone3PilotingSettingsCirclingRadiusBehavior
 *fill*         0x0000000000060c1c        0x4 
 .text.ARCOMMANDS_Filter_SetARDrone3PilotingSettingsCirclingAltitudeBehavior
                0x0000000000060c20       0x2c /home/heratom/Firefly-project/out/arsdk-native/build/libARCommands/obj/gen/Sources/ARCOMMANDS_Filter.c.o
                0x0000000000060c20                ARCOMMANDS_Filter_SetARDrone3PilotingSettingsCirclingAltitudeBehavior
 *fill*         0x0000000000060c4c        0x4 
 .text.ARCOMMANDS_Filter_SetARDrone3PilotingSettingsPitchModeBehavior
                0x0000000000060c50       0x2c /home/heratom/Firefly-project/out/arsdk-native/build/libARCommands/obj/gen/Sources/ARCOMMANDS_Filter.c.o
                0x0000000000060c50                ARCOMMANDS_Filter_SetARDrone3PilotingSettingsPitchModeBehavior
 *fill*         0x0000000000060c7c        0x4 
 .text.ARCOMMANDS_Filter_SetARDrone3PilotingSettingsLandingModeBehavior
                0x0000000000060c80       0x2c /home/heratom/Firefly-project/out/arsdk-native/build/libARCommands/obj/gen/Sources/ARCOMMANDS_Filter.c.o
                0x0000000000060c80                ARCOMMANDS_Filter_SetARDrone3PilotingSettingsLandingModeBehavior
 *fill*         0x0000000000060cac        0x4 
 .text.ARCOMMANDS_Filter_SetARDrone3SpeedSettingsMaxVerticalSpeedBehavior
                0x0000000000060cb0       0x2c /home/heratom/Firefly-project/out/arsdk-native/build/libARCommands/obj/gen/Sources/ARCOMMANDS_Filter.c.o
                0x0000000000060cb0                ARCOMMANDS_Filter_SetARDrone3SpeedSettingsMaxVerticalSpeedBehavior
 *fill*         0x0000000000060cdc        0x4 
 .text.ARCOMMANDS_Filter_SetARDrone3SpeedSettingsMaxRotationSpeedBehavior
                0x0000000000060ce0       0x2c /home/heratom/Firefly-project/out/arsdk-native/build/libARCommands/obj/gen/Sources/ARCOMMANDS_Filter.c.o
                0x0000000000060ce0                ARCOMMANDS_Filter_SetARDrone3SpeedSettingsMaxRotationSpeedBehavior
 *fill*         0x0000000000060d0c        0x4 
 .text.ARCOMMANDS_Filter_SetARDrone3SpeedSettingsHullProtectionBehavior
                0x0000000000060d10       0x2c /home/heratom/Firefly-project/out/arsdk-native/build/libARCommands/obj/gen/Sources/ARCOMMANDS_Filter.c.o
                0x0000000000060d10                ARCOMMANDS_Filter_SetARDrone3SpeedSettingsHullProtectionBehavior
 *fill*         0x0000000000060d3c        0x4 
 .text.ARCOMMANDS_Filter_SetARDrone3SpeedSettingsOutdoorBehavior
                0x0000000000060d40       0x2c /home/heratom/Firefly-project/out/arsdk-native/build/libARCommands/obj/gen/Sources/ARCOMMANDS_Filter.c.o
                0x0000000000060d40                ARCOMMANDS_Filter_SetARDrone3SpeedSettingsOutdoorBehavior
 *fill*         0x0000000000060d6c        0x4 
 .text.ARCOMMANDS_Filter_SetARDrone3SpeedSettingsMaxPitchRollRotationSpeedBehavior
                0x0000000000060d70       0x2c /home/heratom/Firefly-project/out/arsdk-native/build/libARCommands/obj/gen/Sources/ARCOMMANDS_Filter.c.o
                0x0000000000060d70                ARCOMMANDS_Filter_SetARDrone3SpeedSettingsMaxPitchRollRotationSpeedBehavior
 *fill*         0x0000000000060d9c        0x4 
 .text.ARCOMMANDS_Filter_SetARDrone3NetworkSettingsWifiSelectionBehavior
                0x0000000000060da0       0x2c /home/heratom/Firefly-project/out/arsdk-native/build/libARCommands/obj/gen/Sources/ARCOMMANDS_Filter.c.o
                0x0000000000060da0                ARCOMMANDS_Filter_SetARDrone3NetworkSettingsWifiSelectionBehavior
 *fill*         0x0000000000060dcc        0x4 
 .text.ARCOMMANDS_Filter_SetARDrone3NetworkSettingsWifiSecurityBehavior
                0x0000000000060dd0       0x2c /home/heratom/Firefly-project/out/arsdk-native/build/libARCommands/obj/gen/Sources/ARCOMMANDS_Filter.c.o
                0x0000000000060dd0                ARCOMMANDS_Filter_SetARDrone3NetworkSettingsWifiSecurityBehavior
 *fill*         0x0000000000060dfc        0x4 
 .text.ARCOMMANDS_Filter_SetARDrone3PictureSettingsPictureFormatSelectionBehavior
                0x0000000000060e00       0x2c /home/heratom/Firefly-project/out/arsdk-native/build/libARCommands/obj/gen/Sources/ARCOMMANDS_Filter.c.o
                0x0000000000060e00                ARCOMMANDS_Filter_SetARDrone3PictureSettingsPictureFormatSelectionBehavior
 *fill*         0x0000000000060e2c        0x4 
 .text.ARCOMMANDS_Filter_SetARDrone3PictureSettingsAutoWhiteBalanceSelectionBehavior
                0x0000000000060e30       0x2c /home/heratom/Firefly-project/out/arsdk-native/build/libARCommands/obj/gen/Sources/ARCOMMANDS_Filter.c.o
                0x0000000000060e30                ARCOMMANDS_Filter_SetARDrone3PictureSettingsAutoWhiteBalanceSelectionBehavior
 *fill*         0x0000000000060e5c        0x4 
 .text.ARCOMMANDS_Filter_SetARDrone3PictureSettingsExpositionSelectionBehavior
                0x0000000000060e60       0x2c /home/heratom/Firefly-project/out/arsdk-native/build/libARCommands/obj/gen/Sources/ARCOMMANDS_Filter.c.o
                0x0000000000060e60                ARCOMMANDS_Filter_SetARDrone3PictureSettingsExpositionSelectionBehavior
 *fill*         0x0000000000060e8c        0x4 
 .text.ARCOMMANDS_Filter_SetARDrone3PictureSettingsSaturationSelectionBehavior
                0x0000000000060e90       0x2c /home/heratom/Firefly-project/out/arsdk-native/build/libARCommands/obj/gen/Sources/ARCOMMANDS_Filter.c.o
                0x0000000000060e90                ARCOMMANDS_Filter_SetARDrone3PictureSettingsSaturationSelectionBehavior
 *fill*         0x0000000000060ebc        0x4 
 .text.ARCOMMANDS_Filter_SetARDrone3PictureSettingsTimelapseSelectionBehavior
                0x0000000000060ec0       0x2c /home/heratom/Firefly-project/out/arsdk-native/build/libARCommands/obj/gen/Sources/ARCOMMANDS_Filter.c.o
                0x0000000000060ec0                ARCOMMANDS_Filter_SetARDrone3PictureSettingsTimelapseSelectionBehavior
 *fill*         0x0000000000060eec        0x4 
 .text.ARCOMMANDS_Filter_SetARDrone3PictureSettingsVideoAutorecordSelectionBehavior
                0x0000000000060ef0       0x2c /home/heratom/Firefly-project/out/arsdk-native/build/libARCommands/obj/gen/Sources/ARCOMMANDS_Filter.c.o
                0x0000000000060ef0                ARCOMMANDS_Filter_SetARDrone3PictureSettingsVideoAutorecordSelectionBehavior
 *fill*         0x0000000000060f1c        0x4 
 .text.ARCOMMANDS_Filter_SetARDrone3PictureSettingsVideoStabilizationModeBehavior
                0x0000000000060f20       0x2c /home/heratom/Firefly-project/out/arsdk-native/build/libARCommands/obj/gen/Sources/ARCOMMANDS_Filter.c.o
                0x0000000000060f20                ARCOMMANDS_Filter_SetARDrone3PictureSettingsVideoStabilizationModeBehavior
 *fill*         0x0000000000060f4c        0x4 
 .text.ARCOMMANDS_Filter_SetARDrone3MediaStreamingVideoEnableBehavior
                0x0000000000060f50       0x2c /home/heratom/Firefly-project/out/arsdk-native/build/libARCommands/obj/gen/Sources/ARCOMMANDS_Filter.c.o
                0x0000000000060f50                ARCOMMANDS_Filter_SetARDrone3MediaStreamingVideoEnableBehavior
 *fill*         0x0000000000060f7c        0x4 
 .text.ARCOMMANDS_Filter_SetARDrone3GPSSettingsSetHomeBehavior
                0x0000000000060f80       0x2c /home/heratom/Firefly-project/out/arsdk-native/build/libARCommands/obj/gen/Sources/ARCOMMANDS_Filter.c.o
                0x0000000000060f80                ARCOMMANDS_Filter_SetARDrone3GPSSettingsSetHomeBehavior
 *fill*         0x0000000000060fac        0x4 
 .text.ARCOMMANDS_Filter_SetARDrone3GPSSettingsResetHomeBehavior
                0x0000000000060fb0       0x2c /home/heratom/Firefly-project/out/arsdk-native/build/libARCommands/obj/gen/Sources/ARCOMMANDS_Filter.c.o
                0x0000000000060fb0                ARCOMMANDS_Filter_SetARDrone3GPSSettingsResetHomeBehavior
 *fill*         0x0000000000060fdc        0x4 
 .text.ARCOMMANDS_Filter_SetARDrone3GPSSettingsSendControllerGPSBehavior
                0x0000000000060fe0       0x2c /home/heratom/Firefly-project/out/arsdk-native/build/libARCommands/obj/gen/Sources/ARCOMMANDS_Filter.c.o
                0x0000000000060fe0                ARCOMMANDS_Filter_SetARDrone3GPSSettingsSendControllerGPSBehavior
 *fill*         0x000000000006100c        0x4 
 .text.ARCOMMANDS_Filter_SetARDrone3GPSSettingsHomeTypeBehavior
                0x0000000000061010       0x2c /home/heratom/Firefly-project/out/arsdk-native/build/libARCommands/obj/gen/Sources/ARCOMMANDS_Filter.c.o
                0x0000000000061010                ARCOMMANDS_Filter_SetARDrone3GPSSettingsHomeTypeBehavior
 *fill*         0x000000000006103c        0x4 
 .text.ARCOMMANDS_Filter_SetARDrone3GPSSettingsReturnHomeDelayBehavior
                0x0000000000061040       0x2c /home/heratom/Firefly-project/out/arsdk-native/build/libARCommands/obj/gen/Sources/ARCOMMANDS_Filter.c.o
                0x0000000000061040                ARCOMMANDS_Filter_SetARDrone3GPSSettingsReturnHomeDelayBehavior
 *fill*         0x000000000006106c        0x4 
 .text.ARCOMMANDS_Filter_SetARDrone3AntiflickeringElectricFrequencyBehavior
                0x0000000000061070       0x2c /home/heratom/Firefly-project/out/arsdk-native/build/libARCommands/obj/gen/Sources/ARCOMMANDS_Filter.c.o
                0x0000000000061070                ARCOMMANDS_Filter_SetARDrone3AntiflickeringElectricFrequencyBehavior
 *fill*         0x000000000006109c        0x4 
 .text.ARCOMMANDS_Filter_SetARDrone3AntiflickeringSetModeBehavior
                0x00000000000610a0       0x2c /home/heratom/Firefly-project/out/arsdk-native/build/libARCommands/obj/gen/Sources/ARCOMMANDS_Filter.c.o
                0x00000000000610a0                ARCOMMANDS_Filter_SetARDrone3AntiflickeringSetModeBehavior
 *fill*         0x00000000000610cc        0x4 
 .text.ARCOMMANDS_Filter_SetARDrone3MediaRecordStatePictureStateChangedBehavior
                0x00000000000610d0       0x2c /home/heratom/Firefly-project/out/arsdk-native/build/libARCommands/obj/gen/Sources/ARCOMMANDS_Filter.c.o
                0x00000000000610d0                ARCOMMANDS_Filter_SetARDrone3MediaRecordStatePictureStateChangedBehavior
 *fill*         0x00000000000610fc        0x4 
 .text.ARCOMMANDS_Filter_SetARDrone3MediaRecordStateVideoStateChangedBehavior
                0x0000000000061100       0x2c /home/heratom/Firefly-project/out/arsdk-native/build/libARCommands/obj/gen/Sources/ARCOMMANDS_Filter.c.o
                0x0000000000061100                ARCOMMANDS_Filter_SetARDrone3MediaRecordStateVideoStateChangedBehavior
 *fill*         0x000000000006112c        0x4 
 .text.ARCOMMANDS_Filter_SetARDrone3MediaRecordStatePictureStateChangedV2Behavior
                0x0000000000061130       0x2c /home/heratom/Firefly-project/out/arsdk-native/build/libARCommands/obj/gen/Sources/ARCOMMANDS_Filter.c.o
                0x0000000000061130                ARCOMMANDS_Filter_SetARDrone3MediaRecordStatePictureStateChangedV2Behavior
 *fill*         0x000000000006115c        0x4 
 .text.ARCOMMANDS_Filter_SetARDrone3MediaRecordStateVideoStateChangedV2Behavior
                0x0000000000061160       0x2c /home/heratom/Firefly-project/out/arsdk-native/build/libARCommands/obj/gen/Sources/ARCOMMANDS_Filter.c.o
                0x0000000000061160                ARCOMMANDS_Filter_SetARDrone3MediaRecordStateVideoStateChangedV2Behavior
 *fill*         0x000000000006118c        0x4 
 .text.ARCOMMANDS_Filter_SetARDrone3MediaRecordEventPictureEventChangedBehavior
                0x0000000000061190       0x2c /home/heratom/Firefly-project/out/arsdk-native/build/libARCommands/obj/gen/Sources/ARCOMMANDS_Filter.c.o
                0x0000000000061190                ARCOMMANDS_Filter_SetARDrone3MediaRecordEventPictureEventChangedBehavior
 *fill*         0x00000000000611bc        0x4 
 .text.ARCOMMANDS_Filter_SetARDrone3MediaRecordEventVideoEventChangedBehavior
                0x00000000000611c0       0x2c /home/heratom/Firefly-project/out/arsdk-native/build/libARCommands/obj/gen/Sources/ARCOMMANDS_Filter.c.o
                0x00000000000611c0                ARCOMMANDS_Filter_SetARDrone3MediaRecordEventVideoEventChangedBehavior
 *fill*         0x00000000000611ec        0x4 
 .text.ARCOMMANDS_Filter_SetARDrone3PilotingStateFlatTrimChangedBehavior
                0x00000000000611f0       0x2c /home/heratom/Firefly-project/out/arsdk-native/build/libARCommands/obj/gen/Sources/ARCOMMANDS_Filter.c.o
                0x00000000000611f0                ARCOMMANDS_Filter_SetARDrone3PilotingStateFlatTrimChangedBehavior
 *fill*         0x000000000006121c        0x4 
 .text.ARCOMMANDS_Filter_SetARDrone3PilotingStateFlyingStateChangedBehavior
                0x0000000000061220       0x2c /home/heratom/Firefly-project/out/arsdk-native/build/libARCommands/obj/gen/Sources/ARCOMMANDS_Filter.c.o
                0x0000000000061220                ARCOMMANDS_Filter_SetARDrone3PilotingStateFlyingStateChangedBehavior
 *fill*         0x000000000006124c        0x4 
 .text.ARCOMMANDS_Filter_SetARDrone3PilotingStateAlertStateChangedBehavior
                0x0000000000061250       0x2c /home/heratom/Firefly-project/out/arsdk-native/build/libARCommands/obj/gen/Sources/ARCOMMANDS_Filter.c.o
                0x0000000000061250                ARCOMMANDS_Filter_SetARDrone3PilotingStateAlertStateChangedBehavior
 *fill*         0x000000000006127c        0x4 
 .text.ARCOMMANDS_Filter_SetARDrone3PilotingStateNavigateHomeStateChangedBehavior
                0x0000000000061280       0x2c /home/heratom/Firefly-project/out/arsdk-native/build/libARCommands/obj/gen/Sources/ARCOMMANDS_Filter.c.o
                0x0000000000061280                ARCOMMANDS_Filter_SetARDrone3PilotingStateNavigateHomeStateChangedBehavior
 *fill*         0x00000000000612ac        0x4 
 .text.ARCOMMANDS_Filter_SetARDrone3PilotingStatePositionChangedBehavior
                0x00000000000612b0       0x2c /home/heratom/Firefly-project/out/arsdk-native/build/libARCommands/obj/gen/Sources/ARCOMMANDS_Filter.c.o
                0x00000000000612b0                ARCOMMANDS_Filter_SetARDrone3PilotingStatePositionChangedBehavior
 *fill*         0x00000000000612dc        0x4 
 .text.ARCOMMANDS_Filter_SetARDrone3PilotingStateSpeedChangedBehavior
                0x00000000000612e0       0x2c /home/heratom/Firefly-project/out/arsdk-native/build/libARCommands/obj/gen/Sources/ARCOMMANDS_Filter.c.o
                0x00000000000612e0                ARCOMMANDS_Filter_SetARDrone3PilotingStateSpeedChangedBehavior
 *fill*         0x000000000006130c        0x4 
 .text.ARCOMMANDS_Filter_SetARDrone3PilotingStateAttitudeChangedBehavior
                0x0000000000061310       0x2c /home/heratom/Firefly-project/out/arsdk-native/build/libARCommands/obj/gen/Sources/ARCOMMANDS_Filter.c.o
                0x0000000000061310                ARCOMMANDS_Filter_SetARDrone3PilotingStateAttitudeChangedBehavior
 *fill*         0x000000000006133c        0x4 
 .text.ARCOMMANDS_Filter_SetARDrone3PilotingStateAutoTakeOffModeChangedBehavior
                0x0000000000061340       0x2c /home/heratom/Firefly-project/out/arsdk-native/build/libARCommands/obj/gen/Sources/ARCOMMANDS_Filter.c.o
                0x0000000000061340                ARCOMMANDS_Filter_SetARDrone3PilotingStateAutoTakeOffModeChangedBehavior
 *fill*         0x000000000006136c        0x4 
 .text.ARCOMMANDS_Filter_SetARDrone3PilotingStateAltitudeChangedBehavior
                0x0000000000061370       0x2c /home/heratom/Firefly-project/out/arsdk-native/build/libARCommands/obj/gen/Sources/ARCOMMANDS_Filter.c.o
                0x0000000000061370                ARCOMMANDS_Filter_SetARDrone3PilotingStateAltitudeChangedBehavior
 *fill*         0x000000000006139c        0x4 
 .text.ARCOMMANDS_Filter_SetARDrone3PilotingEventMoveByEndBehavior
                0x00000000000613a0       0x2c /home/heratom/Firefly-project/out/arsdk-native/build/libARCommands/obj/gen/Sources/ARCOMMANDS_Filter.c.o
                0x00000000000613a0                ARCOMMANDS_Filter_SetARDrone3PilotingEventMoveByEndBehavior
 *fill*         0x00000000000613cc        0x4 
 .text.ARCOMMANDS_Filter_SetARDrone3NetworkStateWifiScanListChangedBehavior
                0x00000000000613d0       0x2c /home/heratom/Firefly-project/out/arsdk-native/build/libARCommands/obj/gen/Sources/ARCOMMANDS_Filter.c.o
                0x00000000000613d0                ARCOMMANDS_Filter_SetARDrone3NetworkStateWifiScanListChangedBehavior
 *fill*         0x00000000000613fc        0x4 
 .text.ARCOMMANDS_Filter_SetARDrone3NetworkStateAllWifiScanChangedBehavior
                0x0000000000061400       0x2c /home/heratom/Firefly-project/out/arsdk-native/build/libARCommands/obj/gen/Sources/ARCOMMANDS_Filter.c.o
                0x0000000000061400                ARCOMMANDS_Filter_SetARDrone3NetworkStateAllWifiScanChangedBehavior
 *fill*         0x000000000006142c        0x4 
 .text.ARCOMMANDS_Filter_SetARDrone3NetworkStateWifiAuthChannelListChangedBehavior
                0x0000000000061430       0x2c /home/heratom/Firefly-project/out/arsdk-native/build/libARCommands/obj/gen/Sources/ARCOMMANDS_Filter.c.o
                0x0000000000061430                ARCOMMANDS_Filter_SetARDrone3NetworkStateWifiAuthChannelListChangedBehavior
 *fill*         0x000000000006145c        0x4 
 .text.ARCOMMANDS_Filter_SetARDrone3NetworkStateAllWifiAuthChannelChangedBehavior
                0x0000000000061460       0x2c /home/heratom/Firefly-project/out/arsdk-native/build/libARCommands/obj/gen/Sources/ARCOMMANDS_Filter.c.o
                0x0000000000061460                ARCOMMANDS_Filter_SetARDrone3NetworkStateAllWifiAuthChannelChangedBehavior
 *fill*         0x000000000006148c        0x4 
 .text.ARCOMMANDS_Filter_SetARDrone3PilotingSettingsStateMaxAltitudeChangedBehavior
                0x0000000000061490       0x2c /home/heratom/Firefly-project/out/arsdk-native/build/libARCommands/obj/gen/Sources/ARCOMMANDS_Filter.c.o
                0x0000000000061490                ARCOMMANDS_Filter_SetARDrone3PilotingSettingsStateMaxAltitudeChangedBehavior
 *fill*         0x00000000000614bc        0x4 
 .text.ARCOMMANDS_Filter_SetARDrone3PilotingSettingsStateMaxTiltChangedBehavior
                0x00000000000614c0       0x2c /home/heratom/Firefly-project/out/arsdk-native/build/libARCommands/obj/gen/Sources/ARCOMMANDS_Filter.c.o
                0x00000000000614c0                ARCOMMANDS_Filter_SetARDrone3PilotingSettingsStateMaxTiltChangedBehavior
 *fill*         0x00000000000614ec        0x4 
 .text.ARCOMMANDS_Filter_SetARDrone3PilotingSettingsStateAbsolutControlChangedBehavior
                0x00000000000614f0       0x2c /home/heratom/Firefly-project/out/arsdk-native/build/libARCommands/obj/gen/Sources/ARCOMMANDS_Filter.c.o
                0x00000000000614f0                ARCOMMANDS_Filter_SetARDrone3PilotingSettingsStateAbsolutControlChangedBehavior
 *fill*         0x000000000006151c        0x4 
 .text.ARCOMMANDS_Filter_SetARDrone3PilotingSettingsStateMaxDistanceChangedBehavior
                0x0000000000061520       0x2c /home/heratom/Firefly-project/out/arsdk-native/build/libARCommands/obj/gen/Sources/ARCOMMANDS_Filter.c.o
                0x0000000000061520                ARCOMMANDS_Filter_SetARDrone3PilotingSettingsStateMaxDistanceChangedBehavior
 *fill*         0x000000000006154c        0x4 
 .text.ARCOMMANDS_Filter_SetARDrone3PilotingSettingsStateNoFlyOverMaxDistanceChangedBehavior
                0x0000000000061550       0x2c /home/heratom/Firefly-project/out/arsdk-native/build/libARCommands/obj/gen/Sources/ARCOMMANDS_Filter.c.o
                0x0000000000061550                ARCOMMANDS_Filter_SetARDrone3PilotingSettingsStateNoFlyOverMaxDistanceChangedBehavior
 *fill*         0x000000000006157c        0x4 
 .text.ARCOMMANDS_Filter_SetARDrone3PilotingSettingsStateAutonomousFlightMaxHorizontalSpeedBehavior
                0x0000000000061580       0x2c /home/heratom/Firefly-project/out/arsdk-native/build/libARCommands/obj/gen/Sources/ARCOMMANDS_Filter.c.o
                0x0000000000061580                ARCOMMANDS_Filter_SetARDrone3PilotingSettingsStateAutonomousFlightMaxHorizontalSpeedBehavior
 *fill*         0x00000000000615ac        0x4 
 .text.ARCOMMANDS_Filter_SetARDrone3PilotingSettingsStateAutonomousFlightMaxVerticalSpeedBehavior
                0x00000000000615b0       0x2c /home/heratom/Firefly-project/out/arsdk-native/build/libARCommands/obj/gen/Sources/ARCOMMANDS_Filter.c.o
                0x00000000000615b0                ARCOMMANDS_Filter_SetARDrone3PilotingSettingsStateAutonomousFlightMaxVerticalSpeedBehavior
 *fill*         0x00000000000615dc        0x4 
 .text.ARCOMMANDS_Filter_SetARDrone3PilotingSettingsStateAutonomousFlightMaxHorizontalAccelerationBehavior
                0x00000000000615e0       0x2c /home/heratom/Firefly-project/out/arsdk-native/build/libARCommands/obj/gen/Sources/ARCOMMANDS_Filter.c.o
                0x00000000000615e0                ARCOMMANDS_Filter_SetARDrone3PilotingSettingsStateAutonomousFlightMaxHorizontalAccelerationBehavior
 *fill*         0x000000000006160c        0x4 
 .text.ARCOMMANDS_Filter_SetARDrone3PilotingSettingsStateAutonomousFlightMaxVerticalAccelerationBehavior
                0x0000000000061610       0x2c /home/heratom/Firefly-project/out/arsdk-native/build/libARCommands/obj/gen/Sources/ARCOMMANDS_Filter.c.o
                0x0000000000061610                ARCOMMANDS_Filter_SetARDrone3PilotingSettingsStateAutonomousFlightMaxVerticalAccelerationBehavior
 *fill*         0x000000000006163c        0x4 
 .text.ARCOMMANDS_Filter_SetARDrone3PilotingSettingsStateAutonomousFlightMaxRotationSpeedBehavior
                0x0000000000061640       0x2c /home/heratom/Firefly-project/out/arsdk-native/build/libARCommands/obj/gen/Sources/ARCOMMANDS_Filter.c.o
                0x0000000000061640                ARCOMMANDS_Filter_SetARDrone3PilotingSettingsStateAutonomousFlightMaxRotationSpeedBehavior
 *fill*         0x000000000006166c        0x4 
 .text.ARCOMMANDS_Filter_SetARDrone3PilotingSettingsStateBankedTurnChangedBehavior
                0x0000000000061670       0x2c /home/heratom/Firefly-project/out/arsdk-native/build/libARCommands/obj/gen/Sources/ARCOMMANDS_Filter.c.o
                0x0000000000061670                ARCOMMANDS_Filter_SetARDrone3PilotingSettingsStateBankedTurnChangedBehavior
 *fill*         0x000000000006169c        0x4 
 .text.ARCOMMANDS_Filter_SetARDrone3PilotingSettingsStateMinAltitudeChangedBehavior
                0x00000000000616a0       0x2c /home/heratom/Firefly-project/out/arsdk-native/build/libARCommands/obj/gen/Sources/ARCOMMANDS_Filter.c.o
                0x00000000000616a0                ARCOMMANDS_Filter_SetARDrone3PilotingSettingsStateMinAltitudeChangedBehavior
 *fill*         0x00000000000616cc        0x4 
 .text.ARCOMMANDS_Filter_SetARDrone3PilotingSettingsStateCirclingDirectionChangedBehavior
                0x00000000000616d0       0x2c /home/heratom/Firefly-project/out/arsdk-native/build/libARCommands/obj/gen/Sources/ARCOMMANDS_Filter.c.o
                0x00000000000616d0                ARCOMMANDS_Filter_SetARDrone3PilotingSettingsStateCirclingDirectionChangedBehavior
 *fill*         0x00000000000616fc        0x4 
 .text.ARCOMMANDS_Filter_SetARDrone3PilotingSettingsStateCirclingRadiusChangedBehavior
                0x0000000000061700       0x2c /home/heratom/Firefly-project/out/arsdk-native/build/libARCommands/obj/gen/Sources/ARCOMMANDS_Filter.c.o
                0x0000000000061700                ARCOMMANDS_Filter_SetARDrone3PilotingSettingsStateCirclingRadiusChangedBehavior
 *fill*         0x000000000006172c        0x4 
 .text.ARCOMMANDS_Filter_SetARDrone3PilotingSettingsStateCirclingAltitudeChangedBehavior
                0x0000000000061730       0x2c /home/heratom/Firefly-project/out/arsdk-native/build/libARCommands/obj/gen/Sources/ARCOMMANDS_Filter.c.o
                0x0000000000061730                ARCOMMANDS_Filter_SetARDrone3PilotingSettingsStateCirclingAltitudeChangedBehavior
 *fill*         0x000000000006175c        0x4 
 .text.ARCOMMANDS_Filter_SetARDrone3PilotingSettingsStatePitchModeChangedBehavior
                0x0000000000061760       0x2c /home/heratom/Firefly-project/out/arsdk-native/build/libARCommands/obj/gen/Sources/ARCOMMANDS_Filter.c.o
                0x0000000000061760                ARCOMMANDS_Filter_SetARDrone3PilotingSettingsStatePitchModeChangedBehavior
 *fill*         0x000000000006178c        0x4 
 .text.ARCOMMANDS_Filter_SetARDrone3PilotingSettingsStateLandingModeChangedBehavior
                0x0000000000061790       0x2c /home/heratom/Firefly-project/out/arsdk-native/build/libARCommands/obj/gen/Sources/ARCOMMANDS_Filter.c.o
                0x0000000000061790                ARCOMMANDS_Filter_SetARDrone3PilotingSettingsStateLandingModeChangedBehavior
 *fill*         0x00000000000617bc        0x4 
 .text.ARCOMMANDS_Filter_SetARDrone3SpeedSettingsStateMaxVerticalSpeedChangedBehavior
                0x00000000000617c0       0x2c /home/heratom/Firefly-project/out/arsdk-native/build/libARCommands/obj/gen/Sources/ARCOMMANDS_Filter.c.o
                0x00000000000617c0                ARCOMMANDS_Filter_SetARDrone3SpeedSettingsStateMaxVerticalSpeedChangedBehavior
 *fill*         0x00000000000617ec        0x4 
 .text.ARCOMMANDS_Filter_SetARDrone3SpeedSettingsStateMaxRotationSpeedChangedBehavior
                0x00000000000617f0       0x2c /home/heratom/Firefly-project/out/arsdk-native/build/libARCommands/obj/gen/Sources/ARCOMMANDS_Filter.c.o
                0x00000000000617f0                ARCOMMANDS_Filter_SetARDrone3SpeedSettingsStateMaxRotationSpeedChangedBehavior
 *fill*         0x000000000006181c        0x4 
 .text.ARCOMMANDS_Filter_SetARDrone3SpeedSettingsStateHullProtectionChangedBehavior
                0x0000000000061820       0x2c /home/heratom/Firefly-project/out/arsdk-native/build/libARCommands/obj/gen/Sources/ARCOMMANDS_Filter.c.o
                0x0000000000061820                ARCOMMANDS_Filter_SetARDrone3SpeedSettingsStateHullProtectionChangedBehavior
 *fill*         0x000000000006184c        0x4 
 .text.ARCOMMANDS_Filter_SetARDrone3SpeedSettingsStateOutdoorChangedBehavior
                0x0000000000061850       0x2c /home/heratom/Firefly-project/out/arsdk-native/build/libARCommands/obj/gen/Sources/ARCOMMANDS_Filter.c.o
                0x0000000000061850                ARCOMMANDS_Filter_SetARDrone3SpeedSettingsStateOutdoorChangedBehavior
 *fill*         0x000000000006187c        0x4 
 .text.ARCOMMANDS_Filter_SetARDrone3SpeedSettingsStateMaxPitchRollRotationSpeedChangedBehavior
                0x0000000000061880       0x2c /home/heratom/Firefly-project/out/arsdk-native/build/libARCommands/obj/gen/Sources/ARCOMMANDS_Filter.c.o
                0x0000000000061880                ARCOMMANDS_Filter_SetARDrone3SpeedSettingsStateMaxPitchRollRotationSpeedChangedBehavior
 *fill*         0x00000000000618ac        0x4 
 .text.ARCOMMANDS_Filter_SetARDrone3NetworkSettingsStateWifiSelectionChangedBehavior
                0x00000000000618b0       0x2c /home/heratom/Firefly-project/out/arsdk-native/build/libARCommands/obj/gen/Sources/ARCOMMANDS_Filter.c.o
                0x00000000000618b0                ARCOMMANDS_Filter_SetARDrone3NetworkSettingsStateWifiSelectionChangedBehavior
 *fill*         0x00000000000618dc        0x4 
 .text.ARCOMMANDS_Filter_SetARDrone3NetworkSettingsStateWifiSecurityChangedBehavior
                0x00000000000618e0       0x2c /home/heratom/Firefly-project/out/arsdk-native/build/libARCommands/obj/gen/Sources/ARCOMMANDS_Filter.c.o
                0x00000000000618e0                ARCOMMANDS_Filter_SetARDrone3NetworkSettingsStateWifiSecurityChangedBehavior
 *fill*         0x000000000006190c        0x4 
 .text.ARCOMMANDS_Filter_SetARDrone3NetworkSettingsStateWifiSecurityBehavior
                0x0000000000061910       0x2c /home/heratom/Firefly-project/out/arsdk-native/build/libARCommands/obj/gen/Sources/ARCOMMANDS_Filter.c.o
                0x0000000000061910                ARCOMMANDS_Filter_SetARDrone3NetworkSettingsStateWifiSecurityBehavior
 *fill*         0x000000000006193c        0x4 
 .text.ARCOMMANDS_Filter_SetARDrone3SettingsStateProductMotorVersionListChangedBehavior
                0x0000000000061940       0x2c /home/heratom/Firefly-project/out/arsdk-native/build/libARCommands/obj/gen/Sources/ARCOMMANDS_Filter.c.o
                0x0000000000061940                ARCOMMANDS_Filter_SetARDrone3SettingsStateProductMotorVersionListChangedBehavior
 *fill*         0x000000000006196c        0x4 
 .text.ARCOMMANDS_Filter_SetARDrone3SettingsStateProductGPSVersionChangedBehavior
                0x0000000000061970       0x2c /home/heratom/Firefly-project/out/arsdk-native/build/libARCommands/obj/gen/Sources/ARCOMMANDS_Filter.c.o
                0x0000000000061970                ARCOMMANDS_Filter_SetARDrone3SettingsStateProductGPSVersionChangedBehavior
 *fill*         0x000000000006199c        0x4 
 .text.ARCOMMANDS_Filter_SetARDrone3SettingsStateMotorErrorStateChangedBehavior
                0x00000000000619a0       0x2c /home/heratom/Firefly-project/out/arsdk-native/build/libARCommands/obj/gen/Sources/ARCOMMANDS_Filter.c.o
                0x00000000000619a0                ARCOMMANDS_Filter_SetARDrone3SettingsStateMotorErrorStateChangedBehavior
 *fill*         0x00000000000619cc        0x4 
 .text.ARCOMMANDS_Filter_SetARDrone3SettingsStateMotorSoftwareVersionChangedBehavior
                0x00000000000619d0       0x2c /home/heratom/Firefly-project/out/arsdk-native/build/libARCommands/obj/gen/Sources/ARCOMMANDS_Filter.c.o
                0x00000000000619d0                ARCOMMANDS_Filter_SetARDrone3SettingsStateMotorSoftwareVersionChangedBehavior
 *fill*         0x00000000000619fc        0x4 
 .text.ARCOMMANDS_Filter_SetARDrone3SettingsStateMotorFlightsStatusChangedBehavior
                0x0000000000061a00       0x2c /home/heratom/Firefly-project/out/arsdk-native/build/libARCommands/obj/gen/Sources/ARCOMMANDS_Filter.c.o
                0x0000000000061a00                ARCOMMANDS_Filter_SetARDrone3SettingsStateMotorFlightsStatusChangedBehavior
 *fill*         0x0000000000061a2c        0x4 
 .text.ARCOMMANDS_Filter_SetARDrone3SettingsStateMotorErrorLastErrorChangedBehavior
                0x0000000000061a30       0x2c /home/heratom/Firefly-project/out/arsdk-native/build/libARCommands/obj/gen/Sources/ARCOMMANDS_Filter.c.o
                0x0000000000061a30                ARCOMMANDS_Filter_SetARDrone3SettingsStateMotorErrorLastErrorChangedBehavior
 *fill*         0x0000000000061a5c        0x4 
 .text.ARCOMMANDS_Filter_SetARDrone3SettingsStateP7IDBehavior
                0x0000000000061a60       0x2c /home/heratom/Firefly-project/out/arsdk-native/build/libARCommands/obj/gen/Sources/ARCOMMANDS_Filter.c.o
                0x0000000000061a60                ARCOMMANDS_Filter_SetARDrone3SettingsStateP7IDBehavior
 *fill*         0x0000000000061a8c        0x4 
 .text.ARCOMMANDS_Filter_SetARDrone3PictureSettingsStatePictureFormatChangedBehavior
                0x0000000000061a90       0x2c /home/heratom/Firefly-project/out/arsdk-native/build/libARCommands/obj/gen/Sources/ARCOMMANDS_Filter.c.o
                0x0000000000061a90                ARCOMMANDS_Filter_SetARDrone3PictureSettingsStatePictureFormatChangedBehavior
 *fill*         0x0000000000061abc        0x4 
 .text.ARCOMMANDS_Filter_SetARDrone3PictureSettingsStateAutoWhiteBalanceChangedBehavior
                0x0000000000061ac0       0x2c /home/heratom/Firefly-project/out/arsdk-native/build/libARCommands/obj/gen/Sources/ARCOMMANDS_Filter.c.o
                0x0000000000061ac0                ARCOMMANDS_Filter_SetARDrone3PictureSettingsStateAutoWhiteBalanceChangedBehavior
 *fill*         0x0000000000061aec        0x4 
 .text.ARCOMMANDS_Filter_SetARDrone3PictureSettingsStateExpositionChangedBehavior
                0x0000000000061af0       0x2c /home/heratom/Firefly-project/out/arsdk-native/build/libARCommands/obj/gen/Sources/ARCOMMANDS_Filter.c.o
                0x0000000000061af0                ARCOMMANDS_Filter_SetARDrone3PictureSettingsStateExpositionChangedBehavior
 *fill*         0x0000000000061b1c        0x4 
 .text.ARCOMMANDS_Filter_SetARDrone3PictureSettingsStateSaturationChangedBehavior
                0x0000000000061b20       0x2c /home/heratom/Firefly-project/out/arsdk-native/build/libARCommands/obj/gen/Sources/ARCOMMANDS_Filter.c.o
                0x0000000000061b20                ARCOMMANDS_Filter_SetARDrone3PictureSettingsStateSaturationChangedBehavior
 *fill*         0x0000000000061b4c        0x4 
 .text.ARCOMMANDS_Filter_SetARDrone3PictureSettingsStateTimelapseChangedBehavior
                0x0000000000061b50       0x2c /home/heratom/Firefly-project/out/arsdk-native/build/libARCommands/obj/gen/Sources/ARCOMMANDS_Filter.c.o
                0x0000000000061b50                ARCOMMANDS_Filter_SetARDrone3PictureSettingsStateTimelapseChangedBehavior
 *fill*         0x0000000000061b7c        0x4 
 .text.ARCOMMANDS_Filter_SetARDrone3PictureSettingsStateVideoAutorecordChangedBehavior
                0x0000000000061b80       0x2c /home/heratom/Firefly-project/out/arsdk-native/build/libARCommands/obj/gen/Sources/ARCOMMANDS_Filter.c.o
                0x0000000000061b80                ARCOMMANDS_Filter_SetARDrone3PictureSettingsStateVideoAutorecordChangedBehavior
 *fill*         0x0000000000061bac        0x4 
 .text.ARCOMMANDS_Filter_SetARDrone3PictureSettingsStateVideoStabilizationModeChangedBehavior
                0x0000000000061bb0       0x2c /home/heratom/Firefly-project/out/arsdk-native/build/libARCommands/obj/gen/Sources/ARCOMMANDS_Filter.c.o
                0x0000000000061bb0                ARCOMMANDS_Filter_SetARDrone3PictureSettingsStateVideoStabilizationModeChangedBehavior
 *fill*         0x0000000000061bdc        0x4 
 .text.ARCOMMANDS_Filter_SetARDrone3MediaStreamingStateVideoEnableChangedBehavior
                0x0000000000061be0       0x2c /home/heratom/Firefly-project/out/arsdk-native/build/libARCommands/obj/gen/Sources/ARCOMMANDS_Filter.c.o
                0x0000000000061be0                ARCOMMANDS_Filter_SetARDrone3MediaStreamingStateVideoEnableChangedBehavior
 *fill*         0x0000000000061c0c        0x4 
 .text.ARCOMMANDS_Filter_SetARDrone3GPSSettingsStateHomeChangedBehavior
                0x0000000000061c10       0x2c /home/heratom/Firefly-project/out/arsdk-native/build/libARCommands/obj/gen/Sources/ARCOMMANDS_Filter.c.o
                0x0000000000061c10                ARCOMMANDS_Filter_SetARDrone3GPSSettingsStateHomeChangedBehavior
 *fill*         0x0000000000061c3c        0x4 
 .text.ARCOMMANDS_Filter_SetARDrone3GPSSettingsStateResetHomeChangedBehavior
                0x0000000000061c40       0x2c /home/heratom/Firefly-project/out/arsdk-native/build/libARCommands/obj/gen/Sources/ARCOMMANDS_Filter.c.o
                0x0000000000061c40                ARCOMMANDS_Filter_SetARDrone3GPSSettingsStateResetHomeChangedBehavior
 *fill*         0x0000000000061c6c        0x4 
 .text.ARCOMMANDS_Filter_SetARDrone3GPSSettingsStateGPSFixStateChangedBehavior
                0x0000000000061c70       0x2c /home/heratom/Firefly-project/out/arsdk-native/build/libARCommands/obj/gen/Sources/ARCOMMANDS_Filter.c.o
                0x0000000000061c70                ARCOMMANDS_Filter_SetARDrone3GPSSettingsStateGPSFixStateChangedBehavior
 *fill*         0x0000000000061c9c        0x4 
 .text.ARCOMMANDS_Filter_SetARDrone3GPSSettingsStateGPSUpdateStateChangedBehavior
                0x0000000000061ca0       0x2c /home/heratom/Firefly-project/out/arsdk-native/build/libARCommands/obj/gen/Sources/ARCOMMANDS_Filter.c.o
                0x0000000000061ca0                ARCOMMANDS_Filter_SetARDrone3GPSSettingsStateGPSUpdateStateChangedBehavior
 *fill*         0x0000000000061ccc        0x4 
 .text.ARCOMMANDS_Filter_SetARDrone3GPSSettingsStateHomeTypeChangedBehavior
                0x0000000000061cd0       0x2c /home/heratom/Firefly-project/out/arsdk-native/build/libARCommands/obj/gen/Sources/ARCOMMANDS_Filter.c.o
                0x0000000000061cd0                ARCOMMANDS_Filter_SetARDrone3GPSSettingsStateHomeTypeChangedBehavior
 *fill*         0x0000000000061cfc        0x4 
 .text.ARCOMMANDS_Filter_SetARDrone3GPSSettingsStateReturnHomeDelayChangedBehavior
                0x0000000000061d00       0x2c /home/heratom/Firefly-project/out/arsdk-native/build/libARCommands/obj/gen/Sources/ARCOMMANDS_Filter.c.o
                0x0000000000061d00                ARCOMMANDS_Filter_SetARDrone3GPSSettingsStateReturnHomeDelayChangedBehavior
 *fill*         0x0000000000061d2c        0x4 
 .text.ARCOMMANDS_Filter_SetARDrone3CameraStateOrientationBehavior
                0x0000000000061d30       0x2c /home/heratom/Firefly-project/out/arsdk-native/build/libARCommands/obj/gen/Sources/ARCOMMANDS_Filter.c.o
                0x0000000000061d30                ARCOMMANDS_Filter_SetARDrone3CameraStateOrientationBehavior
 *fill*         0x0000000000061d5c        0x4 
 .text.ARCOMMANDS_Filter_SetARDrone3CameraStateDefaultCameraOrientationBehavior
                0x0000000000061d60       0x2c /home/heratom/Firefly-project/out/arsdk-native/build/libARCommands/obj/gen/Sources/ARCOMMANDS_Filter.c.o
                0x0000000000061d60                ARCOMMANDS_Filter_SetARDrone3CameraStateDefaultCameraOrientationBehavior
 *fill*         0x0000000000061d8c        0x4 
 .text.ARCOMMANDS_Filter_SetARDrone3AntiflickeringStateElectricFrequencyChangedBehavior
                0x0000000000061d90       0x2c /home/heratom/Firefly-project/out/arsdk-native/build/libARCommands/obj/gen/Sources/ARCOMMANDS_Filter.c.o
                0x0000000000061d90                ARCOMMANDS_Filter_SetARDrone3AntiflickeringStateElectricFrequencyChangedBehavior
 *fill*         0x0000000000061dbc        0x4 
 .text.ARCOMMANDS_Filter_SetARDrone3AntiflickeringStateModeChangedBehavior
                0x0000000000061dc0       0x2c /home/heratom/Firefly-project/out/arsdk-native/build/libARCommands/obj/gen/Sources/ARCOMMANDS_Filter.c.o
                0x0000000000061dc0                ARCOMMANDS_Filter_SetARDrone3AntiflickeringStateModeChangedBehavior
 *fill*         0x0000000000061dec        0x4 
 .text.ARCOMMANDS_Filter_SetARDrone3GPSStateNumberOfSatelliteChangedBehavior
                0x0000000000061df0       0x2c /home/heratom/Firefly-project/out/arsdk-native/build/libARCommands/obj/gen/Sources/ARCOMMANDS_Filter.c.o
                0x0000000000061df0                ARCOMMANDS_Filter_SetARDrone3GPSStateNumberOfSatelliteChangedBehavior
 *fill*         0x0000000000061e1c        0x4 
 .text.ARCOMMANDS_Filter_SetARDrone3GPSStateHomeTypeAvailabilityChangedBehavior
                0x0000000000061e20       0x2c /home/heratom/Firefly-project/out/arsdk-native/build/libARCommands/obj/gen/Sources/ARCOMMANDS_Filter.c.o
                0x0000000000061e20                ARCOMMANDS_Filter_SetARDrone3GPSStateHomeTypeAvailabilityChangedBehavior
 *fill*         0x0000000000061e4c        0x4 
 .text.ARCOMMANDS_Filter_SetARDrone3GPSStateHomeTypeChosenChangedBehavior
                0x0000000000061e50       0x2c /home/heratom/Firefly-project/out/arsdk-native/build/libARCommands/obj/gen/Sources/ARCOMMANDS_Filter.c.o
                0x0000000000061e50                ARCOMMANDS_Filter_SetARDrone3GPSStateHomeTypeChosenChangedBehavior
 *fill*         0x0000000000061e7c        0x4 
 .text.ARCOMMANDS_Filter_SetARDrone3PROStateFeaturesBehavior
                0x0000000000061e80       0x2c /home/heratom/Firefly-project/out/arsdk-native/build/libARCommands/obj/gen/Sources/ARCOMMANDS_Filter.c.o
                0x0000000000061e80                ARCOMMANDS_Filter_SetARDrone3PROStateFeaturesBehavior
 *fill*         0x0000000000061eac        0x4 
 .text.ARCOMMANDS_Filter_SetJumpingSumoBehavior
                0x0000000000061eb0      0x164 /home/heratom/Firefly-project/out/arsdk-native/build/libARCommands/obj/gen/Sources/ARCOMMANDS_Filter.c.o
                0x0000000000061eb0                ARCOMMANDS_Filter_SetJumpingSumoBehavior
 *fill*         0x0000000000062014        0xc 
 .text.ARCOMMANDS_Filter_SetJumpingSumoPilotingBehavior
                0x0000000000062020       0x38 /home/heratom/Firefly-project/out/arsdk-native/build/libARCommands/obj/gen/Sources/ARCOMMANDS_Filter.c.o
                0x0000000000062020                ARCOMMANDS_Filter_SetJumpingSumoPilotingBehavior
 *fill*         0x0000000000062058        0x8 
 .text.ARCOMMANDS_Filter_SetJumpingSumoPilotingStateBehavior
                0x0000000000062060       0x38 /home/heratom/Firefly-project/out/arsdk-native/build/libARCommands/obj/gen/Sources/ARCOMMANDS_Filter.c.o
                0x0000000000062060                ARCOMMANDS_Filter_SetJumpingSumoPilotingStateBehavior
 *fill*         0x0000000000062098        0x8 
 .text.ARCOMMANDS_Filter_SetJumpingSumoAnimationsBehavior
                0x00000000000620a0       0x44 /home/heratom/Firefly-project/out/arsdk-native/build/libARCommands/obj/gen/Sources/ARCOMMANDS_Filter.c.o
                0x00000000000620a0                ARCOMMANDS_Filter_SetJumpingSumoAnimationsBehavior
 *fill*         0x00000000000620e4        0xc 
 .text.ARCOMMANDS_Filter_SetJumpingSumoAnimationsStateBehavior
                0x00000000000620f0       0x38 /home/heratom/Firefly-project/out/arsdk-native/build/libARCommands/obj/gen/Sources/ARCOMMANDS_Filter.c.o
                0x00000000000620f0                ARCOMMANDS_Filter_SetJumpingSumoAnimationsStateBehavior
 *fill*         0x0000000000062128        0x8 
 .text.ARCOMMANDS_Filter_SetJumpingSumoSettingsStateBehavior
                0x0000000000062130       0x2c /home/heratom/Firefly-project/out/arsdk-native/build/libARCommands/obj/gen/Sources/ARCOMMANDS_Filter.c.o
                0x0000000000062130                ARCOMMANDS_Filter_SetJumpingSumoSettingsStateBehavior
 *fill*         0x000000000006215c        0x4 
 .text.ARCOMMANDS_Filter_SetJumpingSumoMediaRecordBehavior
                0x0000000000062160       0x3e /home/heratom/Firefly-project/out/arsdk-native/build/libARCommands/obj/gen/Sources/ARCOMMANDS_Filter.c.o
                0x0000000000062160                ARCOMMANDS_Filter_SetJumpingSumoMediaRecordBehavior
 *fill*         0x000000000006219e        0x2 
 .text.ARCOMMANDS_Filter_SetJumpingSumoMediaRecordStateBehavior
                0x00000000000621a0       0x3e /home/heratom/Firefly-project/out/arsdk-native/build/libARCommands/obj/gen/Sources/ARCOMMANDS_Filter.c.o
                0x00000000000621a0                ARCOMMANDS_Filter_SetJumpingSumoMediaRecordStateBehavior
 *fill*         0x00000000000621de        0x2 
 .text.ARCOMMANDS_Filter_SetJumpingSumoMediaRecordEventBehavior
                0x00000000000621e0       0x32 /home/heratom/Firefly-project/out/arsdk-native/build/libARCommands/obj/gen/Sources/ARCOMMANDS_Filter.c.o
                0x00000000000621e0                ARCOMMANDS_Filter_SetJumpingSumoMediaRecordEventBehavior
 *fill*         0x0000000000062212        0xe 
 .text.ARCOMMANDS_Filter_SetJumpingSumoNetworkSettingsBehavior
                0x0000000000062220       0x2c /home/heratom/Firefly-project/out/arsdk-native/build/libARCommands/obj/gen/Sources/ARCOMMANDS_Filter.c.o
                0x0000000000062220                ARCOMMANDS_Filter_SetJumpingSumoNetworkSettingsBehavior
 *fill*         0x000000000006224c        0x4 
 .text.ARCOMMANDS_Filter_SetJumpingSumoNetworkSettingsStateBehavior
                0x0000000000062250       0x2c /home/heratom/Firefly-project/out/arsdk-native/build/libARCommands/obj/gen/Sources/ARCOMMANDS_Filter.c.o
                0x0000000000062250                ARCOMMANDS_Filter_SetJumpingSumoNetworkSettingsStateBehavior
 *fill*         0x000000000006227c        0x4 
 .text.ARCOMMANDS_Filter_SetJumpingSumoNetworkBehavior
                0x0000000000062280       0x32 /home/heratom/Firefly-project/out/arsdk-native/build/libARCommands/obj/gen/Sources/ARCOMMANDS_Filter.c.o
                0x0000000000062280                ARCOMMANDS_Filter_SetJumpingSumoNetworkBehavior
 *fill*         0x00000000000622b2        0xe 
 .text.ARCOMMANDS_Filter_SetJumpingSumoNetworkStateBehavior
                0x00000000000622c0       0x44 /home/heratom/Firefly-project/out/arsdk-native/build/libARCommands/obj/gen/Sources/ARCOMMANDS_Filter.c.o
                0x00000000000622c0                ARCOMMANDS_Filter_SetJumpingSumoNetworkStateBehavior
 *fill*         0x0000000000062304        0xc 
 .text.ARCOMMANDS_Filter_SetJumpingSumoAudioSettingsBehavior
                0x0000000000062310       0x32 /home/heratom/Firefly-project/out/arsdk-native/build/libARCommands/obj/gen/Sources/ARCOMMANDS_Filter.c.o
                0x0000000000062310                ARCOMMANDS_Filter_SetJumpingSumoAudioSettingsBehavior
 *fill*         0x0000000000062342        0xe 
 .text.ARCOMMANDS_Filter_SetJumpingSumoAudioSettingsStateBehavior
                0x0000000000062350       0x32 /home/heratom/Firefly-project/out/arsdk-native/build/libARCommands/obj/gen/Sources/ARCOMMANDS_Filter.c.o
                0x0000000000062350                ARCOMMANDS_Filter_SetJumpingSumoAudioSettingsStateBehavior
 *fill*         0x0000000000062382        0xe 
 .text.ARCOMMANDS_Filter_SetJumpingSumoRoadPlanBehavior
                0x0000000000062390       0x3e /home/heratom/Firefly-project/out/arsdk-native/build/libARCommands/obj/gen/Sources/ARCOMMANDS_Filter.c.o
                0x0000000000062390                ARCOMMANDS_Filter_SetJumpingSumoRoadPlanBehavior
 *fill*         0x00000000000623ce        0x2 
 .text.ARCOMMANDS_Filter_SetJumpingSumoRoadPlanStateBehavior
                0x00000000000623d0       0x44 /home/heratom/Firefly-project/out/arsdk-native/build/libARCommands/obj/gen/Sources/ARCOMMANDS_Filter.c.o
                0x00000000000623d0                ARCOMMANDS_Filter_SetJumpingSumoRoadPlanStateBehavior
 *fill*         0x0000000000062414        0xc 
 .text.ARCOMMANDS_Filter_SetJumpingSumoSpeedSettingsBehavior
                0x0000000000062420       0x2c /home/heratom/Firefly-project/out/arsdk-native/build/libARCommands/obj/gen/Sources/ARCOMMANDS_Filter.c.o
                0x0000000000062420                ARCOMMANDS_Filter_SetJumpingSumoSpeedSettingsBehavior
 *fill*         0x000000000006244c        0x4 
 .text.ARCOMMANDS_Filter_SetJumpingSumoSpeedSettingsStateBehavior
                0x0000000000062450       0x2c /home/heratom/Firefly-project/out/arsdk-native/build/libARCommands/obj/gen/Sources/ARCOMMANDS_Filter.c.o
                0x0000000000062450                ARCOMMANDS_Filter_SetJumpingSumoSpeedSettingsStateBehavior
 *fill*         0x000000000006247c        0x4 
 .text.ARCOMMANDS_Filter_SetJumpingSumoMediaStreamingBehavior
                0x0000000000062480       0x2c /home/heratom/Firefly-project/out/arsdk-native/build/libARCommands/obj/gen/Sources/ARCOMMANDS_Filter.c.o
                0x0000000000062480                ARCOMMANDS_Filter_SetJumpingSumoMediaStreamingBehavior
 *fill*         0x00000000000624ac        0x4 
 .text.ARCOMMANDS_Filter_SetJumpingSumoMediaStreamingStateBehavior
                0x00000000000624b0       0x2c /home/heratom/Firefly-project/out/arsdk-native/build/libARCommands/obj/gen/Sources/ARCOMMANDS_Filter.c.o
                0x00000000000624b0                ARCOMMANDS_Filter_SetJumpingSumoMediaStreamingStateBehavior
 *fill*         0x00000000000624dc        0x4 
 .text.ARCOMMANDS_Filter_SetJumpingSumoVideoSettingsBehavior
                0x00000000000624e0       0x2c /home/heratom/Firefly-project/out/arsdk-native/build/libARCommands/obj/gen/Sources/ARCOMMANDS_Filter.c.o
                0x00000000000624e0                ARCOMMANDS_Filter_SetJumpingSumoVideoSettingsBehavior
 *fill*         0x000000000006250c        0x4 
 .text.ARCOMMANDS_Filter_SetJumpingSumoVideoSettingsStateBehavior
                0x0000000000062510       0x2c /home/heratom/Firefly-project/out/arsdk-native/build/libARCommands/obj/gen/Sources/ARCOMMANDS_Filter.c.o
                0x0000000000062510                ARCOMMANDS_Filter_SetJumpingSumoVideoSettingsStateBehavior
 *fill*         0x000000000006253c        0x4 
 .text.ARCOMMANDS_Filter_SetJumpingSumoPilotingPCMDBehavior
                0x0000000000062540       0x2c /home/heratom/Firefly-project/out/arsdk-native/build/libARCommands/obj/gen/Sources/ARCOMMANDS_Filter.c.o
                0x0000000000062540                ARCOMMANDS_Filter_SetJumpingSumoPilotingPCMDBehavior
 *fill*         0x000000000006256c        0x4 
 .text.ARCOMMANDS_Filter_SetJumpingSumoPilotingPostureBehavior
                0x0000000000062570       0x2c /home/heratom/Firefly-project/out/arsdk-native/build/libARCommands/obj/gen/Sources/ARCOMMANDS_Filter.c.o
                0x0000000000062570                ARCOMMANDS_Filter_SetJumpingSumoPilotingPostureBehavior
 *fill*         0x000000000006259c        0x4 
 .text.ARCOMMANDS_Filter_SetJumpingSumoPilotingAddCapOffsetBehavior
                0x00000000000625a0       0x2c /home/heratom/Firefly-project/out/arsdk-native/build/libARCommands/obj/gen/Sources/ARCOMMANDS_Filter.c.o
                0x00000000000625a0                ARCOMMANDS_Filter_SetJumpingSumoPilotingAddCapOffsetBehavior
 *fill*         0x00000000000625cc        0x4 
 .text.ARCOMMANDS_Filter_SetJumpingSumoAnimationsJumpStopBehavior
                0x00000000000625d0       0x2c /home/heratom/Firefly-project/out/arsdk-native/build/libARCommands/obj/gen/Sources/ARCOMMANDS_Filter.c.o
                0x00000000000625d0                ARCOMMANDS_Filter_SetJumpingSumoAnimationsJumpStopBehavior
 *fill*         0x00000000000625fc        0x4 
 .text.ARCOMMANDS_Filter_SetJumpingSumoAnimationsJumpCancelBehavior
                0x0000000000062600       0x2c /home/heratom/Firefly-project/out/arsdk-native/build/libARCommands/obj/gen/Sources/ARCOMMANDS_Filter.c.o
                0x0000000000062600                ARCOMMANDS_Filter_SetJumpingSumoAnimationsJumpCancelBehavior
 *fill*         0x000000000006262c        0x4 
 .text.ARCOMMANDS_Filter_SetJumpingSumoAnimationsJumpLoadBehavior
                0x0000000000062630       0x2c /home/heratom/Firefly-project/out/arsdk-native/build/libARCommands/obj/gen/Sources/ARCOMMANDS_Filter.c.o
                0x0000000000062630                ARCOMMANDS_Filter_SetJumpingSumoAnimationsJumpLoadBehavior
 *fill*         0x000000000006265c        0x4 
 .text.ARCOMMANDS_Filter_SetJumpingSumoAnimationsJumpBehavior
                0x0000000000062660       0x2c /home/heratom/Firefly-project/out/arsdk-native/build/libARCommands/obj/gen/Sources/ARCOMMANDS_Filter.c.o
                0x0000000000062660                ARCOMMANDS_Filter_SetJumpingSumoAnimationsJumpBehavior
 *fill*         0x000000000006268c        0x4 
 .text.ARCOMMANDS_Filter_SetJumpingSumoAnimationsSimpleAnimationBehavior
                0x0000000000062690       0x2c /home/heratom/Firefly-project/out/arsdk-native/build/libARCommands/obj/gen/Sources/ARCOMMANDS_Filter.c.o
                0x0000000000062690                ARCOMMANDS_Filter_SetJumpingSumoAnimationsSimpleAnimationBehavior
 *fill*         0x00000000000626bc        0x4 
 .text.ARCOMMANDS_Filter_SetJumpingSumoMediaRecordPictureBehavior
                0x00000000000626c0       0x2c /home/heratom/Firefly-project/out/arsdk-native/build/libARCommands/obj/gen/Sources/ARCOMMANDS_Filter.c.o
                0x00000000000626c0                ARCOMMANDS_Filter_SetJumpingSumoMediaRecordPictureBehavior
 *fill*         0x00000000000626ec        0x4 
 .text.ARCOMMANDS_Filter_SetJumpingSumoMediaRecordVideoBehavior
                0x00000000000626f0       0x2c /home/heratom/Firefly-project/out/arsdk-native/build/libARCommands/obj/gen/Sources/ARCOMMANDS_Filter.c.o
                0x00000000000626f0                ARCOMMANDS_Filter_SetJumpingSumoMediaRecordVideoBehavior
 *fill*         0x000000000006271c        0x4 
 .text.ARCOMMANDS_Filter_SetJumpingSumoMediaRecordPictureV2Behavior
                0x0000000000062720       0x2c /home/heratom/Firefly-project/out/arsdk-native/build/libARCommands/obj/gen/Sources/ARCOMMANDS_Filter.c.o
                0x0000000000062720                ARCOMMANDS_Filter_SetJumpingSumoMediaRecordPictureV2Behavior
 *fill*         0x000000000006274c        0x4 
 .text.ARCOMMANDS_Filter_SetJumpingSumoMediaRecordVideoV2Behavior
                0x0000000000062750       0x2c /home/heratom/Firefly-project/out/arsdk-native/build/libARCommands/obj/gen/Sources/ARCOMMANDS_Filter.c.o
                0x0000000000062750                ARCOMMANDS_Filter_SetJumpingSumoMediaRecordVideoV2Behavior
 *fill*         0x000000000006277c        0x4 
 .text.ARCOMMANDS_Filter_SetJumpingSumoNetworkSettingsWifiSelectionBehavior
                0x0000000000062780       0x2c /home/heratom/Firefly-project/out/arsdk-native/build/libARCommands/obj/gen/Sources/ARCOMMANDS_Filter.c.o
                0x0000000000062780                ARCOMMANDS_Filter_SetJumpingSumoNetworkSettingsWifiSelectionBehavior
 *fill*         0x00000000000627ac        0x4 
 .text.ARCOMMANDS_Filter_SetJumpingSumoNetworkWifiScanBehavior
                0x00000000000627b0       0x2c /home/heratom/Firefly-project/out/arsdk-native/build/libARCommands/obj/gen/Sources/ARCOMMANDS_Filter.c.o
                0x00000000000627b0                ARCOMMANDS_Filter_SetJumpingSumoNetworkWifiScanBehavior
 *fill*         0x00000000000627dc        0x4 
 .text.ARCOMMANDS_Filter_SetJumpingSumoNetworkWifiAuthChannelBehavior
                0x00000000000627e0       0x2c /home/heratom/Firefly-project/out/arsdk-native/build/libARCommands/obj/gen/Sources/ARCOMMANDS_Filter.c.o
                0x00000000000627e0                ARCOMMANDS_Filter_SetJumpingSumoNetworkWifiAuthChannelBehavior
 *fill*         0x000000000006280c        0x4 
 .text.ARCOMMANDS_Filter_SetJumpingSumoAudioSettingsMasterVolumeBehavior
                0x0000000000062810       0x2c /home/heratom/Firefly-project/out/arsdk-native/build/libARCommands/obj/gen/Sources/ARCOMMANDS_Filter.c.o
                0x0000000000062810                ARCOMMANDS_Filter_SetJumpingSumoAudioSettingsMasterVolumeBehavior
 *fill*         0x000000000006283c        0x4 
 .text.ARCOMMANDS_Filter_SetJumpingSumoAudioSettingsThemeBehavior
                0x0000000000062840       0x2c /home/heratom/Firefly-project/out/arsdk-native/build/libARCommands/obj/gen/Sources/ARCOMMANDS_Filter.c.o
                0x0000000000062840                ARCOMMANDS_Filter_SetJumpingSumoAudioSettingsThemeBehavior
 *fill*         0x000000000006286c        0x4 
 .text.ARCOMMANDS_Filter_SetJumpingSumoRoadPlanAllScriptsMetadataBehavior
                0x0000000000062870       0x2c /home/heratom/Firefly-project/out/arsdk-native/build/libARCommands/obj/gen/Sources/ARCOMMANDS_Filter.c.o
                0x0000000000062870                ARCOMMANDS_Filter_SetJumpingSumoRoadPlanAllScriptsMetadataBehavior
 *fill*         0x000000000006289c        0x4 
 .text.ARCOMMANDS_Filter_SetJumpingSumoRoadPlanScriptUploadedBehavior
                0x00000000000628a0       0x2c /home/heratom/Firefly-project/out/arsdk-native/build/libARCommands/obj/gen/Sources/ARCOMMANDS_Filter.c.o
                0x00000000000628a0                ARCOMMANDS_Filter_SetJumpingSumoRoadPlanScriptUploadedBehavior
 *fill*         0x00000000000628cc        0x4 
 .text.ARCOMMANDS_Filter_SetJumpingSumoRoadPlanScriptDeleteBehavior
                0x00000000000628d0       0x2c /home/heratom/Firefly-project/out/arsdk-native/build/libARCommands/obj/gen/Sources/ARCOMMANDS_Filter.c.o
                0x00000000000628d0                ARCOMMANDS_Filter_SetJumpingSumoRoadPlanScriptDeleteBehavior
 *fill*         0x00000000000628fc        0x4 
 .text.ARCOMMANDS_Filter_SetJumpingSumoRoadPlanPlayScriptBehavior
                0x0000000000062900       0x2c /home/heratom/Firefly-project/out/arsdk-native/build/libARCommands/obj/gen/Sources/ARCOMMANDS_Filter.c.o
                0x0000000000062900                ARCOMMANDS_Filter_SetJumpingSumoRoadPlanPlayScriptBehavior
 *fill*         0x000000000006292c        0x4 
 .text.ARCOMMANDS_Filter_SetJumpingSumoSpeedSettingsOutdoorBehavior
                0x0000000000062930       0x2c /home/heratom/Firefly-project/out/arsdk-native/build/libARCommands/obj/gen/Sources/ARCOMMANDS_Filter.c.o
                0x0000000000062930                ARCOMMANDS_Filter_SetJumpingSumoSpeedSettingsOutdoorBehavior
 *fill*         0x000000000006295c        0x4 
 .text.ARCOMMANDS_Filter_SetJumpingSumoMediaStreamingVideoEnableBehavior
                0x0000000000062960       0x2c /home/heratom/Firefly-project/out/arsdk-native/build/libARCommands/obj/gen/Sources/ARCOMMANDS_Filter.c.o
                0x0000000000062960                ARCOMMANDS_Filter_SetJumpingSumoMediaStreamingVideoEnableBehavior
 *fill*         0x000000000006298c        0x4 
 .text.ARCOMMANDS_Filter_SetJumpingSumoVideoSettingsAutorecordBehavior
                0x0000000000062990       0x2c /home/heratom/Firefly-project/out/arsdk-native/build/libARCommands/obj/gen/Sources/ARCOMMANDS_Filter.c.o
                0x0000000000062990                ARCOMMANDS_Filter_SetJumpingSumoVideoSettingsAutorecordBehavior
 *fill*         0x00000000000629bc        0x4 
 .text.ARCOMMANDS_Filter_SetJumpingSumoPilotingStatePostureChangedBehavior
                0x00000000000629c0       0x2c /home/heratom/Firefly-project/out/arsdk-native/build/libARCommands/obj/gen/Sources/ARCOMMANDS_Filter.c.o
                0x00000000000629c0                ARCOMMANDS_Filter_SetJumpingSumoPilotingStatePostureChangedBehavior
 *fill*         0x00000000000629ec        0x4 
 .text.ARCOMMANDS_Filter_SetJumpingSumoPilotingStateAlertStateChangedBehavior
                0x00000000000629f0       0x2c /home/heratom/Firefly-project/out/arsdk-native/build/libARCommands/obj/gen/Sources/ARCOMMANDS_Filter.c.o
                0x00000000000629f0                ARCOMMANDS_Filter_SetJumpingSumoPilotingStateAlertStateChangedBehavior
 *fill*         0x0000000000062a1c        0x4 
 .text.ARCOMMANDS_Filter_SetJumpingSumoPilotingStateSpeedChangedBehavior
                0x0000000000062a20       0x2c /home/heratom/Firefly-project/out/arsdk-native/build/libARCommands/obj/gen/Sources/ARCOMMANDS_Filter.c.o
                0x0000000000062a20                ARCOMMANDS_Filter_SetJumpingSumoPilotingStateSpeedChangedBehavior
 *fill*         0x0000000000062a4c        0x4 
 .text.ARCOMMANDS_Filter_SetJumpingSumoAnimationsStateJumpLoadChangedBehavior
                0x0000000000062a50       0x2c /home/heratom/Firefly-project/out/arsdk-native/build/libARCommands/obj/gen/Sources/ARCOMMANDS_Filter.c.o
                0x0000000000062a50                ARCOMMANDS_Filter_SetJumpingSumoAnimationsStateJumpLoadChangedBehavior
 *fill*         0x0000000000062a7c        0x4 
 .text.ARCOMMANDS_Filter_SetJumpingSumoAnimationsStateJumpTypeChangedBehavior
                0x0000000000062a80       0x2c /home/heratom/Firefly-project/out/arsdk-native/build/libARCommands/obj/gen/Sources/ARCOMMANDS_Filter.c.o
                0x0000000000062a80                ARCOMMANDS_Filter_SetJumpingSumoAnimationsStateJumpTypeChangedBehavior
 *fill*         0x0000000000062aac        0x4 
 .text.ARCOMMANDS_Filter_SetJumpingSumoAnimationsStateJumpMotorProblemChangedBehavior
                0x0000000000062ab0       0x2c /home/heratom/Firefly-project/out/arsdk-native/build/libARCommands/obj/gen/Sources/ARCOMMANDS_Filter.c.o
                0x0000000000062ab0                ARCOMMANDS_Filter_SetJumpingSumoAnimationsStateJumpMotorProblemChangedBehavior
 *fill*         0x0000000000062adc        0x4 
 .text.ARCOMMANDS_Filter_SetJumpingSumoSettingsStateProductGPSVersionChangedBehavior
                0x0000000000062ae0       0x2c /home/heratom/Firefly-project/out/arsdk-native/build/libARCommands/obj/gen/Sources/ARCOMMANDS_Filter.c.o
                0x0000000000062ae0                ARCOMMANDS_Filter_SetJumpingSumoSettingsStateProductGPSVersionChangedBehavior
 *fill*         0x0000000000062b0c        0x4 
 .text.ARCOMMANDS_Filter_SetJumpingSumoMediaRecordStatePictureStateChangedBehavior
                0x0000000000062b10       0x2c /home/heratom/Firefly-project/out/arsdk-native/build/libARCommands/obj/gen/Sources/ARCOMMANDS_Filter.c.o
                0x0000000000062b10                ARCOMMANDS_Filter_SetJumpingSumoMediaRecordStatePictureStateChangedBehavior
 *fill*         0x0000000000062b3c        0x4 
 .text.ARCOMMANDS_Filter_SetJumpingSumoMediaRecordStateVideoStateChangedBehavior
                0x0000000000062b40       0x2c /home/heratom/Firefly-project/out/arsdk-native/build/libARCommands/obj/gen/Sources/ARCOMMANDS_Filter.c.o
                0x0000000000062b40                ARCOMMANDS_Filter_SetJumpingSumoMediaRecordStateVideoStateChangedBehavior
 *fill*         0x0000000000062b6c        0x4 
 .text.ARCOMMANDS_Filter_SetJumpingSumoMediaRecordStatePictureStateChangedV2Behavior
                0x0000000000062b70       0x2c /home/heratom/Firefly-project/out/arsdk-native/build/libARCommands/obj/gen/Sources/ARCOMMANDS_Filter.c.o
                0x0000000000062b70                ARCOMMANDS_Filter_SetJumpingSumoMediaRecordStatePictureStateChangedV2Behavior
 *fill*         0x0000000000062b9c        0x4 
 .text.ARCOMMANDS_Filter_SetJumpingSumoMediaRecordStateVideoStateChangedV2Behavior
                0x0000000000062ba0       0x2c /home/heratom/Firefly-project/out/arsdk-native/build/libARCommands/obj/gen/Sources/ARCOMMANDS_Filter.c.o
                0x0000000000062ba0                ARCOMMANDS_Filter_SetJumpingSumoMediaRecordStateVideoStateChangedV2Behavior
 *fill*         0x0000000000062bcc        0x4 
 .text.ARCOMMANDS_Filter_SetJumpingSumoMediaRecordEventPictureEventChangedBehavior
                0x0000000000062bd0       0x2c /home/heratom/Firefly-project/out/arsdk-native/build/libARCommands/obj/gen/Sources/ARCOMMANDS_Filter.c.o
                0x0000000000062bd0                ARCOMMANDS_Filter_SetJumpingSumoMediaRecordEventPictureEventChangedBehavior
 *fill*         0x0000000000062bfc        0x4 
 .text.ARCOMMANDS_Filter_SetJumpingSumoMediaRecordEventVideoEventChangedBehavior
                0x0000000000062c00       0x2c /home/heratom/Firefly-project/out/arsdk-native/build/libARCommands/obj/gen/Sources/ARCOMMANDS_Filter.c.o
                0x0000000000062c00                ARCOMMANDS_Filter_SetJumpingSumoMediaRecordEventVideoEventChangedBehavior
 *fill*         0x0000000000062c2c        0x4 
 .text.ARCOMMANDS_Filter_SetJumpingSumoNetworkSettingsStateWifiSelectionChangedBehavior
                0x0000000000062c30       0x2c /home/heratom/Firefly-project/out/arsdk-native/build/libARCommands/obj/gen/Sources/ARCOMMANDS_Filter.c.o
                0x0000000000062c30                ARCOMMANDS_Filter_SetJumpingSumoNetworkSettingsStateWifiSelectionChangedBehavior
 *fill*         0x0000000000062c5c        0x4 
 .text.ARCOMMANDS_Filter_SetJumpingSumoNetworkStateWifiScanListChangedBehavior
                0x0000000000062c60       0x2c /home/heratom/Firefly-project/out/arsdk-native/build/libARCommands/obj/gen/Sources/ARCOMMANDS_Filter.c.o
                0x0000000000062c60                ARCOMMANDS_Filter_SetJumpingSumoNetworkStateWifiScanListChangedBehavior
 *fill*         0x0000000000062c8c        0x4 
 .text.ARCOMMANDS_Filter_SetJumpingSumoNetworkStateAllWifiScanChangedBehavior
                0x0000000000062c90       0x2c /home/heratom/Firefly-project/out/arsdk-native/build/libARCommands/obj/gen/Sources/ARCOMMANDS_Filter.c.o
                0x0000000000062c90                ARCOMMANDS_Filter_SetJumpingSumoNetworkStateAllWifiScanChangedBehavior
 *fill*         0x0000000000062cbc        0x4 
 .text.ARCOMMANDS_Filter_SetJumpingSumoNetworkStateWifiAuthChannelListChangedBehavior
                0x0000000000062cc0       0x2c /home/heratom/Firefly-project/out/arsdk-native/build/libARCommands/obj/gen/Sources/ARCOMMANDS_Filter.c.o
                0x0000000000062cc0                ARCOMMANDS_Filter_SetJumpingSumoNetworkStateWifiAuthChannelListChangedBehavior
 *fill*         0x0000000000062cec        0x4 
 .text.ARCOMMANDS_Filter_SetJumpingSumoNetworkStateAllWifiAuthChannelChangedBehavior
                0x0000000000062cf0       0x2c /home/heratom/Firefly-project/out/arsdk-native/build/libARCommands/obj/gen/Sources/ARCOMMANDS_Filter.c.o
                0x0000000000062cf0                ARCOMMANDS_Filter_SetJumpingSumoNetworkStateAllWifiAuthChannelChangedBehavior
 *fill*         0x0000000000062d1c        0x4 
 .text.ARCOMMANDS_Filter_SetJumpingSumoNetworkStateLinkQualityChangedBehavior
                0x0000000000062d20       0x2c /home/heratom/Firefly-project/out/arsdk-native/build/libARCommands/obj/gen/Sources/ARCOMMANDS_Filter.c.o
                0x0000000000062d20                ARCOMMANDS_Filter_SetJumpingSumoNetworkStateLinkQualityChangedBehavior
 *fill*         0x0000000000062d4c        0x4 
 .text.ARCOMMANDS_Filter_SetJumpingSumoAudioSettingsStateMasterVolumeChangedBehavior
                0x0000000000062d50       0x2c /home/heratom/Firefly-project/out/arsdk-native/build/libARCommands/obj/gen/Sources/ARCOMMANDS_Filter.c.o
                0x0000000000062d50                ARCOMMANDS_Filter_SetJumpingSumoAudioSettingsStateMasterVolumeChangedBehavior
 *fill*         0x0000000000062d7c        0x4 
 .text.ARCOMMANDS_Filter_SetJumpingSumoAudioSettingsStateThemeChangedBehavior
                0x0000000000062d80       0x2c /home/heratom/Firefly-project/out/arsdk-native/build/libARCommands/obj/gen/Sources/ARCOMMANDS_Filter.c.o
                0x0000000000062d80                ARCOMMANDS_Filter_SetJumpingSumoAudioSettingsStateThemeChangedBehavior
 *fill*         0x0000000000062dac        0x4 
 .text.ARCOMMANDS_Filter_SetJumpingSumoRoadPlanStateScriptMetadataListChangedBehavior
                0x0000000000062db0       0x2c /home/heratom/Firefly-project/out/arsdk-native/build/libARCommands/obj/gen/Sources/ARCOMMANDS_Filter.c.o
                0x0000000000062db0                ARCOMMANDS_Filter_SetJumpingSumoRoadPlanStateScriptMetadataListChangedBehavior
 *fill*         0x0000000000062ddc        0x4 
 .text.ARCOMMANDS_Filter_SetJumpingSumoRoadPlanStateAllScriptsMetadataChangedBehavior
                0x0000000000062de0       0x2c /home/heratom/Firefly-project/out/arsdk-native/build/libARCommands/obj/gen/Sources/ARCOMMANDS_Filter.c.o
                0x0000000000062de0                ARCOMMANDS_Filter_SetJumpingSumoRoadPlanStateAllScriptsMetadataChangedBehavior
 *fill*         0x0000000000062e0c        0x4 
 .text.ARCOMMANDS_Filter_SetJumpingSumoRoadPlanStateScriptUploadChangedBehavior
                0x0000000000062e10       0x2c /home/heratom/Firefly-project/out/arsdk-native/build/libARCommands/obj/gen/Sources/ARCOMMANDS_Filter.c.o
                0x0000000000062e10                ARCOMMANDS_Filter_SetJumpingSumoRoadPlanStateScriptUploadChangedBehavior
 *fill*         0x0000000000062e3c        0x4 
 .text.ARCOMMANDS_Filter_SetJumpingSumoRoadPlanStateScriptDeleteChangedBehavior
                0x0000000000062e40       0x2c /home/heratom/Firefly-project/out/arsdk-native/build/libARCommands/obj/gen/Sources/ARCOMMANDS_Filter.c.o
                0x0000000000062e40                ARCOMMANDS_Filter_SetJumpingSumoRoadPlanStateScriptDeleteChangedBehavior
 *fill*         0x0000000000062e6c        0x4 
 .text.ARCOMMANDS_Filter_SetJumpingSumoRoadPlanStatePlayScriptChangedBehavior
                0x0000000000062e70       0x2c /home/heratom/Firefly-project/out/arsdk-native/build/libARCommands/obj/gen/Sources/ARCOMMANDS_Filter.c.o
                0x0000000000062e70                ARCOMMANDS_Filter_SetJumpingSumoRoadPlanStatePlayScriptChangedBehavior
 *fill*         0x0000000000062e9c        0x4 
 .text.ARCOMMANDS_Filter_SetJumpingSumoSpeedSettingsStateOutdoorChangedBehavior
                0x0000000000062ea0       0x2c /home/heratom/Firefly-project/out/arsdk-native/build/libARCommands/obj/gen/Sources/ARCOMMANDS_Filter.c.o
                0x0000000000062ea0                ARCOMMANDS_Filter_SetJumpingSumoSpeedSettingsStateOutdoorChangedBehavior
 *fill*         0x0000000000062ecc        0x4 
 .text.ARCOMMANDS_Filter_SetJumpingSumoMediaStreamingStateVideoEnableChangedBehavior
                0x0000000000062ed0       0x2c /home/heratom/Firefly-project/out/arsdk-native/build/libARCommands/obj/gen/Sources/ARCOMMANDS_Filter.c.o
                0x0000000000062ed0                ARCOMMANDS_Filter_SetJumpingSumoMediaStreamingStateVideoEnableChangedBehavior
 *fill*         0x0000000000062efc        0x4 
 .text.ARCOMMANDS_Filter_SetJumpingSumoVideoSettingsStateAutorecordChangedBehavior
                0x0000000000062f00       0x2c /home/heratom/Firefly-project/out/arsdk-native/build/libARCommands/obj/gen/Sources/ARCOMMANDS_Filter.c.o
                0x0000000000062f00                ARCOMMANDS_Filter_SetJumpingSumoVideoSettingsStateAutorecordChangedBehavior
 *fill*         0x0000000000062f2c        0x4 
 .text.ARCOMMANDS_Filter_SetMiniDroneBehavior
                0x0000000000062f30      0x10a /home/heratom/Firefly-project/out/arsdk-native/build/libARCommands/obj/gen/Sources/ARCOMMANDS_Filter.c.o
                0x0000000000062f30                ARCOMMANDS_Filter_SetMiniDroneBehavior
 *fill*         0x000000000006303a        0x6 
 .text.ARCOMMANDS_Filter_SetMiniDronePilotingBehavior
                0x0000000000063040       0x4a /home/heratom/Firefly-project/out/arsdk-native/build/libARCommands/obj/gen/Sources/ARCOMMANDS_Filter.c.o
                0x0000000000063040                ARCOMMANDS_Filter_SetMiniDronePilotingBehavior
 *fill*         0x000000000006308a        0x6 
 .text.ARCOMMANDS_Filter_SetMiniDronePilotingStateBehavior
                0x0000000000063090       0x3e /home/heratom/Firefly-project/out/arsdk-native/build/libARCommands/obj/gen/Sources/ARCOMMANDS_Filter.c.o
                0x0000000000063090                ARCOMMANDS_Filter_SetMiniDronePilotingStateBehavior
 *fill*         0x00000000000630ce        0x2 
 .text.ARCOMMANDS_Filter_SetMiniDroneAnimationsBehavior
                0x00000000000630d0       0x32 /home/heratom/Firefly-project/out/arsdk-native/build/libARCommands/obj/gen/Sources/ARCOMMANDS_Filter.c.o
                0x00000000000630d0                ARCOMMANDS_Filter_SetMiniDroneAnimationsBehavior
 *fill*         0x0000000000063102        0xe 
 .text.ARCOMMANDS_Filter_SetMiniDroneMediaRecordBehavior
                0x0000000000063110       0x32 /home/heratom/Firefly-project/out/arsdk-native/build/libARCommands/obj/gen/Sources/ARCOMMANDS_Filter.c.o
                0x0000000000063110                ARCOMMANDS_Filter_SetMiniDroneMediaRecordBehavior
 *fill*         0x0000000000063142        0xe 
 .text.ARCOMMANDS_Filter_SetMiniDroneMediaRecordStateBehavior
                0x0000000000063150       0x32 /home/heratom/Firefly-project/out/arsdk-native/build/libARCommands/obj/gen/Sources/ARCOMMANDS_Filter.c.o
                0x0000000000063150                ARCOMMANDS_Filter_SetMiniDroneMediaRecordStateBehavior
 *fill*         0x0000000000063182        0xe 
 .text.ARCOMMANDS_Filter_SetMiniDroneMediaRecordEventBehavior
                0x0000000000063190       0x2c /home/heratom/Firefly-project/out/arsdk-native/build/libARCommands/obj/gen/Sources/ARCOMMANDS_Filter.c.o
                0x0000000000063190                ARCOMMANDS_Filter_SetMiniDroneMediaRecordEventBehavior
 *fill*         0x00000000000631bc        0x4 
 .text.ARCOMMANDS_Filter_SetMiniDronePilotingSettingsBehavior
                0x00000000000631c0       0x32 /home/heratom/Firefly-project/out/arsdk-native/build/libARCommands/obj/gen/Sources/ARCOMMANDS_Filter.c.o
                0x00000000000631c0                ARCOMMANDS_Filter_SetMiniDronePilotingSettingsBehavior
 *fill*         0x00000000000631f2        0xe 
 .text.ARCOMMANDS_Filter_SetMiniDronePilotingSettingsStateBehavior
                0x0000000000063200       0x32 /home/heratom/Firefly-project/out/arsdk-native/build/libARCommands/obj/gen/Sources/ARCOMMANDS_Filter.c.o
                0x0000000000063200                ARCOMMANDS_Filter_SetMiniDronePilotingSettingsStateBehavior
 *fill*         0x0000000000063232        0xe 
 .text.ARCOMMANDS_Filter_SetMiniDroneSpeedSettingsBehavior
                0x0000000000063240       0x3e /home/heratom/Firefly-project/out/arsdk-native/build/libARCommands/obj/gen/Sources/ARCOMMANDS_Filter.c.o
                0x0000000000063240                ARCOMMANDS_Filter_SetMiniDroneSpeedSettingsBehavior
 *fill*         0x000000000006327e        0x2 
 .text.ARCOMMANDS_Filter_SetMiniDroneSpeedSettingsStateBehavior
                0x0000000000063280       0x3e /home/heratom/Firefly-project/out/arsdk-native/build/libARCommands/obj/gen/Sources/ARCOMMANDS_Filter.c.o
                0x0000000000063280                ARCOMMANDS_Filter_SetMiniDroneSpeedSettingsStateBehavior
 *fill*         0x00000000000632be        0x2 
 .text.ARCOMMANDS_Filter_SetMiniDroneSettingsBehavior
                0x00000000000632c0       0x2c /home/heratom/Firefly-project/out/arsdk-native/build/libARCommands/obj/gen/Sources/ARCOMMANDS_Filter.c.o
                0x00000000000632c0                ARCOMMANDS_Filter_SetMiniDroneSettingsBehavior
 *fill*         0x00000000000632ec        0x4 
 .text.ARCOMMANDS_Filter_SetMiniDroneSettingsStateBehavior
                0x00000000000632f0       0x38 /home/heratom/Firefly-project/out/arsdk-native/build/libARCommands/obj/gen/Sources/ARCOMMANDS_Filter.c.o
                0x00000000000632f0                ARCOMMANDS_Filter_SetMiniDroneSettingsStateBehavior
 *fill*         0x0000000000063328        0x8 
 .text.ARCOMMANDS_Filter_SetMiniDroneFloodControlStateBehavior
                0x0000000000063330       0x2c /home/heratom/Firefly-project/out/arsdk-native/build/libARCommands/obj/gen/Sources/ARCOMMANDS_Filter.c.o
                0x0000000000063330                ARCOMMANDS_Filter_SetMiniDroneFloodControlStateBehavior
 *fill*         0x000000000006335c        0x4 
 .text.ARCOMMANDS_Filter_SetMiniDroneGPSBehavior
                0x0000000000063360       0x32 /home/heratom/Firefly-project/out/arsdk-native/build/libARCommands/obj/gen/Sources/ARCOMMANDS_Filter.c.o
                0x0000000000063360                ARCOMMANDS_Filter_SetMiniDroneGPSBehavior
 *fill*         0x0000000000063392        0xe 
 .text.ARCOMMANDS_Filter_SetMiniDroneConfigurationBehavior
                0x00000000000633a0       0x32 /home/heratom/Firefly-project/out/arsdk-native/build/libARCommands/obj/gen/Sources/ARCOMMANDS_Filter.c.o
                0x00000000000633a0                ARCOMMANDS_Filter_SetMiniDroneConfigurationBehavior
 *fill*         0x00000000000633d2        0xe 
 .text.ARCOMMANDS_Filter_SetMiniDronePilotingFlatTrimBehavior
                0x00000000000633e0       0x2c /home/heratom/Firefly-project/out/arsdk-native/build/libARCommands/obj/gen/Sources/ARCOMMANDS_Filter.c.o
                0x00000000000633e0                ARCOMMANDS_Filter_SetMiniDronePilotingFlatTrimBehavior
 *fill*         0x000000000006340c        0x4 
 .text.ARCOMMANDS_Filter_SetMiniDronePilotingTakeOffBehavior
                0x0000000000063410       0x2c /home/heratom/Firefly-project/out/arsdk-native/build/libARCommands/obj/gen/Sources/ARCOMMANDS_Filter.c.o
                0x0000000000063410                ARCOMMANDS_Filter_SetMiniDronePilotingTakeOffBehavior
 *fill*         0x000000000006343c        0x4 
 .text.ARCOMMANDS_Filter_SetMiniDronePilotingPCMDBehavior
                0x0000000000063440       0x2c /home/heratom/Firefly-project/out/arsdk-native/build/libARCommands/obj/gen/Sources/ARCOMMANDS_Filter.c.o
                0x0000000000063440                ARCOMMANDS_Filter_SetMiniDronePilotingPCMDBehavior
 *fill*         0x000000000006346c        0x4 
 .text.ARCOMMANDS_Filter_SetMiniDronePilotingLandingBehavior
                0x0000000000063470       0x2c /home/heratom/Firefly-project/out/arsdk-native/build/libARCommands/obj/gen/Sources/ARCOMMANDS_Filter.c.o
                0x0000000000063470                ARCOMMANDS_Filter_SetMiniDronePilotingLandingBehavior
 *fill*         0x000000000006349c        0x4 
 .text.ARCOMMANDS_Filter_SetMiniDronePilotingEmergencyBehavior
                0x00000000000634a0       0x2c /home/heratom/Firefly-project/out/arsdk-native/build/libARCommands/obj/gen/Sources/ARCOMMANDS_Filter.c.o
                0x00000000000634a0                ARCOMMANDS_Filter_SetMiniDronePilotingEmergencyBehavior
 *fill*         0x00000000000634cc        0x4 
 .text.ARCOMMANDS_Filter_SetMiniDronePilotingAutoTakeOffModeBehavior
                0x00000000000634d0       0x2c /home/heratom/Firefly-project/out/arsdk-native/build/libARCommands/obj/gen/Sources/ARCOMMANDS_Filter.c.o
                0x00000000000634d0                ARCOMMANDS_Filter_SetMiniDronePilotingAutoTakeOffModeBehavior
 *fill*         0x00000000000634fc        0x4 
 .text.ARCOMMANDS_Filter_SetMiniDroneAnimationsFlipBehavior
                0x0000000000063500       0x2c /home/heratom/Firefly-project/out/arsdk-native/build/libARCommands/obj/gen/Sources/ARCOMMANDS_Filter.c.o
                0x0000000000063500                ARCOMMANDS_Filter_SetMiniDroneAnimationsFlipBehavior
 *fill*         0x000000000006352c        0x4 
 .text.ARCOMMANDS_Filter_SetMiniDroneAnimationsCapBehavior
                0x0000000000063530       0x2c /home/heratom/Firefly-project/out/arsdk-native/build/libARCommands/obj/gen/Sources/ARCOMMANDS_Filter.c.o
                0x0000000000063530                ARCOMMANDS_Filter_SetMiniDroneAnimationsCapBehavior
 *fill*         0x000000000006355c        0x4 
 .text.ARCOMMANDS_Filter_SetMiniDroneMediaRecordPictureBehavior
                0x0000000000063560       0x2c /home/heratom/Firefly-project/out/arsdk-native/build/libARCommands/obj/gen/Sources/ARCOMMANDS_Filter.c.o
                0x0000000000063560                ARCOMMANDS_Filter_SetMiniDroneMediaRecordPictureBehavior
 *fill*         0x000000000006358c        0x4 
 .text.ARCOMMANDS_Filter_SetMiniDroneMediaRecordPictureV2Behavior
                0x0000000000063590       0x2c /home/heratom/Firefly-project/out/arsdk-native/build/libARCommands/obj/gen/Sources/ARCOMMANDS_Filter.c.o
                0x0000000000063590                ARCOMMANDS_Filter_SetMiniDroneMediaRecordPictureV2Behavior
 *fill*         0x00000000000635bc        0x4 
 .text.ARCOMMANDS_Filter_SetMiniDronePilotingSettingsMaxAltitudeBehavior
                0x00000000000635c0       0x2c /home/heratom/Firefly-project/out/arsdk-native/build/libARCommands/obj/gen/Sources/ARCOMMANDS_Filter.c.o
                0x00000000000635c0                ARCOMMANDS_Filter_SetMiniDronePilotingSettingsMaxAltitudeBehavior
 *fill*         0x00000000000635ec        0x4 
 .text.ARCOMMANDS_Filter_SetMiniDronePilotingSettingsMaxTiltBehavior
                0x00000000000635f0       0x2c /home/heratom/Firefly-project/out/arsdk-native/build/libARCommands/obj/gen/Sources/ARCOMMANDS_Filter.c.o
                0x00000000000635f0                ARCOMMANDS_Filter_SetMiniDronePilotingSettingsMaxTiltBehavior
 *fill*         0x000000000006361c        0x4 
 .text.ARCOMMANDS_Filter_SetMiniDroneSpeedSettingsMaxVerticalSpeedBehavior
                0x0000000000063620       0x2c /home/heratom/Firefly-project/out/arsdk-native/build/libARCommands/obj/gen/Sources/ARCOMMANDS_Filter.c.o
                0x0000000000063620                ARCOMMANDS_Filter_SetMiniDroneSpeedSettingsMaxVerticalSpeedBehavior
 *fill*         0x000000000006364c        0x4 
 .text.ARCOMMANDS_Filter_SetMiniDroneSpeedSettingsMaxRotationSpeedBehavior
                0x0000000000063650       0x2c /home/heratom/Firefly-project/out/arsdk-native/build/libARCommands/obj/gen/Sources/ARCOMMANDS_Filter.c.o
                0x0000000000063650                ARCOMMANDS_Filter_SetMiniDroneSpeedSettingsMaxRotationSpeedBehavior
 *fill*         0x000000000006367c        0x4 
 .text.ARCOMMANDS_Filter_SetMiniDroneSpeedSettingsWheelsBehavior
                0x0000000000063680       0x2c /home/heratom/Firefly-project/out/arsdk-native/build/libARCommands/obj/gen/Sources/ARCOMMANDS_Filter.c.o
                0x0000000000063680                ARCOMMANDS_Filter_SetMiniDroneSpeedSettingsWheelsBehavior
 *fill*         0x00000000000636ac        0x4 
 .text.ARCOMMANDS_Filter_SetMiniDroneSpeedSettingsMaxHorizontalSpeedBehavior
                0x00000000000636b0       0x2c /home/heratom/Firefly-project/out/arsdk-native/build/libARCommands/obj/gen/Sources/ARCOMMANDS_Filter.c.o
                0x00000000000636b0                ARCOMMANDS_Filter_SetMiniDroneSpeedSettingsMaxHorizontalSpeedBehavior
 *fill*         0x00000000000636dc        0x4 
 .text.ARCOMMANDS_Filter_SetMiniDroneSettingsCutOutModeBehavior
                0x00000000000636e0       0x2c /home/heratom/Firefly-project/out/arsdk-native/build/libARCommands/obj/gen/Sources/ARCOMMANDS_Filter.c.o
                0x00000000000636e0                ARCOMMANDS_Filter_SetMiniDroneSettingsCutOutModeBehavior
 *fill*         0x000000000006370c        0x4 
 .text.ARCOMMANDS_Filter_SetMiniDroneGPSControllerLatitudeForRunBehavior
                0x0000000000063710       0x2c /home/heratom/Firefly-project/out/arsdk-native/build/libARCommands/obj/gen/Sources/ARCOMMANDS_Filter.c.o
                0x0000000000063710                ARCOMMANDS_Filter_SetMiniDroneGPSControllerLatitudeForRunBehavior
 *fill*         0x000000000006373c        0x4 
 .text.ARCOMMANDS_Filter_SetMiniDroneGPSControllerLongitudeForRunBehavior
                0x0000000000063740       0x2c /home/heratom/Firefly-project/out/arsdk-native/build/libARCommands/obj/gen/Sources/ARCOMMANDS_Filter.c.o
                0x0000000000063740                ARCOMMANDS_Filter_SetMiniDroneGPSControllerLongitudeForRunBehavior
 *fill*         0x000000000006376c        0x4 
 .text.ARCOMMANDS_Filter_SetMiniDroneConfigurationControllerTypeBehavior
                0x0000000000063770       0x2c /home/heratom/Firefly-project/out/arsdk-native/build/libARCommands/obj/gen/Sources/ARCOMMANDS_Filter.c.o
                0x0000000000063770                ARCOMMANDS_Filter_SetMiniDroneConfigurationControllerTypeBehavior
 *fill*         0x000000000006379c        0x4 
 .text.ARCOMMANDS_Filter_SetMiniDroneConfigurationControllerNameBehavior
                0x00000000000637a0       0x2c /home/heratom/Firefly-project/out/arsdk-native/build/libARCommands/obj/gen/Sources/ARCOMMANDS_Filter.c.o
                0x00000000000637a0                ARCOMMANDS_Filter_SetMiniDroneConfigurationControllerNameBehavior
 *fill*         0x00000000000637cc        0x4 
 .text.ARCOMMANDS_Filter_SetMiniDronePilotingStateFlatTrimChangedBehavior
                0x00000000000637d0       0x2c /home/heratom/Firefly-project/out/arsdk-native/build/libARCommands/obj/gen/Sources/ARCOMMANDS_Filter.c.o
                0x00000000000637d0                ARCOMMANDS_Filter_SetMiniDronePilotingStateFlatTrimChangedBehavior
 *fill*         0x00000000000637fc        0x4 
 .text.ARCOMMANDS_Filter_SetMiniDronePilotingStateFlyingStateChangedBehavior
                0x0000000000063800       0x2c /home/heratom/Firefly-project/out/arsdk-native/build/libARCommands/obj/gen/Sources/ARCOMMANDS_Filter.c.o
                0x0000000000063800                ARCOMMANDS_Filter_SetMiniDronePilotingStateFlyingStateChangedBehavior
 *fill*         0x000000000006382c        0x4 
 .text.ARCOMMANDS_Filter_SetMiniDronePilotingStateAlertStateChangedBehavior
                0x0000000000063830       0x2c /home/heratom/Firefly-project/out/arsdk-native/build/libARCommands/obj/gen/Sources/ARCOMMANDS_Filter.c.o
                0x0000000000063830                ARCOMMANDS_Filter_SetMiniDronePilotingStateAlertStateChangedBehavior
 *fill*         0x000000000006385c        0x4 
 .text.ARCOMMANDS_Filter_SetMiniDronePilotingStateAutoTakeOffModeChangedBehavior
                0x0000000000063860       0x2c /home/heratom/Firefly-project/out/arsdk-native/build/libARCommands/obj/gen/Sources/ARCOMMANDS_Filter.c.o
                0x0000000000063860                ARCOMMANDS_Filter_SetMiniDronePilotingStateAutoTakeOffModeChangedBehavior
 *fill*         0x000000000006388c        0x4 
 .text.ARCOMMANDS_Filter_SetMiniDroneMediaRecordStatePictureStateChangedBehavior
                0x0000000000063890       0x2c /home/heratom/Firefly-project/out/arsdk-native/build/libARCommands/obj/gen/Sources/ARCOMMANDS_Filter.c.o
                0x0000000000063890                ARCOMMANDS_Filter_SetMiniDroneMediaRecordStatePictureStateChangedBehavior
 *fill*         0x00000000000638bc        0x4 
 .text.ARCOMMANDS_Filter_SetMiniDroneMediaRecordStatePictureStateChangedV2Behavior
                0x00000000000638c0       0x2c /home/heratom/Firefly-project/out/arsdk-native/build/libARCommands/obj/gen/Sources/ARCOMMANDS_Filter.c.o
                0x00000000000638c0                ARCOMMANDS_Filter_SetMiniDroneMediaRecordStatePictureStateChangedV2Behavior
 *fill*         0x00000000000638ec        0x4 
 .text.ARCOMMANDS_Filter_SetMiniDroneMediaRecordEventPictureEventChangedBehavior
                0x00000000000638f0       0x2c /home/heratom/Firefly-project/out/arsdk-native/build/libARCommands/obj/gen/Sources/ARCOMMANDS_Filter.c.o
                0x00000000000638f0                ARCOMMANDS_Filter_SetMiniDroneMediaRecordEventPictureEventChangedBehavior
 *fill*         0x000000000006391c        0x4 
 .text.ARCOMMANDS_Filter_SetMiniDronePilotingSettingsStateMaxAltitudeChangedBehavior
                0x0000000000063920       0x2c /home/heratom/Firefly-project/out/arsdk-native/build/libARCommands/obj/gen/Sources/ARCOMMANDS_Filter.c.o
                0x0000000000063920                ARCOMMANDS_Filter_SetMiniDronePilotingSettingsStateMaxAltitudeChangedBehavior
 *fill*         0x000000000006394c        0x4 
 .text.ARCOMMANDS_Filter_SetMiniDronePilotingSettingsStateMaxTiltChangedBehavior
                0x0000000000063950       0x2c /home/heratom/Firefly-project/out/arsdk-native/build/libARCommands/obj/gen/Sources/ARCOMMANDS_Filter.c.o
                0x0000000000063950                ARCOMMANDS_Filter_SetMiniDronePilotingSettingsStateMaxTiltChangedBehavior
 *fill*         0x000000000006397c        0x4 
 .text.ARCOMMANDS_Filter_SetMiniDroneSpeedSettingsStateMaxVerticalSpeedChangedBehavior
                0x0000000000063980       0x2c /home/heratom/Firefly-project/out/arsdk-native/build/libARCommands/obj/gen/Sources/ARCOMMANDS_Filter.c.o
                0x0000000000063980                ARCOMMANDS_Filter_SetMiniDroneSpeedSettingsStateMaxVerticalSpeedChangedBehavior
 *fill*         0x00000000000639ac        0x4 
 .text.ARCOMMANDS_Filter_SetMiniDroneSpeedSettingsStateMaxRotationSpeedChangedBehavior
                0x00000000000639b0       0x2c /home/heratom/Firefly-project/out/arsdk-native/build/libARCommands/obj/gen/Sources/ARCOMMANDS_Filter.c.o
                0x00000000000639b0                ARCOMMANDS_Filter_SetMiniDroneSpeedSettingsStateMaxRotationSpeedChangedBehavior
 *fill*         0x00000000000639dc        0x4 
 .text.ARCOMMANDS_Filter_SetMiniDroneSpeedSettingsStateWheelsChangedBehavior
                0x00000000000639e0       0x2c /home/heratom/Firefly-project/out/arsdk-native/build/libARCommands/obj/gen/Sources/ARCOMMANDS_Filter.c.o
                0x00000000000639e0                ARCOMMANDS_Filter_SetMiniDroneSpeedSettingsStateWheelsChangedBehavior
 *fill*         0x0000000000063a0c        0x4 
 .text.ARCOMMANDS_Filter_SetMiniDroneSpeedSettingsStateMaxHorizontalSpeedChangedBehavior
                0x0000000000063a10       0x2c /home/heratom/Firefly-project/out/arsdk-native/build/libARCommands/obj/gen/Sources/ARCOMMANDS_Filter.c.o
                0x0000000000063a10                ARCOMMANDS_Filter_SetMiniDroneSpeedSettingsStateMaxHorizontalSpeedChangedBehavior
 *fill*         0x0000000000063a3c        0x4 
 .text.ARCOMMANDS_Filter_SetMiniDroneSettingsStateProductMotorsVersionChangedBehavior
                0x0000000000063a40       0x2c /home/heratom/Firefly-project/out/arsdk-native/build/libARCommands/obj/gen/Sources/ARCOMMANDS_Filter.c.o
                0x0000000000063a40                ARCOMMANDS_Filter_SetMiniDroneSettingsStateProductMotorsVersionChangedBehavior
 *fill*         0x0000000000063a6c        0x4 
 .text.ARCOMMANDS_Filter_SetMiniDroneSettingsStateProductInertialVersionChangedBehavior
                0x0000000000063a70       0x2c /home/heratom/Firefly-project/out/arsdk-native/build/libARCommands/obj/gen/Sources/ARCOMMANDS_Filter.c.o
                0x0000000000063a70                ARCOMMANDS_Filter_SetMiniDroneSettingsStateProductInertialVersionChangedBehavior
 *fill*         0x0000000000063a9c        0x4 
 .text.ARCOMMANDS_Filter_SetMiniDroneSettingsStateCutOutModeChangedBehavior
                0x0000000000063aa0       0x2c /home/heratom/Firefly-project/out/arsdk-native/build/libARCommands/obj/gen/Sources/ARCOMMANDS_Filter.c.o
                0x0000000000063aa0                ARCOMMANDS_Filter_SetMiniDroneSettingsStateCutOutModeChangedBehavior
 *fill*         0x0000000000063acc        0x4 
 .text.ARCOMMANDS_Filter_SetMiniDroneFloodControlStateFloodControlChangedBehavior
                0x0000000000063ad0       0x2c /home/heratom/Firefly-project/out/arsdk-native/build/libARCommands/obj/gen/Sources/ARCOMMANDS_Filter.c.o
                0x0000000000063ad0                ARCOMMANDS_Filter_SetMiniDroneFloodControlStateFloodControlChangedBehavior
 *fill*         0x0000000000063afc        0x4 
 .text.ARCOMMANDS_Filter_SetSkyControllerBehavior
                0x0000000000063b00      0x1b2 /home/heratom/Firefly-project/out/arsdk-native/build/libARCommands/obj/gen/Sources/ARCOMMANDS_Filter.c.o
                0x0000000000063b00                ARCOMMANDS_Filter_SetSkyControllerBehavior
 *fill*         0x0000000000063cb2        0xe 
 .text.ARCOMMANDS_Filter_SetSkyControllerWifiStateBehavior
                0x0000000000063cc0       0x44 /home/heratom/Firefly-project/out/arsdk-native/build/libARCommands/obj/gen/Sources/ARCOMMANDS_Filter.c.o
                0x0000000000063cc0                ARCOMMANDS_Filter_SetSkyControllerWifiStateBehavior
 *fill*         0x0000000000063d04        0xc 
 .text.ARCOMMANDS_Filter_SetSkyControllerWifiBehavior
                0x0000000000063d10       0x44 /home/heratom/Firefly-project/out/arsdk-native/build/libARCommands/obj/gen/Sources/ARCOMMANDS_Filter.c.o
                0x0000000000063d10                ARCOMMANDS_Filter_SetSkyControllerWifiBehavior
 *fill*         0x0000000000063d54        0xc 
 .text.ARCOMMANDS_Filter_SetSkyControllerDeviceBehavior
                0x0000000000063d60       0x38 /home/heratom/Firefly-project/out/arsdk-native/build/libARCommands/obj/gen/Sources/ARCOMMANDS_Filter.c.o
                0x0000000000063d60                ARCOMMANDS_Filter_SetSkyControllerDeviceBehavior
 *fill*         0x0000000000063d98        0x8 
 .text.ARCOMMANDS_Filter_SetSkyControllerDeviceStateBehavior
                0x0000000000063da0       0x32 /home/heratom/Firefly-project/out/arsdk-native/build/libARCommands/obj/gen/Sources/ARCOMMANDS_Filter.c.o
                0x0000000000063da0                ARCOMMANDS_Filter_SetSkyControllerDeviceStateBehavior
 *fill*         0x0000000000063dd2        0xe 
 .text.ARCOMMANDS_Filter_SetSkyControllerSettingsBehavior
                0x0000000000063de0       0x32 /home/heratom/Firefly-project/out/arsdk-native/build/libARCommands/obj/gen/Sources/ARCOMMANDS_Filter.c.o
                0x0000000000063de0                ARCOMMANDS_Filter_SetSkyControllerSettingsBehavior
 *fill*         0x0000000000063e12        0xe 
 .text.ARCOMMANDS_Filter_SetSkyControllerSettingsStateBehavior
                0x0000000000063e20       0x3e /home/heratom/Firefly-project/out/arsdk-native/build/libARCommands/obj/gen/Sources/ARCOMMANDS_Filter.c.o
                0x0000000000063e20                ARCOMMANDS_Filter_SetSkyControllerSettingsStateBehavior
 *fill*         0x0000000000063e5e        0x2 
 .text.ARCOMMANDS_Filter_SetSkyControllerCommonBehavior
                0x0000000000063e60       0x2c /home/heratom/Firefly-project/out/arsdk-native/build/libARCommands/obj/gen/Sources/ARCOMMANDS_Filter.c.o
                0x0000000000063e60                ARCOMMANDS_Filter_SetSkyControllerCommonBehavior
 *fill*         0x0000000000063e8c        0x4 
 .text.ARCOMMANDS_Filter_SetSkyControllerCommonStateBehavior
                0x0000000000063e90       0x2c /home/heratom/Firefly-project/out/arsdk-native/build/libARCommands/obj/gen/Sources/ARCOMMANDS_Filter.c.o
                0x0000000000063e90                ARCOMMANDS_Filter_SetSkyControllerCommonStateBehavior
 *fill*         0x0000000000063ebc        0x4 
 .text.ARCOMMANDS_Filter_SetSkyControllerSkyControllerStateBehavior
                0x0000000000063ec0       0x38 /home/heratom/Firefly-project/out/arsdk-native/build/libARCommands/obj/gen/Sources/ARCOMMANDS_Filter.c.o
                0x0000000000063ec0                ARCOMMANDS_Filter_SetSkyControllerSkyControllerStateBehavior
 *fill*         0x0000000000063ef8        0x8 
 .text.ARCOMMANDS_Filter_SetSkyControllerAccessPointSettingsBehavior
                0x0000000000063f00       0x38 /home/heratom/Firefly-project/out/arsdk-native/build/libARCommands/obj/gen/Sources/ARCOMMANDS_Filter.c.o
                0x0000000000063f00                ARCOMMANDS_Filter_SetSkyControllerAccessPointSettingsBehavior
 *fill*         0x0000000000063f38        0x8 
 .text.ARCOMMANDS_Filter_SetSkyControllerAccessPointSettingsStateBehavior
                0x0000000000063f40       0x38 /home/heratom/Firefly-project/out/arsdk-native/build/libARCommands/obj/gen/Sources/ARCOMMANDS_Filter.c.o
                0x0000000000063f40                ARCOMMANDS_Filter_SetSkyControllerAccessPointSettingsStateBehavior
 *fill*         0x0000000000063f78        0x8 
 .text.ARCOMMANDS_Filter_SetSkyControllerCameraBehavior
                0x0000000000063f80       0x2c /home/heratom/Firefly-project/out/arsdk-native/build/libARCommands/obj/gen/Sources/ARCOMMANDS_Filter.c.o
                0x0000000000063f80                ARCOMMANDS_Filter_SetSkyControllerCameraBehavior
 *fill*         0x0000000000063fac        0x4 
 .text.ARCOMMANDS_Filter_SetSkyControllerGamepadInfosBehavior
                0x0000000000063fb0       0x2c /home/heratom/Firefly-project/out/arsdk-native/build/libARCommands/obj/gen/Sources/ARCOMMANDS_Filter.c.o
                0x0000000000063fb0                ARCOMMANDS_Filter_SetSkyControllerGamepadInfosBehavior
 *fill*         0x0000000000063fdc        0x4 
 .text.ARCOMMANDS_Filter_SetSkyControllerGamepadInfosStateBehavior
                0x0000000000063fe0       0x32 /home/heratom/Firefly-project/out/arsdk-native/build/libARCommands/obj/gen/Sources/ARCOMMANDS_Filter.c.o
                0x0000000000063fe0                ARCOMMANDS_Filter_SetSkyControllerGamepadInfosStateBehavior
 *fill*         0x0000000000064012        0xe 
 .text.ARCOMMANDS_Filter_SetSkyControllerButtonMappingsBehavior
                0x0000000000064020       0x3e /home/heratom/Firefly-project/out/arsdk-native/build/libARCommands/obj/gen/Sources/ARCOMMANDS_Filter.c.o
                0x0000000000064020                ARCOMMANDS_Filter_SetSkyControllerButtonMappingsBehavior
 *fill*         0x000000000006405e        0x2 
 .text.ARCOMMANDS_Filter_SetSkyControllerButtonMappingsStateBehavior
                0x0000000000064060       0x3e /home/heratom/Firefly-project/out/arsdk-native/build/libARCommands/obj/gen/Sources/ARCOMMANDS_Filter.c.o
                0x0000000000064060                ARCOMMANDS_Filter_SetSkyControllerButtonMappingsStateBehavior
 *fill*         0x000000000006409e        0x2 
 .text.ARCOMMANDS_Filter_SetSkyControllerAxisMappingsBehavior
                0x00000000000640a0       0x3e /home/heratom/Firefly-project/out/arsdk-native/build/libARCommands/obj/gen/Sources/ARCOMMANDS_Filter.c.o
                0x00000000000640a0                ARCOMMANDS_Filter_SetSkyControllerAxisMappingsBehavior
 *fill*         0x00000000000640de        0x2 
 .text.ARCOMMANDS_Filter_SetSkyControllerAxisMappingsStateBehavior
                0x00000000000640e0       0x3e /home/heratom/Firefly-project/out/arsdk-native/build/libARCommands/obj/gen/Sources/ARCOMMANDS_Filter.c.o
                0x00000000000640e0                ARCOMMANDS_Filter_SetSkyControllerAxisMappingsStateBehavior
 *fill*         0x000000000006411e        0x2 
 .text.ARCOMMANDS_Filter_SetSkyControllerAxisFiltersBehavior
                0x0000000000064120       0x3e /home/heratom/Firefly-project/out/arsdk-native/build/libARCommands/obj/gen/Sources/ARCOMMANDS_Filter.c.o
                0x0000000000064120                ARCOMMANDS_Filter_SetSkyControllerAxisFiltersBehavior
 *fill*         0x000000000006415e        0x2 
 .text.ARCOMMANDS_Filter_SetSkyControllerAxisFiltersStateBehavior
                0x0000000000064160       0x3e /home/heratom/Firefly-project/out/arsdk-native/build/libARCommands/obj/gen/Sources/ARCOMMANDS_Filter.c.o
                0x0000000000064160                ARCOMMANDS_Filter_SetSkyControllerAxisFiltersStateBehavior
 *fill*         0x000000000006419e        0x2 
 .text.ARCOMMANDS_Filter_SetSkyControllerCoPilotingBehavior
                0x00000000000641a0       0x2c /home/heratom/Firefly-project/out/arsdk-native/build/libARCommands/obj/gen/Sources/ARCOMMANDS_Filter.c.o
                0x00000000000641a0                ARCOMMANDS_Filter_SetSkyControllerCoPilotingBehavior
 *fill*         0x00000000000641cc        0x4 
 .text.ARCOMMANDS_Filter_SetSkyControllerCoPilotingStateBehavior
                0x00000000000641d0       0x2c /home/heratom/Firefly-project/out/arsdk-native/build/libARCommands/obj/gen/Sources/ARCOMMANDS_Filter.c.o
                0x00000000000641d0                ARCOMMANDS_Filter_SetSkyControllerCoPilotingStateBehavior
 *fill*         0x00000000000641fc        0x4 
 .text.ARCOMMANDS_Filter_SetSkyControllerCalibrationBehavior
                0x0000000000064200       0x2c /home/heratom/Firefly-project/out/arsdk-native/build/libARCommands/obj/gen/Sources/ARCOMMANDS_Filter.c.o
                0x0000000000064200                ARCOMMANDS_Filter_SetSkyControllerCalibrationBehavior
 *fill*         0x000000000006422c        0x4 
 .text.ARCOMMANDS_Filter_SetSkyControllerCalibrationStateBehavior
                0x0000000000064230       0x32 /home/heratom/Firefly-project/out/arsdk-native/build/libARCommands/obj/gen/Sources/ARCOMMANDS_Filter.c.o
                0x0000000000064230                ARCOMMANDS_Filter_SetSkyControllerCalibrationStateBehavior
 *fill*         0x0000000000064262        0xe 
 .text.ARCOMMANDS_Filter_SetSkyControllerButtonEventsBehavior
                0x0000000000064270       0x2c /home/heratom/Firefly-project/out/arsdk-native/build/libARCommands/obj/gen/Sources/ARCOMMANDS_Filter.c.o
                0x0000000000064270                ARCOMMANDS_Filter_SetSkyControllerButtonEventsBehavior
 *fill*         0x000000000006429c        0x4 
 .text.ARCOMMANDS_Filter_SetSkyControllerWifiRequestWifiListBehavior
                0x00000000000642a0       0x2c /home/heratom/Firefly-project/out/arsdk-native/build/libARCommands/obj/gen/Sources/ARCOMMANDS_Filter.c.o
                0x00000000000642a0                ARCOMMANDS_Filter_SetSkyControllerWifiRequestWifiListBehavior
 *fill*         0x00000000000642cc        0x4 
 .text.ARCOMMANDS_Filter_SetSkyControllerWifiRequestCurrentWifiBehavior
                0x00000000000642d0       0x2c /home/heratom/Firefly-project/out/arsdk-native/build/libARCommands/obj/gen/Sources/ARCOMMANDS_Filter.c.o
                0x00000000000642d0                ARCOMMANDS_Filter_SetSkyControllerWifiRequestCurrentWifiBehavior
 *fill*         0x00000000000642fc        0x4 
 .text.ARCOMMANDS_Filter_SetSkyControllerWifiConnectToWifiBehavior
                0x0000000000064300       0x2c /home/heratom/Firefly-project/out/arsdk-native/build/libARCommands/obj/gen/Sources/ARCOMMANDS_Filter.c.o
                0x0000000000064300                ARCOMMANDS_Filter_SetSkyControllerWifiConnectToWifiBehavior
 *fill*         0x000000000006432c        0x4 
 .text.ARCOMMANDS_Filter_SetSkyControllerWifiForgetWifiBehavior
                0x0000000000064330       0x2c /home/heratom/Firefly-project/out/arsdk-native/build/libARCommands/obj/gen/Sources/ARCOMMANDS_Filter.c.o
                0x0000000000064330                ARCOMMANDS_Filter_SetSkyControllerWifiForgetWifiBehavior
 *fill*         0x000000000006435c        0x4 
 .text.ARCOMMANDS_Filter_SetSkyControllerWifiWifiAuthChannelBehavior
                0x0000000000064360       0x2c /home/heratom/Firefly-project/out/arsdk-native/build/libARCommands/obj/gen/Sources/ARCOMMANDS_Filter.c.o
                0x0000000000064360                ARCOMMANDS_Filter_SetSkyControllerWifiWifiAuthChannelBehavior
 *fill*         0x000000000006438c        0x4 
 .text.ARCOMMANDS_Filter_SetSkyControllerDeviceRequestDeviceListBehavior
                0x0000000000064390       0x2c /home/heratom/Firefly-project/out/arsdk-native/build/libARCommands/obj/gen/Sources/ARCOMMANDS_Filter.c.o
                0x0000000000064390                ARCOMMANDS_Filter_SetSkyControllerDeviceRequestDeviceListBehavior
 *fill*         0x00000000000643bc        0x4 
 .text.ARCOMMANDS_Filter_SetSkyControllerDeviceRequestCurrentDeviceBehavior
                0x00000000000643c0       0x2c /home/heratom/Firefly-project/out/arsdk-native/build/libARCommands/obj/gen/Sources/ARCOMMANDS_Filter.c.o
                0x00000000000643c0                ARCOMMANDS_Filter_SetSkyControllerDeviceRequestCurrentDeviceBehavior
 *fill*         0x00000000000643ec        0x4 
 .text.ARCOMMANDS_Filter_SetSkyControllerDeviceConnectToDeviceBehavior
                0x00000000000643f0       0x2c /home/heratom/Firefly-project/out/arsdk-native/build/libARCommands/obj/gen/Sources/ARCOMMANDS_Filter.c.o
                0x00000000000643f0                ARCOMMANDS_Filter_SetSkyControllerDeviceConnectToDeviceBehavior
 *fill*         0x000000000006441c        0x4 
 .text.ARCOMMANDS_Filter_SetSkyControllerSettingsAllSettingsBehavior
                0x0000000000064420       0x2c /home/heratom/Firefly-project/out/arsdk-native/build/libARCommands/obj/gen/Sources/ARCOMMANDS_Filter.c.o
                0x0000000000064420                ARCOMMANDS_Filter_SetSkyControllerSettingsAllSettingsBehavior
 *fill*         0x000000000006444c        0x4 
 .text.ARCOMMANDS_Filter_SetSkyControllerSettingsResetBehavior
                0x0000000000064450       0x2c /home/heratom/Firefly-project/out/arsdk-native/build/libARCommands/obj/gen/Sources/ARCOMMANDS_Filter.c.o
                0x0000000000064450                ARCOMMANDS_Filter_SetSkyControllerSettingsResetBehavior
 *fill*         0x000000000006447c        0x4 
 .text.ARCOMMANDS_Filter_SetSkyControllerCommonAllStatesBehavior
                0x0000000000064480       0x2c /home/heratom/Firefly-project/out/arsdk-native/build/libARCommands/obj/gen/Sources/ARCOMMANDS_Filter.c.o
                0x0000000000064480                ARCOMMANDS_Filter_SetSkyControllerCommonAllStatesBehavior
 *fill*         0x00000000000644ac        0x4 
 .text.ARCOMMANDS_Filter_SetSkyControllerAccessPointSettingsAccessPointSSIDBehavior
                0x00000000000644b0       0x2c /home/heratom/Firefly-project/out/arsdk-native/build/libARCommands/obj/gen/Sources/ARCOMMANDS_Filter.c.o
                0x00000000000644b0                ARCOMMANDS_Filter_SetSkyControllerAccessPointSettingsAccessPointSSIDBehavior
 *fill*         0x00000000000644dc        0x4 
 .text.ARCOMMANDS_Filter_SetSkyControllerAccessPointSettingsAccessPointChannelBehavior
                0x00000000000644e0       0x2c /home/heratom/Firefly-project/out/arsdk-native/build/libARCommands/obj/gen/Sources/ARCOMMANDS_Filter.c.o
                0x00000000000644e0                ARCOMMANDS_Filter_SetSkyControllerAccessPointSettingsAccessPointChannelBehavior
 *fill*         0x000000000006450c        0x4 
 .text.ARCOMMANDS_Filter_SetSkyControllerAccessPointSettingsWifiSelectionBehavior
                0x0000000000064510       0x2c /home/heratom/Firefly-project/out/arsdk-native/build/libARCommands/obj/gen/Sources/ARCOMMANDS_Filter.c.o
                0x0000000000064510                ARCOMMANDS_Filter_SetSkyControllerAccessPointSettingsWifiSelectionBehavior
 *fill*         0x000000000006453c        0x4 
 .text.ARCOMMANDS_Filter_SetSkyControllerCameraResetOrientationBehavior
                0x0000000000064540       0x2c /home/heratom/Firefly-project/out/arsdk-native/build/libARCommands/obj/gen/Sources/ARCOMMANDS_Filter.c.o
                0x0000000000064540                ARCOMMANDS_Filter_SetSkyControllerCameraResetOrientationBehavior
 *fill*         0x000000000006456c        0x4 
 .text.ARCOMMANDS_Filter_SetSkyControllerGamepadInfosGetGamepadControlsBehavior
                0x0000000000064570       0x2c /home/heratom/Firefly-project/out/arsdk-native/build/libARCommands/obj/gen/Sources/ARCOMMANDS_Filter.c.o
                0x0000000000064570                ARCOMMANDS_Filter_SetSkyControllerGamepadInfosGetGamepadControlsBehavior
 *fill*         0x000000000006459c        0x4 
 .text.ARCOMMANDS_Filter_SetSkyControllerButtonMappingsGetCurrentButtonMappingsBehavior
                0x00000000000645a0       0x2c /home/heratom/Firefly-project/out/arsdk-native/build/libARCommands/obj/gen/Sources/ARCOMMANDS_Filter.c.o
                0x00000000000645a0                ARCOMMANDS_Filter_SetSkyControllerButtonMappingsGetCurrentButtonMappingsBehavior
 *fill*         0x00000000000645cc        0x4 
 .text.ARCOMMANDS_Filter_SetSkyControllerButtonMappingsGetAvailableButtonMappingsBehavior
                0x00000000000645d0       0x2c /home/heratom/Firefly-project/out/arsdk-native/build/libARCommands/obj/gen/Sources/ARCOMMANDS_Filter.c.o
                0x00000000000645d0                ARCOMMANDS_Filter_SetSkyControllerButtonMappingsGetAvailableButtonMappingsBehavior
 *fill*         0x00000000000645fc        0x4 
 .text.ARCOMMANDS_Filter_SetSkyControllerButtonMappingsSetButtonMappingBehavior
                0x0000000000064600       0x2c /home/heratom/Firefly-project/out/arsdk-native/build/libARCommands/obj/gen/Sources/ARCOMMANDS_Filter.c.o
                0x0000000000064600                ARCOMMANDS_Filter_SetSkyControllerButtonMappingsSetButtonMappingBehavior
 *fill*         0x000000000006462c        0x4 
 .text.ARCOMMANDS_Filter_SetSkyControllerButtonMappingsDefaultButtonMappingBehavior
                0x0000000000064630       0x2c /home/heratom/Firefly-project/out/arsdk-native/build/libARCommands/obj/gen/Sources/ARCOMMANDS_Filter.c.o
                0x0000000000064630                ARCOMMANDS_Filter_SetSkyControllerButtonMappingsDefaultButtonMappingBehavior
 *fill*         0x000000000006465c        0x4 
 .text.ARCOMMANDS_Filter_SetSkyControllerAxisMappingsGetCurrentAxisMappingsBehavior
                0x0000000000064660       0x2c /home/heratom/Firefly-project/out/arsdk-native/build/libARCommands/obj/gen/Sources/ARCOMMANDS_Filter.c.o
                0x0000000000064660                ARCOMMANDS_Filter_SetSkyControllerAxisMappingsGetCurrentAxisMappingsBehavior
 *fill*         0x000000000006468c        0x4 
 .text.ARCOMMANDS_Filter_SetSkyControllerAxisMappingsGetAvailableAxisMappingsBehavior
                0x0000000000064690       0x2c /home/heratom/Firefly-project/out/arsdk-native/build/libARCommands/obj/gen/Sources/ARCOMMANDS_Filter.c.o
                0x0000000000064690                ARCOMMANDS_Filter_SetSkyControllerAxisMappingsGetAvailableAxisMappingsBehavior
 *fill*         0x00000000000646bc        0x4 
 .text.ARCOMMANDS_Filter_SetSkyControllerAxisMappingsSetAxisMappingBehavior
                0x00000000000646c0       0x2c /home/heratom/Firefly-project/out/arsdk-native/build/libARCommands/obj/gen/Sources/ARCOMMANDS_Filter.c.o
                0x00000000000646c0                ARCOMMANDS_Filter_SetSkyControllerAxisMappingsSetAxisMappingBehavior
 *fill*         0x00000000000646ec        0x4 
 .text.ARCOMMANDS_Filter_SetSkyControllerAxisMappingsDefaultAxisMappingBehavior
                0x00000000000646f0       0x2c /home/heratom/Firefly-project/out/arsdk-native/build/libARCommands/obj/gen/Sources/ARCOMMANDS_Filter.c.o
                0x00000000000646f0                ARCOMMANDS_Filter_SetSkyControllerAxisMappingsDefaultAxisMappingBehavior
 *fill*         0x000000000006471c        0x4 
 .text.ARCOMMANDS_Filter_SetSkyControllerAxisFiltersGetCurrentAxisFiltersBehavior
                0x0000000000064720       0x2c /home/heratom/Firefly-project/out/arsdk-native/build/libARCommands/obj/gen/Sources/ARCOMMANDS_Filter.c.o
                0x0000000000064720                ARCOMMANDS_Filter_SetSkyControllerAxisFiltersGetCurrentAxisFiltersBehavior
 *fill*         0x000000000006474c        0x4 
 .text.ARCOMMANDS_Filter_SetSkyControllerAxisFiltersGetPresetAxisFiltersBehavior
                0x0000000000064750       0x2c /home/heratom/Firefly-project/out/arsdk-native/build/libARCommands/obj/gen/Sources/ARCOMMANDS_Filter.c.o
                0x0000000000064750                ARCOMMANDS_Filter_SetSkyControllerAxisFiltersGetPresetAxisFiltersBehavior
 *fill*         0x000000000006477c        0x4 
 .text.ARCOMMANDS_Filter_SetSkyControllerAxisFiltersSetAxisFilterBehavior
                0x0000000000064780       0x2c /home/heratom/Firefly-project/out/arsdk-native/build/libARCommands/obj/gen/Sources/ARCOMMANDS_Filter.c.o
                0x0000000000064780                ARCOMMANDS_Filter_SetSkyControllerAxisFiltersSetAxisFilterBehavior
 *fill*         0x00000000000647ac        0x4 
 .text.ARCOMMANDS_Filter_SetSkyControllerAxisFiltersDefaultAxisFiltersBehavior
                0x00000000000647b0       0x2c /home/heratom/Firefly-project/out/arsdk-native/build/libARCommands/obj/gen/Sources/ARCOMMANDS_Filter.c.o
                0x00000000000647b0                ARCOMMANDS_Filter_SetSkyControllerAxisFiltersDefaultAxisFiltersBehavior
 *fill*         0x00000000000647dc        0x4 
 .text.ARCOMMANDS_Filter_SetSkyControllerCoPilotingSetPilotingSourceBehavior
                0x00000000000647e0       0x2c /home/heratom/Firefly-project/out/arsdk-native/build/libARCommands/obj/gen/Sources/ARCOMMANDS_Filter.c.o
                0x00000000000647e0                ARCOMMANDS_Filter_SetSkyControllerCoPilotingSetPilotingSourceBehavior
 *fill*         0x000000000006480c        0x4 
 .text.ARCOMMANDS_Filter_SetSkyControllerCalibrationEnableMagnetoCalibrationQualityUpdatesBehavior
                0x0000000000064810       0x2c /home/heratom/Firefly-project/out/arsdk-native/build/libARCommands/obj/gen/Sources/ARCOMMANDS_Filter.c.o
                0x0000000000064810                ARCOMMANDS_Filter_SetSkyControllerCalibrationEnableMagnetoCalibrationQualityUpdatesBehavior
 *fill*         0x000000000006483c        0x4 
 .text.ARCOMMANDS_Filter_SetSkyControllerWifiStateWifiListBehavior
                0x0000000000064840       0x2c /home/heratom/Firefly-project/out/arsdk-native/build/libARCommands/obj/gen/Sources/ARCOMMANDS_Filter.c.o
                0x0000000000064840                ARCOMMANDS_Filter_SetSkyControllerWifiStateWifiListBehavior
 *fill*         0x000000000006486c        0x4 
 .text.ARCOMMANDS_Filter_SetSkyControllerWifiStateConnexionChangedBehavior
                0x0000000000064870       0x2c /home/heratom/Firefly-project/out/arsdk-native/build/libARCommands/obj/gen/Sources/ARCOMMANDS_Filter.c.o
                0x0000000000064870                ARCOMMANDS_Filter_SetSkyControllerWifiStateConnexionChangedBehavior
 *fill*         0x000000000006489c        0x4 
 .text.ARCOMMANDS_Filter_SetSkyControllerWifiStateWifiAuthChannelListChangedBehavior
                0x00000000000648a0       0x2c /home/heratom/Firefly-project/out/arsdk-native/build/libARCommands/obj/gen/Sources/ARCOMMANDS_Filter.c.o
                0x00000000000648a0                ARCOMMANDS_Filter_SetSkyControllerWifiStateWifiAuthChannelListChangedBehavior
 *fill*         0x00000000000648cc        0x4 
 .text.ARCOMMANDS_Filter_SetSkyControllerWifiStateAllWifiAuthChannelChangedBehavior
                0x00000000000648d0       0x2c /home/heratom/Firefly-project/out/arsdk-native/build/libARCommands/obj/gen/Sources/ARCOMMANDS_Filter.c.o
                0x00000000000648d0                ARCOMMANDS_Filter_SetSkyControllerWifiStateAllWifiAuthChannelChangedBehavior
 *fill*         0x00000000000648fc        0x4 
 .text.ARCOMMANDS_Filter_SetSkyControllerWifiStateWifiSignalChangedBehavior
                0x0000000000064900       0x2c /home/heratom/Firefly-project/out/arsdk-native/build/libARCommands/obj/gen/Sources/ARCOMMANDS_Filter.c.o
                0x0000000000064900                ARCOMMANDS_Filter_SetSkyControllerWifiStateWifiSignalChangedBehavior
 *fill*         0x000000000006492c        0x4 
 .text.ARCOMMANDS_Filter_SetSkyControllerDeviceStateDeviceListBehavior
                0x0000000000064930       0x2c /home/heratom/Firefly-project/out/arsdk-native/build/libARCommands/obj/gen/Sources/ARCOMMANDS_Filter.c.o
                0x0000000000064930                ARCOMMANDS_Filter_SetSkyControllerDeviceStateDeviceListBehavior
 *fill*         0x000000000006495c        0x4 
 .text.ARCOMMANDS_Filter_SetSkyControllerDeviceStateConnexionChangedBehavior
                0x0000000000064960       0x2c /home/heratom/Firefly-project/out/arsdk-native/build/libARCommands/obj/gen/Sources/ARCOMMANDS_Filter.c.o
                0x0000000000064960                ARCOMMANDS_Filter_SetSkyControllerDeviceStateConnexionChangedBehavior
 *fill*         0x000000000006498c        0x4 
 .text.ARCOMMANDS_Filter_SetSkyControllerSettingsStateAllSettingsChangedBehavior
                0x0000000000064990       0x2c /home/heratom/Firefly-project/out/arsdk-native/build/libARCommands/obj/gen/Sources/ARCOMMANDS_Filter.c.o
                0x0000000000064990                ARCOMMANDS_Filter_SetSkyControllerSettingsStateAllSettingsChangedBehavior
 *fill*         0x00000000000649bc        0x4 
 .text.ARCOMMANDS_Filter_SetSkyControllerSettingsStateResetChangedBehavior
                0x00000000000649c0       0x2c /home/heratom/Firefly-project/out/arsdk-native/build/libARCommands/obj/gen/Sources/ARCOMMANDS_Filter.c.o
                0x00000000000649c0                ARCOMMANDS_Filter_SetSkyControllerSettingsStateResetChangedBehavior
 *fill*         0x00000000000649ec        0x4 
 .text.ARCOMMANDS_Filter_SetSkyControllerSettingsStateProductSerialChangedBehavior
                0x00000000000649f0       0x2c /home/heratom/Firefly-project/out/arsdk-native/build/libARCommands/obj/gen/Sources/ARCOMMANDS_Filter.c.o
                0x00000000000649f0                ARCOMMANDS_Filter_SetSkyControllerSettingsStateProductSerialChangedBehavior
 *fill*         0x0000000000064a1c        0x4 
 .text.ARCOMMANDS_Filter_SetSkyControllerSettingsStateProductVariantChangedBehavior
                0x0000000000064a20       0x2c /home/heratom/Firefly-project/out/arsdk-native/build/libARCommands/obj/gen/Sources/ARCOMMANDS_Filter.c.o
                0x0000000000064a20                ARCOMMANDS_Filter_SetSkyControllerSettingsStateProductVariantChangedBehavior
 *fill*         0x0000000000064a4c        0x4 
 .text.ARCOMMANDS_Filter_SetSkyControllerCommonStateAllStatesChangedBehavior
                0x0000000000064a50       0x2c /home/heratom/Firefly-project/out/arsdk-native/build/libARCommands/obj/gen/Sources/ARCOMMANDS_Filter.c.o
                0x0000000000064a50                ARCOMMANDS_Filter_SetSkyControllerCommonStateAllStatesChangedBehavior
 *fill*         0x0000000000064a7c        0x4 
 .text.ARCOMMANDS_Filter_SetSkyControllerSkyControllerStateBatteryChangedBehavior
                0x0000000000064a80       0x2c /home/heratom/Firefly-project/out/arsdk-native/build/libARCommands/obj/gen/Sources/ARCOMMANDS_Filter.c.o
                0x0000000000064a80                ARCOMMANDS_Filter_SetSkyControllerSkyControllerStateBatteryChangedBehavior
 *fill*         0x0000000000064aac        0x4 
 .text.ARCOMMANDS_Filter_SetSkyControllerSkyControllerStateGpsFixChangedBehavior
                0x0000000000064ab0       0x2c /home/heratom/Firefly-project/out/arsdk-native/build/libARCommands/obj/gen/Sources/ARCOMMANDS_Filter.c.o
                0x0000000000064ab0                ARCOMMANDS_Filter_SetSkyControllerSkyControllerStateGpsFixChangedBehavior
 *fill*         0x0000000000064adc        0x4 
 .text.ARCOMMANDS_Filter_SetSkyControllerSkyControllerStateGpsPositionChangedBehavior
                0x0000000000064ae0       0x2c /home/heratom/Firefly-project/out/arsdk-native/build/libARCommands/obj/gen/Sources/ARCOMMANDS_Filter.c.o
                0x0000000000064ae0                ARCOMMANDS_Filter_SetSkyControllerSkyControllerStateGpsPositionChangedBehavior
 *fill*         0x0000000000064b0c        0x4 
 .text.ARCOMMANDS_Filter_SetSkyControllerAccessPointSettingsStateAccessPointSSIDChangedBehavior
                0x0000000000064b10       0x2c /home/heratom/Firefly-project/out/arsdk-native/build/libARCommands/obj/gen/Sources/ARCOMMANDS_Filter.c.o
                0x0000000000064b10                ARCOMMANDS_Filter_SetSkyControllerAccessPointSettingsStateAccessPointSSIDChangedBehavior
 *fill*         0x0000000000064b3c        0x4 
 .text.ARCOMMANDS_Filter_SetSkyControllerAccessPointSettingsStateAccessPointChannelChangedBehavior
                0x0000000000064b40       0x2c /home/heratom/Firefly-project/out/arsdk-native/build/libARCommands/obj/gen/Sources/ARCOMMANDS_Filter.c.o
                0x0000000000064b40                ARCOMMANDS_Filter_SetSkyControllerAccessPointSettingsStateAccessPointChannelChangedBehavior
 *fill*         0x0000000000064b6c        0x4 
 .text.ARCOMMANDS_Filter_SetSkyControllerAccessPointSettingsStateWifiSelectionChangedBehavior
                0x0000000000064b70       0x2c /home/heratom/Firefly-project/out/arsdk-native/build/libARCommands/obj/gen/Sources/ARCOMMANDS_Filter.c.o
                0x0000000000064b70                ARCOMMANDS_Filter_SetSkyControllerAccessPointSettingsStateWifiSelectionChangedBehavior
 *fill*         0x0000000000064b9c        0x4 
 .text.ARCOMMANDS_Filter_SetSkyControllerGamepadInfosStateGamepadControlBehavior
                0x0000000000064ba0       0x2c /home/heratom/Firefly-project/out/arsdk-native/build/libARCommands/obj/gen/Sources/ARCOMMANDS_Filter.c.o
                0x0000000000064ba0                ARCOMMANDS_Filter_SetSkyControllerGamepadInfosStateGamepadControlBehavior
 *fill*         0x0000000000064bcc        0x4 
 .text.ARCOMMANDS_Filter_SetSkyControllerGamepadInfosStateAllGamepadControlsSentBehavior
                0x0000000000064bd0       0x2c /home/heratom/Firefly-project/out/arsdk-native/build/libARCommands/obj/gen/Sources/ARCOMMANDS_Filter.c.o
                0x0000000000064bd0                ARCOMMANDS_Filter_SetSkyControllerGamepadInfosStateAllGamepadControlsSentBehavior
 *fill*         0x0000000000064bfc        0x4 
 .text.ARCOMMANDS_Filter_SetSkyControllerButtonMappingsStateCurrentButtonMappingsBehavior
                0x0000000000064c00       0x2c /home/heratom/Firefly-project/out/arsdk-native/build/libARCommands/obj/gen/Sources/ARCOMMANDS_Filter.c.o
                0x0000000000064c00                ARCOMMANDS_Filter_SetSkyControllerButtonMappingsStateCurrentButtonMappingsBehavior
 *fill*         0x0000000000064c2c        0x4 
 .text.ARCOMMANDS_Filter_SetSkyControllerButtonMappingsStateAllCurrentButtonMappingsSentBehavior
                0x0000000000064c30       0x2c /home/heratom/Firefly-project/out/arsdk-native/build/libARCommands/obj/gen/Sources/ARCOMMANDS_Filter.c.o
                0x0000000000064c30                ARCOMMANDS_Filter_SetSkyControllerButtonMappingsStateAllCurrentButtonMappingsSentBehavior
 *fill*         0x0000000000064c5c        0x4 
 .text.ARCOMMANDS_Filter_SetSkyControllerButtonMappingsStateAvailableButtonMappingsBehavior
                0x0000000000064c60       0x2c /home/heratom/Firefly-project/out/arsdk-native/build/libARCommands/obj/gen/Sources/ARCOMMANDS_Filter.c.o
                0x0000000000064c60                ARCOMMANDS_Filter_SetSkyControllerButtonMappingsStateAvailableButtonMappingsBehavior
 *fill*         0x0000000000064c8c        0x4 
 .text.ARCOMMANDS_Filter_SetSkyControllerButtonMappingsStateAllAvailableButtonsMappingsSentBehavior
                0x0000000000064c90       0x2c /home/heratom/Firefly-project/out/arsdk-native/build/libARCommands/obj/gen/Sources/ARCOMMANDS_Filter.c.o
                0x0000000000064c90                ARCOMMANDS_Filter_SetSkyControllerButtonMappingsStateAllAvailableButtonsMappingsSentBehavior
 *fill*         0x0000000000064cbc        0x4 
 .text.ARCOMMANDS_Filter_SetSkyControllerAxisMappingsStateCurrentAxisMappingsBehavior
                0x0000000000064cc0       0x2c /home/heratom/Firefly-project/out/arsdk-native/build/libARCommands/obj/gen/Sources/ARCOMMANDS_Filter.c.o
                0x0000000000064cc0                ARCOMMANDS_Filter_SetSkyControllerAxisMappingsStateCurrentAxisMappingsBehavior
 *fill*         0x0000000000064cec        0x4 
 .text.ARCOMMANDS_Filter_SetSkyControllerAxisMappingsStateAllCurrentAxisMappingsSentBehavior
                0x0000000000064cf0       0x2c /home/heratom/Firefly-project/out/arsdk-native/build/libARCommands/obj/gen/Sources/ARCOMMANDS_Filter.c.o
                0x0000000000064cf0                ARCOMMANDS_Filter_SetSkyControllerAxisMappingsStateAllCurrentAxisMappingsSentBehavior
 *fill*         0x0000000000064d1c        0x4 
 .text.ARCOMMANDS_Filter_SetSkyControllerAxisMappingsStateAvailableAxisMappingsBehavior
                0x0000000000064d20       0x2c /home/heratom/Firefly-project/out/arsdk-native/build/libARCommands/obj/gen/Sources/ARCOMMANDS_Filter.c.o
                0x0000000000064d20                ARCOMMANDS_Filter_SetSkyControllerAxisMappingsStateAvailableAxisMappingsBehavior
 *fill*         0x0000000000064d4c        0x4 
 .text.ARCOMMANDS_Filter_SetSkyControllerAxisMappingsStateAllAvailableAxisMappingsSentBehavior
                0x0000000000064d50       0x2c /home/heratom/Firefly-project/out/arsdk-native/build/libARCommands/obj/gen/Sources/ARCOMMANDS_Filter.c.o
                0x0000000000064d50                ARCOMMANDS_Filter_SetSkyControllerAxisMappingsStateAllAvailableAxisMappingsSentBehavior
 *fill*         0x0000000000064d7c        0x4 
 .text.ARCOMMANDS_Filter_SetSkyControllerAxisFiltersStateCurrentAxisFiltersBehavior
                0x0000000000064d80       0x2c /home/heratom/Firefly-project/out/arsdk-native/build/libARCommands/obj/gen/Sources/ARCOMMANDS_Filter.c.o
                0x0000000000064d80                ARCOMMANDS_Filter_SetSkyControllerAxisFiltersStateCurrentAxisFiltersBehavior
 *fill*         0x0000000000064dac        0x4 
 .text.ARCOMMANDS_Filter_SetSkyControllerAxisFiltersStateAllCurrentFiltersSentBehavior
                0x0000000000064db0       0x2c /home/heratom/Firefly-project/out/arsdk-native/build/libARCommands/obj/gen/Sources/ARCOMMANDS_Filter.c.o
                0x0000000000064db0                ARCOMMANDS_Filter_SetSkyControllerAxisFiltersStateAllCurrentFiltersSentBehavior
 *fill*         0x0000000000064ddc        0x4 
 .text.ARCOMMANDS_Filter_SetSkyControllerAxisFiltersStatePresetAxisFiltersBehavior
                0x0000000000064de0       0x2c /home/heratom/Firefly-project/out/arsdk-native/build/libARCommands/obj/gen/Sources/ARCOMMANDS_Filter.c.o
                0x0000000000064de0                ARCOMMANDS_Filter_SetSkyControllerAxisFiltersStatePresetAxisFiltersBehavior
 *fill*         0x0000000000064e0c        0x4 
 .text.ARCOMMANDS_Filter_SetSkyControllerAxisFiltersStateAllPresetFiltersSentBehavior
                0x0000000000064e10       0x2c /home/heratom/Firefly-project/out/arsdk-native/build/libARCommands/obj/gen/Sources/ARCOMMANDS_Filter.c.o
                0x0000000000064e10                ARCOMMANDS_Filter_SetSkyControllerAxisFiltersStateAllPresetFiltersSentBehavior
 *fill*         0x0000000000064e3c        0x4 
 .text.ARCOMMANDS_Filter_SetSkyControllerCoPilotingStatePilotingSourceBehavior
                0x0000000000064e40       0x2c /home/heratom/Firefly-project/out/arsdk-native/build/libARCommands/obj/gen/Sources/ARCOMMANDS_Filter.c.o
                0x0000000000064e40                ARCOMMANDS_Filter_SetSkyControllerCoPilotingStatePilotingSourceBehavior
 *fill*         0x0000000000064e6c        0x4 
 .text.ARCOMMANDS_Filter_SetSkyControllerCalibrationStateMagnetoCalibrationStateBehavior
                0x0000000000064e70       0x2c /home/heratom/Firefly-project/out/arsdk-native/build/libARCommands/obj/gen/Sources/ARCOMMANDS_Filter.c.o
                0x0000000000064e70                ARCOMMANDS_Filter_SetSkyControllerCalibrationStateMagnetoCalibrationStateBehavior
 *fill*         0x0000000000064e9c        0x4 
 .text.ARCOMMANDS_Filter_SetSkyControllerCalibrationStateMagnetoCalibrationQualityUpdatesStateBehavior
                0x0000000000064ea0       0x2c /home/heratom/Firefly-project/out/arsdk-native/build/libARCommands/obj/gen/Sources/ARCOMMANDS_Filter.c.o
                0x0000000000064ea0                ARCOMMANDS_Filter_SetSkyControllerCalibrationStateMagnetoCalibrationQualityUpdatesStateBehavior
 *fill*         0x0000000000064ecc        0x4 
 .text.ARCOMMANDS_Filter_SetSkyControllerButtonEventsSettingsBehavior
                0x0000000000064ed0       0x2c /home/heratom/Firefly-project/out/arsdk-native/build/libARCommands/obj/gen/Sources/ARCOMMANDS_Filter.c.o
                0x0000000000064ed0                ARCOMMANDS_Filter_SetSkyControllerButtonEventsSettingsBehavior
 *fill*         0x0000000000064efc        0x4 
 .text.ARCOMMANDS_Filter_SetUnknownFeature1Behavior
                0x0000000000064f00       0xb0 /home/heratom/Firefly-project/out/arsdk-native/build/libARCommands/obj/gen/Sources/ARCOMMANDS_Filter.c.o
                0x0000000000064f00                ARCOMMANDS_Filter_SetUnknownFeature1Behavior
 .text.ARCOMMANDS_Filter_SetUnknownFeature1GeographicRunBehavior
                0x0000000000064fb0       0x2c /home/heratom/Firefly-project/out/arsdk-native/build/libARCommands/obj/gen/Sources/ARCOMMANDS_Filter.c.o
                0x0000000000064fb0                ARCOMMANDS_Filter_SetUnknownFeature1GeographicRunBehavior
 *fill*         0x0000000000064fdc        0x4 
 .text.ARCOMMANDS_Filter_SetUnknownFeature1RelativeRunBehavior
                0x0000000000064fe0       0x2c /home/heratom/Firefly-project/out/arsdk-native/build/libARCommands/obj/gen/Sources/ARCOMMANDS_Filter.c.o
                0x0000000000064fe0                ARCOMMANDS_Filter_SetUnknownFeature1RelativeRunBehavior
 *fill*         0x000000000006500c        0x4 
 .text.ARCOMMANDS_Filter_SetUnknownFeature1LookAtRunBehavior
                0x0000000000065010       0x2c /home/heratom/Firefly-project/out/arsdk-native/build/libARCommands/obj/gen/Sources/ARCOMMANDS_Filter.c.o
                0x0000000000065010                ARCOMMANDS_Filter_SetUnknownFeature1LookAtRunBehavior
 *fill*         0x000000000006503c        0x4 
 .text.ARCOMMANDS_Filter_SetUnknownFeature1SpiralAnimRunBehavior
                0x0000000000065040       0x2c /home/heratom/Firefly-project/out/arsdk-native/build/libARCommands/obj/gen/Sources/ARCOMMANDS_Filter.c.o
                0x0000000000065040                ARCOMMANDS_Filter_SetUnknownFeature1SpiralAnimRunBehavior
 *fill*         0x000000000006506c        0x4 
 .text.ARCOMMANDS_Filter_SetUnknownFeature1SwingAnimRunBehavior
                0x0000000000065070       0x2c /home/heratom/Firefly-project/out/arsdk-native/build/libARCommands/obj/gen/Sources/ARCOMMANDS_Filter.c.o
                0x0000000000065070                ARCOMMANDS_Filter_SetUnknownFeature1SwingAnimRunBehavior
 *fill*         0x000000000006509c        0x4 
 .text.ARCOMMANDS_Filter_SetUnknownFeature1BoomerangAnimRunBehavior
                0x00000000000650a0       0x2c /home/heratom/Firefly-project/out/arsdk-native/build/libARCommands/obj/gen/Sources/ARCOMMANDS_Filter.c.o
                0x00000000000650a0                ARCOMMANDS_Filter_SetUnknownFeature1BoomerangAnimRunBehavior
 *fill*         0x00000000000650cc        0x4 
 .text.ARCOMMANDS_Filter_SetUnknownFeature1CandleAnimRunBehavior
                0x00000000000650d0       0x2c /home/heratom/Firefly-project/out/arsdk-native/build/libARCommands/obj/gen/Sources/ARCOMMANDS_Filter.c.o
                0x00000000000650d0                ARCOMMANDS_Filter_SetUnknownFeature1CandleAnimRunBehavior
 *fill*         0x00000000000650fc        0x4 
 .text.ARCOMMANDS_Filter_SetUnknownFeature1DollySlideAnimRunBehavior
                0x0000000000065100       0x2c /home/heratom/Firefly-project/out/arsdk-native/build/libARCommands/obj/gen/Sources/ARCOMMANDS_Filter.c.o
                0x0000000000065100                ARCOMMANDS_Filter_SetUnknownFeature1DollySlideAnimRunBehavior
 *fill*         0x000000000006512c        0x4 
 .text.ARCOMMANDS_Filter_SetUnknownFeature1UserFramingPositionBehavior
                0x0000000000065130       0x2c /home/heratom/Firefly-project/out/arsdk-native/build/libARCommands/obj/gen/Sources/ARCOMMANDS_Filter.c.o
                0x0000000000065130                ARCOMMANDS_Filter_SetUnknownFeature1UserFramingPositionBehavior
 *fill*         0x000000000006515c        0x4 
 .text.ARCOMMANDS_Filter_SetUnknownFeature1UserGPSDataBehavior
                0x0000000000065160       0x2c /home/heratom/Firefly-project/out/arsdk-native/build/libARCommands/obj/gen/Sources/ARCOMMANDS_Filter.c.o
                0x0000000000065160                ARCOMMANDS_Filter_SetUnknownFeature1UserGPSDataBehavior
 *fill*         0x000000000006518c        0x4 
 .text.ARCOMMANDS_Filter_SetUnknownFeature1UserBaroDataBehavior
                0x0000000000065190       0x2c /home/heratom/Firefly-project/out/arsdk-native/build/libARCommands/obj/gen/Sources/ARCOMMANDS_Filter.c.o
                0x0000000000065190                ARCOMMANDS_Filter_SetUnknownFeature1UserBaroDataBehavior
 *fill*         0x00000000000651bc        0x4 
 .text.ARCOMMANDS_Filter_SetUnknownFeature1LynxDetectionBehavior
                0x00000000000651c0       0x2c /home/heratom/Firefly-project/out/arsdk-native/build/libARCommands/obj/gen/Sources/ARCOMMANDS_Filter.c.o
                0x00000000000651c0                ARCOMMANDS_Filter_SetUnknownFeature1LynxDetectionBehavior
 *fill*         0x00000000000651ec        0x4 
 .text.ARCOMMANDS_Filter_SetUnknownFeature1AvailabilityBehavior
                0x00000000000651f0       0x2c /home/heratom/Firefly-project/out/arsdk-native/build/libARCommands/obj/gen/Sources/ARCOMMANDS_Filter.c.o
                0x00000000000651f0                ARCOMMANDS_Filter_SetUnknownFeature1AvailabilityBehavior
 *fill*         0x000000000006521c        0x4 
 .text.ARCOMMANDS_Filter_SetUnknownFeature1RunBehavior
                0x0000000000065220       0x2c /home/heratom/Firefly-project/out/arsdk-native/build/libARCommands/obj/gen/Sources/ARCOMMANDS_Filter.c.o
                0x0000000000065220                ARCOMMANDS_Filter_SetUnknownFeature1RunBehavior
 *fill*         0x000000000006524c        0x4 
 .text.ARCOMMANDS_Filter_SetUnknownFeature1GeographicConfigChangedBehavior
                0x0000000000065250       0x2c /home/heratom/Firefly-project/out/arsdk-native/build/libARCommands/obj/gen/Sources/ARCOMMANDS_Filter.c.o
                0x0000000000065250                ARCOMMANDS_Filter_SetUnknownFeature1GeographicConfigChangedBehavior
 *fill*         0x000000000006527c        0x4 
 .text.ARCOMMANDS_Filter_SetUnknownFeature1RelativeConfigChangedBehavior
                0x0000000000065280       0x2c /home/heratom/Firefly-project/out/arsdk-native/build/libARCommands/obj/gen/Sources/ARCOMMANDS_Filter.c.o
                0x0000000000065280                ARCOMMANDS_Filter_SetUnknownFeature1RelativeConfigChangedBehavior
 *fill*         0x00000000000652ac        0x4 
 .text.ARCOMMANDS_Filter_SetUnknownFeature1AnimRunBehavior
                0x00000000000652b0       0x2c /home/heratom/Firefly-project/out/arsdk-native/build/libARCommands/obj/gen/Sources/ARCOMMANDS_Filter.c.o
                0x00000000000652b0                ARCOMMANDS_Filter_SetUnknownFeature1AnimRunBehavior
 *fill*         0x00000000000652dc        0x4 
 .text.ARCOMMANDS_Filter_SetUnknownFeature1SpiralAnimConfigChangedBehavior
                0x00000000000652e0       0x2c /home/heratom/Firefly-project/out/arsdk-native/build/libARCommands/obj/gen/Sources/ARCOMMANDS_Filter.c.o
                0x00000000000652e0                ARCOMMANDS_Filter_SetUnknownFeature1SpiralAnimConfigChangedBehavior
 *fill*         0x000000000006530c        0x4 
 .text.ARCOMMANDS_Filter_SetUnknownFeature1SwingAnimConfigChangedBehavior
                0x0000000000065310       0x2c /home/heratom/Firefly-project/out/arsdk-native/build/libARCommands/obj/gen/Sources/ARCOMMANDS_Filter.c.o
                0x0000000000065310                ARCOMMANDS_Filter_SetUnknownFeature1SwingAnimConfigChangedBehavior
 *fill*         0x000000000006533c        0x4 
 .text.ARCOMMANDS_Filter_SetUnknownFeature1BoomerangAnimConfigChangedBehavior
                0x0000000000065340       0x2c /home/heratom/Firefly-project/out/arsdk-native/build/libARCommands/obj/gen/Sources/ARCOMMANDS_Filter.c.o
                0x0000000000065340                ARCOMMANDS_Filter_SetUnknownFeature1BoomerangAnimConfigChangedBehavior
 *fill*         0x000000000006536c        0x4 
 .text.ARCOMMANDS_Filter_SetUnknownFeature1CandleAnimConfigChangedBehavior
                0x0000000000065370       0x2c /home/heratom/Firefly-project/out/arsdk-native/build/libARCommands/obj/gen/Sources/ARCOMMANDS_Filter.c.o
                0x0000000000065370                ARCOMMANDS_Filter_SetUnknownFeature1CandleAnimConfigChangedBehavior
 *fill*         0x000000000006539c        0x4 
 .text.ARCOMMANDS_Filter_SetUnknownFeature1DollySlideAnimConfigChangedBehavior
                0x00000000000653a0       0x2c /home/heratom/Firefly-project/out/arsdk-native/build/libARCommands/obj/gen/Sources/ARCOMMANDS_Filter.c.o
                0x00000000000653a0                ARCOMMANDS_Filter_SetUnknownFeature1DollySlideAnimConfigChangedBehavior
 *fill*         0x00000000000653cc        0x4 
 .text.ARCOMMANDS_Filter_SetUnknownFeature1UserFramingPositionChangedBehavior
                0x00000000000653d0       0x2c /home/heratom/Firefly-project/out/arsdk-native/build/libARCommands/obj/gen/Sources/ARCOMMANDS_Filter.c.o
                0x00000000000653d0                ARCOMMANDS_Filter_SetUnknownFeature1UserFramingPositionChangedBehavior
 *fill*         0x00000000000653fc        0x4 
 .text.ARCOMMANDS_Filter_SetCommonBehavior
                0x0000000000065400      0x1e2 /home/heratom/Firefly-project/out/arsdk-native/build/libARCommands/obj/gen/Sources/ARCOMMANDS_Filter.c.o
                0x0000000000065400                ARCOMMANDS_Filter_SetCommonBehavior
 *fill*         0x00000000000655e2        0xe 
 .text.ARCOMMANDS_Filter_SetCommonNetworkBehavior
                0x00000000000655f0       0x2c /home/heratom/Firefly-project/out/arsdk-native/build/libARCommands/obj/gen/Sources/ARCOMMANDS_Filter.c.o
                0x00000000000655f0                ARCOMMANDS_Filter_SetCommonNetworkBehavior
 *fill*         0x000000000006561c        0x4 
 .text.ARCOMMANDS_Filter_SetCommonNetworkEventBehavior
                0x0000000000065620       0x2c /home/heratom/Firefly-project/out/arsdk-native/build/libARCommands/obj/gen/Sources/ARCOMMANDS_Filter.c.o
                0x0000000000065620                ARCOMMANDS_Filter_SetCommonNetworkEventBehavior
 *fill*         0x000000000006564c        0x4 
 .text.ARCOMMANDS_Filter_SetCommonSettingsBehavior
                0x0000000000065650       0x44 /home/heratom/Firefly-project/out/arsdk-native/build/libARCommands/obj/gen/Sources/ARCOMMANDS_Filter.c.o
                0x0000000000065650                ARCOMMANDS_Filter_SetCommonSettingsBehavior
 *fill*         0x0000000000065694        0xc 
 .text.ARCOMMANDS_Filter_SetCommonSettingsStateBehavior
                0x00000000000656a0       0x56 /home/heratom/Firefly-project/out/arsdk-native/build/libARCommands/obj/gen/Sources/ARCOMMANDS_Filter.c.o
                0x00000000000656a0                ARCOMMANDS_Filter_SetCommonSettingsStateBehavior
 *fill*         0x00000000000656f6        0xa 
 .text.ARCOMMANDS_Filter_SetCommonCommonBehavior
                0x0000000000065700       0x3e /home/heratom/Firefly-project/out/arsdk-native/build/libARCommands/obj/gen/Sources/ARCOMMANDS_Filter.c.o
                0x0000000000065700                ARCOMMANDS_Filter_SetCommonCommonBehavior
 *fill*         0x000000000006573e        0x2 
 .text.ARCOMMANDS_Filter_SetCommonCommonStateBehavior
                0x0000000000065740       0x68 /home/heratom/Firefly-project/out/arsdk-native/build/libARCommands/obj/gen/Sources/ARCOMMANDS_Filter.c.o
                0x0000000000065740                ARCOMMANDS_Filter_SetCommonCommonStateBehavior
 *fill*         0x00000000000657a8        0x8 
 .text.ARCOMMANDS_Filter_SetCommonOverHeatBehavior
                0x00000000000657b0       0x32 /home/heratom/Firefly-project/out/arsdk-native/build/libARCommands/obj/gen/Sources/ARCOMMANDS_Filter.c.o
                0x00000000000657b0                ARCOMMANDS_Filter_SetCommonOverHeatBehavior
 *fill*         0x00000000000657e2        0xe 
 .text.ARCOMMANDS_Filter_SetCommonOverHeatStateBehavior
                0x00000000000657f0       0x32 /home/heratom/Firefly-project/out/arsdk-native/build/libARCommands/obj/gen/Sources/ARCOMMANDS_Filter.c.o
                0x00000000000657f0                ARCOMMANDS_Filter_SetCommonOverHeatStateBehavior
 *fill*         0x0000000000065822        0xe 
 .text.ARCOMMANDS_Filter_SetCommonControllerBehavior
                0x0000000000065830       0x2c /home/heratom/Firefly-project/out/arsdk-native/build/libARCommands/obj/gen/Sources/ARCOMMANDS_Filter.c.o
                0x0000000000065830                ARCOMMANDS_Filter_SetCommonControllerBehavior
 *fill*         0x000000000006585c        0x4 
 .text.ARCOMMANDS_Filter_SetCommonWifiSettingsBehavior
                0x0000000000065860       0x2c /home/heratom/Firefly-project/out/arsdk-native/build/libARCommands/obj/gen/Sources/ARCOMMANDS_Filter.c.o
                0x0000000000065860                ARCOMMANDS_Filter_SetCommonWifiSettingsBehavior
 *fill*         0x000000000006588c        0x4 
 .text.ARCOMMANDS_Filter_SetCommonWifiSettingsStateBehavior
                0x0000000000065890       0x2c /home/heratom/Firefly-project/out/arsdk-native/build/libARCommands/obj/gen/Sources/ARCOMMANDS_Filter.c.o
                0x0000000000065890                ARCOMMANDS_Filter_SetCommonWifiSettingsStateBehavior
 *fill*         0x00000000000658bc        0x4 
 .text.ARCOMMANDS_Filter_SetCommonMavlinkBehavior
                0x00000000000658c0       0x38 /home/heratom/Firefly-project/out/arsdk-native/build/libARCommands/obj/gen/Sources/ARCOMMANDS_Filter.c.o
                0x00000000000658c0                ARCOMMANDS_Filter_SetCommonMavlinkBehavior
 *fill*         0x00000000000658f8        0x8 
 .text.ARCOMMANDS_Filter_SetCommonMavlinkStateBehavior
                0x0000000000065900       0x32 /home/heratom/Firefly-project/out/arsdk-native/build/libARCommands/obj/gen/Sources/ARCOMMANDS_Filter.c.o
                0x0000000000065900                ARCOMMANDS_Filter_SetCommonMavlinkStateBehavior
 *fill*         0x0000000000065932        0xe 
 .text.ARCOMMANDS_Filter_SetCommonCalibrationBehavior
                0x0000000000065940       0x2c /home/heratom/Firefly-project/out/arsdk-native/build/libARCommands/obj/gen/Sources/ARCOMMANDS_Filter.c.o
                0x0000000000065940                ARCOMMANDS_Filter_SetCommonCalibrationBehavior
 *fill*         0x000000000006596c        0x4 
 .text.ARCOMMANDS_Filter_SetCommonCalibrationStateBehavior
                0x0000000000065970       0x3e /home/heratom/Firefly-project/out/arsdk-native/build/libARCommands/obj/gen/Sources/ARCOMMANDS_Filter.c.o
                0x0000000000065970                ARCOMMANDS_Filter_SetCommonCalibrationStateBehavior
 *fill*         0x00000000000659ae        0x2 
 .text.ARCOMMANDS_Filter_SetCommonCameraSettingsStateBehavior
                0x00000000000659b0       0x2c /home/heratom/Firefly-project/out/arsdk-native/build/libARCommands/obj/gen/Sources/ARCOMMANDS_Filter.c.o
                0x00000000000659b0                ARCOMMANDS_Filter_SetCommonCameraSettingsStateBehavior
 *fill*         0x00000000000659dc        0x4 
 .text.ARCOMMANDS_Filter_SetCommonGPSBehavior
                0x00000000000659e0       0x2c /home/heratom/Firefly-project/out/arsdk-native/build/libARCommands/obj/gen/Sources/ARCOMMANDS_Filter.c.o
                0x00000000000659e0                ARCOMMANDS_Filter_SetCommonGPSBehavior
 *fill*         0x0000000000065a0c        0x4 
 .text.ARCOMMANDS_Filter_SetCommonFlightPlanStateBehavior
                0x0000000000065a10       0x32 /home/heratom/Firefly-project/out/arsdk-native/build/libARCommands/obj/gen/Sources/ARCOMMANDS_Filter.c.o
                0x0000000000065a10                ARCOMMANDS_Filter_SetCommonFlightPlanStateBehavior
 *fill*         0x0000000000065a42        0xe 
 .text.ARCOMMANDS_Filter_SetCommonFlightPlanEventBehavior
                0x0000000000065a50       0x32 /home/heratom/Firefly-project/out/arsdk-native/build/libARCommands/obj/gen/Sources/ARCOMMANDS_Filter.c.o
                0x0000000000065a50                ARCOMMANDS_Filter_SetCommonFlightPlanEventBehavior
 *fill*         0x0000000000065a82        0xe 
 .text.ARCOMMANDS_Filter_SetCommonARLibsVersionsStateBehavior
                0x0000000000065a90       0x38 /home/heratom/Firefly-project/out/arsdk-native/build/libARCommands/obj/gen/Sources/ARCOMMANDS_Filter.c.o
                0x0000000000065a90                ARCOMMANDS_Filter_SetCommonARLibsVersionsStateBehavior
 *fill*         0x0000000000065ac8        0x8 
 .text.ARCOMMANDS_Filter_SetCommonAudioBehavior
                0x0000000000065ad0       0x2c /home/heratom/Firefly-project/out/arsdk-native/build/libARCommands/obj/gen/Sources/ARCOMMANDS_Filter.c.o
                0x0000000000065ad0                ARCOMMANDS_Filter_SetCommonAudioBehavior
 *fill*         0x0000000000065afc        0x4 
 .text.ARCOMMANDS_Filter_SetCommonAudioStateBehavior
                0x0000000000065b00       0x2c /home/heratom/Firefly-project/out/arsdk-native/build/libARCommands/obj/gen/Sources/ARCOMMANDS_Filter.c.o
                0x0000000000065b00                ARCOMMANDS_Filter_SetCommonAudioStateBehavior
 *fill*         0x0000000000065b2c        0x4 
 .text.ARCOMMANDS_Filter_SetCommonHeadlightsBehavior
                0x0000000000065b30       0x2c /home/heratom/Firefly-project/out/arsdk-native/build/libARCommands/obj/gen/Sources/ARCOMMANDS_Filter.c.o
                0x0000000000065b30                ARCOMMANDS_Filter_SetCommonHeadlightsBehavior
 *fill*         0x0000000000065b5c        0x4 
 .text.ARCOMMANDS_Filter_SetCommonHeadlightsStateBehavior
                0x0000000000065b60       0x2c /home/heratom/Firefly-project/out/arsdk-native/build/libARCommands/obj/gen/Sources/ARCOMMANDS_Filter.c.o
                0x0000000000065b60                ARCOMMANDS_Filter_SetCommonHeadlightsStateBehavior
 *fill*         0x0000000000065b8c        0x4 
 .text.ARCOMMANDS_Filter_SetCommonAnimationsBehavior
                0x0000000000065b90       0x38 /home/heratom/Firefly-project/out/arsdk-native/build/libARCommands/obj/gen/Sources/ARCOMMANDS_Filter.c.o
                0x0000000000065b90                ARCOMMANDS_Filter_SetCommonAnimationsBehavior
 *fill*         0x0000000000065bc8        0x8 
 .text.ARCOMMANDS_Filter_SetCommonAnimationsStateBehavior
                0x0000000000065bd0       0x2c /home/heratom/Firefly-project/out/arsdk-native/build/libARCommands/obj/gen/Sources/ARCOMMANDS_Filter.c.o
                0x0000000000065bd0                ARCOMMANDS_Filter_SetCommonAnimationsStateBehavior
 *fill*         0x0000000000065bfc        0x4 
 .text.ARCOMMANDS_Filter_SetCommonAccessoryBehavior
                0x0000000000065c00       0x2c /home/heratom/Firefly-project/out/arsdk-native/build/libARCommands/obj/gen/Sources/ARCOMMANDS_Filter.c.o
                0x0000000000065c00                ARCOMMANDS_Filter_SetCommonAccessoryBehavior
 *fill*         0x0000000000065c2c        0x4 
 .text.ARCOMMANDS_Filter_SetCommonAccessoryStateBehavior
                0x0000000000065c30       0x38 /home/heratom/Firefly-project/out/arsdk-native/build/libARCommands/obj/gen/Sources/ARCOMMANDS_Filter.c.o
                0x0000000000065c30                ARCOMMANDS_Filter_SetCommonAccessoryStateBehavior
 *fill*         0x0000000000065c68        0x8 
 .text.ARCOMMANDS_Filter_SetCommonChargerBehavior
                0x0000000000065c70       0x2c /home/heratom/Firefly-project/out/arsdk-native/build/libARCommands/obj/gen/Sources/ARCOMMANDS_Filter.c.o
                0x0000000000065c70                ARCOMMANDS_Filter_SetCommonChargerBehavior
 *fill*         0x0000000000065c9c        0x4 
 .text.ARCOMMANDS_Filter_SetCommonChargerStateBehavior
                0x0000000000065ca0       0x3e /home/heratom/Firefly-project/out/arsdk-native/build/libARCommands/obj/gen/Sources/ARCOMMANDS_Filter.c.o
                0x0000000000065ca0                ARCOMMANDS_Filter_SetCommonChargerStateBehavior
 *fill*         0x0000000000065cde        0x2 
 .text.ARCOMMANDS_Filter_SetCommonRunStateBehavior
                0x0000000000065ce0       0x2c /home/heratom/Firefly-project/out/arsdk-native/build/libARCommands/obj/gen/Sources/ARCOMMANDS_Filter.c.o
                0x0000000000065ce0                ARCOMMANDS_Filter_SetCommonRunStateBehavior
 *fill*         0x0000000000065d0c        0x4 
 .text.ARCOMMANDS_Filter_SetCommonNetworkDisconnectBehavior
                0x0000000000065d10       0x2c /home/heratom/Firefly-project/out/arsdk-native/build/libARCommands/obj/gen/Sources/ARCOMMANDS_Filter.c.o
                0x0000000000065d10                ARCOMMANDS_Filter_SetCommonNetworkDisconnectBehavior
 *fill*         0x0000000000065d3c        0x4 
 .text.ARCOMMANDS_Filter_SetCommonSettingsAllSettingsBehavior
                0x0000000000065d40       0x2c /home/heratom/Firefly-project/out/arsdk-native/build/libARCommands/obj/gen/Sources/ARCOMMANDS_Filter.c.o
                0x0000000000065d40                ARCOMMANDS_Filter_SetCommonSettingsAllSettingsBehavior
 *fill*         0x0000000000065d6c        0x4 
 .text.ARCOMMANDS_Filter_SetCommonSettingsResetBehavior
                0x0000000000065d70       0x2c /home/heratom/Firefly-project/out/arsdk-native/build/libARCommands/obj/gen/Sources/ARCOMMANDS_Filter.c.o
                0x0000000000065d70                ARCOMMANDS_Filter_SetCommonSettingsResetBehavior
 *fill*         0x0000000000065d9c        0x4 
 .text.ARCOMMANDS_Filter_SetCommonSettingsProductNameBehavior
                0x0000000000065da0       0x2c /home/heratom/Firefly-project/out/arsdk-native/build/libARCommands/obj/gen/Sources/ARCOMMANDS_Filter.c.o
                0x0000000000065da0                ARCOMMANDS_Filter_SetCommonSettingsProductNameBehavior
 *fill*         0x0000000000065dcc        0x4 
 .text.ARCOMMANDS_Filter_SetCommonSettingsCountryBehavior
                0x0000000000065dd0       0x2c /home/heratom/Firefly-project/out/arsdk-native/build/libARCommands/obj/gen/Sources/ARCOMMANDS_Filter.c.o
                0x0000000000065dd0                ARCOMMANDS_Filter_SetCommonSettingsCountryBehavior
 *fill*         0x0000000000065dfc        0x4 
 .text.ARCOMMANDS_Filter_SetCommonSettingsAutoCountryBehavior
                0x0000000000065e00       0x2c /home/heratom/Firefly-project/out/arsdk-native/build/libARCommands/obj/gen/Sources/ARCOMMANDS_Filter.c.o
                0x0000000000065e00                ARCOMMANDS_Filter_SetCommonSettingsAutoCountryBehavior
 *fill*         0x0000000000065e2c        0x4 
 .text.ARCOMMANDS_Filter_SetCommonCommonAllStatesBehavior
                0x0000000000065e30       0x2c /home/heratom/Firefly-project/out/arsdk-native/build/libARCommands/obj/gen/Sources/ARCOMMANDS_Filter.c.o
                0x0000000000065e30                ARCOMMANDS_Filter_SetCommonCommonAllStatesBehavior
 *fill*         0x0000000000065e5c        0x4 
 .text.ARCOMMANDS_Filter_SetCommonCommonCurrentDateBehavior
                0x0000000000065e60       0x2c /home/heratom/Firefly-project/out/arsdk-native/build/libARCommands/obj/gen/Sources/ARCOMMANDS_Filter.c.o
                0x0000000000065e60                ARCOMMANDS_Filter_SetCommonCommonCurrentDateBehavior
 *fill*         0x0000000000065e8c        0x4 
 .text.ARCOMMANDS_Filter_SetCommonCommonCurrentTimeBehavior
                0x0000000000065e90       0x2c /home/heratom/Firefly-project/out/arsdk-native/build/libARCommands/obj/gen/Sources/ARCOMMANDS_Filter.c.o
                0x0000000000065e90                ARCOMMANDS_Filter_SetCommonCommonCurrentTimeBehavior
 *fill*         0x0000000000065ebc        0x4 
 .text.ARCOMMANDS_Filter_SetCommonCommonRebootBehavior
                0x0000000000065ec0       0x2c /home/heratom/Firefly-project/out/arsdk-native/build/libARCommands/obj/gen/Sources/ARCOMMANDS_Filter.c.o
                0x0000000000065ec0                ARCOMMANDS_Filter_SetCommonCommonRebootBehavior
 *fill*         0x0000000000065eec        0x4 
 .text.ARCOMMANDS_Filter_SetCommonOverHeatSwitchOffBehavior
                0x0000000000065ef0       0x2c /home/heratom/Firefly-project/out/arsdk-native/build/libARCommands/obj/gen/Sources/ARCOMMANDS_Filter.c.o
                0x0000000000065ef0                ARCOMMANDS_Filter_SetCommonOverHeatSwitchOffBehavior
 *fill*         0x0000000000065f1c        0x4 
 .text.ARCOMMANDS_Filter_SetCommonOverHeatVentilateBehavior
                0x0000000000065f20       0x2c /home/heratom/Firefly-project/out/arsdk-native/build/libARCommands/obj/gen/Sources/ARCOMMANDS_Filter.c.o
                0x0000000000065f20                ARCOMMANDS_Filter_SetCommonOverHeatVentilateBehavior
 *fill*         0x0000000000065f4c        0x4 
 .text.ARCOMMANDS_Filter_SetCommonControllerIsPilotingBehavior
                0x0000000000065f50       0x2c /home/heratom/Firefly-project/out/arsdk-native/build/libARCommands/obj/gen/Sources/ARCOMMANDS_Filter.c.o
                0x0000000000065f50                ARCOMMANDS_Filter_SetCommonControllerIsPilotingBehavior
 *fill*         0x0000000000065f7c        0x4 
 .text.ARCOMMANDS_Filter_SetCommonWifiSettingsOutdoorSettingBehavior
                0x0000000000065f80       0x2c /home/heratom/Firefly-project/out/arsdk-native/build/libARCommands/obj/gen/Sources/ARCOMMANDS_Filter.c.o
                0x0000000000065f80                ARCOMMANDS_Filter_SetCommonWifiSettingsOutdoorSettingBehavior
 *fill*         0x0000000000065fac        0x4 
 .text.ARCOMMANDS_Filter_SetCommonMavlinkStartBehavior
                0x0000000000065fb0       0x2c /home/heratom/Firefly-project/out/arsdk-native/build/libARCommands/obj/gen/Sources/ARCOMMANDS_Filter.c.o
                0x0000000000065fb0                ARCOMMANDS_Filter_SetCommonMavlinkStartBehavior
 *fill*         0x0000000000065fdc        0x4 
 .text.ARCOMMANDS_Filter_SetCommonMavlinkPauseBehavior
                0x0000000000065fe0       0x2c /home/heratom/Firefly-project/out/arsdk-native/build/libARCommands/obj/gen/Sources/ARCOMMANDS_Filter.c.o
                0x0000000000065fe0                ARCOMMANDS_Filter_SetCommonMavlinkPauseBehavior
 *fill*         0x000000000006600c        0x4 
 .text.ARCOMMANDS_Filter_SetCommonMavlinkStopBehavior
                0x0000000000066010       0x2c /home/heratom/Firefly-project/out/arsdk-native/build/libARCommands/obj/gen/Sources/ARCOMMANDS_Filter.c.o
                0x0000000000066010                ARCOMMANDS_Filter_SetCommonMavlinkStopBehavior
 *fill*         0x000000000006603c        0x4 
 .text.ARCOMMANDS_Filter_SetCommonCalibrationMagnetoCalibrationBehavior
                0x0000000000066040       0x2c /home/heratom/Firefly-project/out/arsdk-native/build/libARCommands/obj/gen/Sources/ARCOMMANDS_Filter.c.o
                0x0000000000066040                ARCOMMANDS_Filter_SetCommonCalibrationMagnetoCalibrationBehavior
 *fill*         0x000000000006606c        0x4 
 .text.ARCOMMANDS_Filter_SetCommonGPSControllerPositionForRunBehavior
                0x0000000000066070       0x2c /home/heratom/Firefly-project/out/arsdk-native/build/libARCommands/obj/gen/Sources/ARCOMMANDS_Filter.c.o
                0x0000000000066070                ARCOMMANDS_Filter_SetCommonGPSControllerPositionForRunBehavior
 *fill*         0x000000000006609c        0x4 
 .text.ARCOMMANDS_Filter_SetCommonAudioControllerReadyForStreamingBehavior
                0x00000000000660a0       0x2c /home/heratom/Firefly-project/out/arsdk-native/build/libARCommands/obj/gen/Sources/ARCOMMANDS_Filter.c.o
                0x00000000000660a0                ARCOMMANDS_Filter_SetCommonAudioControllerReadyForStreamingBehavior
 *fill*         0x00000000000660cc        0x4 
 .text.ARCOMMANDS_Filter_SetCommonHeadlightsIntensityBehavior
                0x00000000000660d0       0x2c /home/heratom/Firefly-project/out/arsdk-native/build/libARCommands/obj/gen/Sources/ARCOMMANDS_Filter.c.o
                0x00000000000660d0                ARCOMMANDS_Filter_SetCommonHeadlightsIntensityBehavior
 *fill*         0x00000000000660fc        0x4 
 .text.ARCOMMANDS_Filter_SetCommonAnimationsStartAnimationBehavior
                0x0000000000066100       0x2c /home/heratom/Firefly-project/out/arsdk-native/build/libARCommands/obj/gen/Sources/ARCOMMANDS_Filter.c.o
                0x0000000000066100                ARCOMMANDS_Filter_SetCommonAnimationsStartAnimationBehavior
 *fill*         0x000000000006612c        0x4 
 .text.ARCOMMANDS_Filter_SetCommonAnimationsStopAnimationBehavior
                0x0000000000066130       0x2c /home/heratom/Firefly-project/out/arsdk-native/build/libARCommands/obj/gen/Sources/ARCOMMANDS_Filter.c.o
                0x0000000000066130                ARCOMMANDS_Filter_SetCommonAnimationsStopAnimationBehavior
 *fill*         0x000000000006615c        0x4 
 .text.ARCOMMANDS_Filter_SetCommonAnimationsStopAllAnimationsBehavior
                0x0000000000066160       0x2c /home/heratom/Firefly-project/out/arsdk-native/build/libARCommands/obj/gen/Sources/ARCOMMANDS_Filter.c.o
                0x0000000000066160                ARCOMMANDS_Filter_SetCommonAnimationsStopAllAnimationsBehavior
 *fill*         0x000000000006618c        0x4 
 .text.ARCOMMANDS_Filter_SetCommonAccessoryConfigBehavior
                0x0000000000066190       0x2c /home/heratom/Firefly-project/out/arsdk-native/build/libARCommands/obj/gen/Sources/ARCOMMANDS_Filter.c.o
                0x0000000000066190                ARCOMMANDS_Filter_SetCommonAccessoryConfigBehavior
 *fill*         0x00000000000661bc        0x4 
 .text.ARCOMMANDS_Filter_SetCommonChargerSetMaxChargeRateBehavior
                0x00000000000661c0       0x2c /home/heratom/Firefly-project/out/arsdk-native/build/libARCommands/obj/gen/Sources/ARCOMMANDS_Filter.c.o
                0x00000000000661c0                ARCOMMANDS_Filter_SetCommonChargerSetMaxChargeRateBehavior
 *fill*         0x00000000000661ec        0x4 
 .text.ARCOMMANDS_Filter_SetCommonNetworkEventDisconnectionBehavior
                0x00000000000661f0       0x2c /home/heratom/Firefly-project/out/arsdk-native/build/libARCommands/obj/gen/Sources/ARCOMMANDS_Filter.c.o
                0x00000000000661f0                ARCOMMANDS_Filter_SetCommonNetworkEventDisconnectionBehavior
 *fill*         0x000000000006621c        0x4 
 .text.ARCOMMANDS_Filter_SetCommonSettingsStateAllSettingsChangedBehavior
                0x0000000000066220       0x2c /home/heratom/Firefly-project/out/arsdk-native/build/libARCommands/obj/gen/Sources/ARCOMMANDS_Filter.c.o
                0x0000000000066220                ARCOMMANDS_Filter_SetCommonSettingsStateAllSettingsChangedBehavior
 *fill*         0x000000000006624c        0x4 
 .text.ARCOMMANDS_Filter_SetCommonSettingsStateResetChangedBehavior
                0x0000000000066250       0x2c /home/heratom/Firefly-project/out/arsdk-native/build/libARCommands/obj/gen/Sources/ARCOMMANDS_Filter.c.o
                0x0000000000066250                ARCOMMANDS_Filter_SetCommonSettingsStateResetChangedBehavior
 *fill*         0x000000000006627c        0x4 
 .text.ARCOMMANDS_Filter_SetCommonSettingsStateProductNameChangedBehavior
                0x0000000000066280       0x2c /home/heratom/Firefly-project/out/arsdk-native/build/libARCommands/obj/gen/Sources/ARCOMMANDS_Filter.c.o
                0x0000000000066280                ARCOMMANDS_Filter_SetCommonSettingsStateProductNameChangedBehavior
 *fill*         0x00000000000662ac        0x4 
 .text.ARCOMMANDS_Filter_SetCommonSettingsStateProductVersionChangedBehavior
                0x00000000000662b0       0x2c /home/heratom/Firefly-project/out/arsdk-native/build/libARCommands/obj/gen/Sources/ARCOMMANDS_Filter.c.o
                0x00000000000662b0                ARCOMMANDS_Filter_SetCommonSettingsStateProductVersionChangedBehavior
 *fill*         0x00000000000662dc        0x4 
 .text.ARCOMMANDS_Filter_SetCommonSettingsStateProductSerialHighChangedBehavior
                0x00000000000662e0       0x2c /home/heratom/Firefly-project/out/arsdk-native/build/libARCommands/obj/gen/Sources/ARCOMMANDS_Filter.c.o
                0x00000000000662e0                ARCOMMANDS_Filter_SetCommonSettingsStateProductSerialHighChangedBehavior
 *fill*         0x000000000006630c        0x4 
 .text.ARCOMMANDS_Filter_SetCommonSettingsStateProductSerialLowChangedBehavior
                0x0000000000066310       0x2c /home/heratom/Firefly-project/out/arsdk-native/build/libARCommands/obj/gen/Sources/ARCOMMANDS_Filter.c.o
                0x0000000000066310                ARCOMMANDS_Filter_SetCommonSettingsStateProductSerialLowChangedBehavior
 *fill*         0x000000000006633c        0x4 
 .text.ARCOMMANDS_Filter_SetCommonSettingsStateCountryChangedBehavior
                0x0000000000066340       0x2c /home/heratom/Firefly-project/out/arsdk-native/build/libARCommands/obj/gen/Sources/ARCOMMANDS_Filter.c.o
                0x0000000000066340                ARCOMMANDS_Filter_SetCommonSettingsStateCountryChangedBehavior
 *fill*         0x000000000006636c        0x4 
 .text.ARCOMMANDS_Filter_SetCommonSettingsStateAutoCountryChangedBehavior
                0x0000000000066370       0x2c /home/heratom/Firefly-project/out/arsdk-native/build/libARCommands/obj/gen/Sources/ARCOMMANDS_Filter.c.o
                0x0000000000066370                ARCOMMANDS_Filter_SetCommonSettingsStateAutoCountryChangedBehavior
 *fill*         0x000000000006639c        0x4 
 .text.ARCOMMANDS_Filter_SetCommonCommonStateAllStatesChangedBehavior
                0x00000000000663a0       0x2c /home/heratom/Firefly-project/out/arsdk-native/build/libARCommands/obj/gen/Sources/ARCOMMANDS_Filter.c.o
                0x00000000000663a0                ARCOMMANDS_Filter_SetCommonCommonStateAllStatesChangedBehavior
 *fill*         0x00000000000663cc        0x4 
 .text.ARCOMMANDS_Filter_SetCommonCommonStateBatteryStateChangedBehavior
                0x00000000000663d0       0x2c /home/heratom/Firefly-project/out/arsdk-native/build/libARCommands/obj/gen/Sources/ARCOMMANDS_Filter.c.o
                0x00000000000663d0                ARCOMMANDS_Filter_SetCommonCommonStateBatteryStateChangedBehavior
 *fill*         0x00000000000663fc        0x4 
 .text.ARCOMMANDS_Filter_SetCommonCommonStateMassStorageStateListChangedBehavior
                0x0000000000066400       0x2c /home/heratom/Firefly-project/out/arsdk-native/build/libARCommands/obj/gen/Sources/ARCOMMANDS_Filter.c.o
                0x0000000000066400                ARCOMMANDS_Filter_SetCommonCommonStateMassStorageStateListChangedBehavior
 *fill*         0x000000000006642c        0x4 
 .text.ARCOMMANDS_Filter_SetCommonCommonStateMassStorageInfoStateListChangedBehavior
                0x0000000000066430       0x2c /home/heratom/Firefly-project/out/arsdk-native/build/libARCommands/obj/gen/Sources/ARCOMMANDS_Filter.c.o
                0x0000000000066430                ARCOMMANDS_Filter_SetCommonCommonStateMassStorageInfoStateListChangedBehavior
 *fill*         0x000000000006645c        0x4 
 .text.ARCOMMANDS_Filter_SetCommonCommonStateCurrentDateChangedBehavior
                0x0000000000066460       0x2c /home/heratom/Firefly-project/out/arsdk-native/build/libARCommands/obj/gen/Sources/ARCOMMANDS_Filter.c.o
                0x0000000000066460                ARCOMMANDS_Filter_SetCommonCommonStateCurrentDateChangedBehavior
 *fill*         0x000000000006648c        0x4 
 .text.ARCOMMANDS_Filter_SetCommonCommonStateCurrentTimeChangedBehavior
                0x0000000000066490       0x2c /home/heratom/Firefly-project/out/arsdk-native/build/libARCommands/obj/gen/Sources/ARCOMMANDS_Filter.c.o
                0x0000000000066490                ARCOMMANDS_Filter_SetCommonCommonStateCurrentTimeChangedBehavior
 *fill*         0x00000000000664bc        0x4 
 .text.ARCOMMANDS_Filter_SetCommonCommonStateMassStorageInfoRemainingListChangedBehavior
                0x00000000000664c0       0x2c /home/heratom/Firefly-project/out/arsdk-native/build/libARCommands/obj/gen/Sources/ARCOMMANDS_Filter.c.o
                0x00000000000664c0                ARCOMMANDS_Filter_SetCommonCommonStateMassStorageInfoRemainingListChangedBehavior
 *fill*         0x00000000000664ec        0x4 
 .text.ARCOMMANDS_Filter_SetCommonCommonStateWifiSignalChangedBehavior
                0x00000000000664f0       0x2c /home/heratom/Firefly-project/out/arsdk-native/build/libARCommands/obj/gen/Sources/ARCOMMANDS_Filter.c.o
                0x00000000000664f0                ARCOMMANDS_Filter_SetCommonCommonStateWifiSignalChangedBehavior
 *fill*         0x000000000006651c        0x4 
 .text.ARCOMMANDS_Filter_SetCommonCommonStateSensorsStatesListChangedBehavior
                0x0000000000066520       0x2c /home/heratom/Firefly-project/out/arsdk-native/build/libARCommands/obj/gen/Sources/ARCOMMANDS_Filter.c.o
                0x0000000000066520                ARCOMMANDS_Filter_SetCommonCommonStateSensorsStatesListChangedBehavior
 *fill*         0x000000000006654c        0x4 
 .text.ARCOMMANDS_Filter_SetCommonCommonStateProductModelBehavior
                0x0000000000066550       0x2c /home/heratom/Firefly-project/out/arsdk-native/build/libARCommands/obj/gen/Sources/ARCOMMANDS_Filter.c.o
                0x0000000000066550                ARCOMMANDS_Filter_SetCommonCommonStateProductModelBehavior
 *fill*         0x000000000006657c        0x4 
 .text.ARCOMMANDS_Filter_SetCommonCommonStateCountryListKnownBehavior
                0x0000000000066580       0x2c /home/heratom/Firefly-project/out/arsdk-native/build/libARCommands/obj/gen/Sources/ARCOMMANDS_Filter.c.o
                0x0000000000066580                ARCOMMANDS_Filter_SetCommonCommonStateCountryListKnownBehavior
 *fill*         0x00000000000665ac        0x4 
 .text.ARCOMMANDS_Filter_SetCommonOverHeatStateOverHeatChangedBehavior
                0x00000000000665b0       0x2c /home/heratom/Firefly-project/out/arsdk-native/build/libARCommands/obj/gen/Sources/ARCOMMANDS_Filter.c.o
                0x00000000000665b0                ARCOMMANDS_Filter_SetCommonOverHeatStateOverHeatChangedBehavior
 *fill*         0x00000000000665dc        0x4 
 .text.ARCOMMANDS_Filter_SetCommonOverHeatStateOverHeatRegulationChangedBehavior
                0x00000000000665e0       0x2c /home/heratom/Firefly-project/out/arsdk-native/build/libARCommands/obj/gen/Sources/ARCOMMANDS_Filter.c.o
                0x00000000000665e0                ARCOMMANDS_Filter_SetCommonOverHeatStateOverHeatRegulationChangedBehavior
 *fill*         0x000000000006660c        0x4 
 .text.ARCOMMANDS_Filter_SetCommonWifiSettingsStateOutdoorSettingsChangedBehavior
                0x0000000000066610       0x2c /home/heratom/Firefly-project/out/arsdk-native/build/libARCommands/obj/gen/Sources/ARCOMMANDS_Filter.c.o
                0x0000000000066610                ARCOMMANDS_Filter_SetCommonWifiSettingsStateOutdoorSettingsChangedBehavior
 *fill*         0x000000000006663c        0x4 
 .text.ARCOMMANDS_Filter_SetCommonMavlinkStateMavlinkFilePlayingStateChangedBehavior
                0x0000000000066640       0x2c /home/heratom/Firefly-project/out/arsdk-native/build/libARCommands/obj/gen/Sources/ARCOMMANDS_Filter.c.o
                0x0000000000066640                ARCOMMANDS_Filter_SetCommonMavlinkStateMavlinkFilePlayingStateChangedBehavior
 *fill*         0x000000000006666c        0x4 
 .text.ARCOMMANDS_Filter_SetCommonMavlinkStateMavlinkPlayErrorStateChangedBehavior
                0x0000000000066670       0x2c /home/heratom/Firefly-project/out/arsdk-native/build/libARCommands/obj/gen/Sources/ARCOMMANDS_Filter.c.o
                0x0000000000066670                ARCOMMANDS_Filter_SetCommonMavlinkStateMavlinkPlayErrorStateChangedBehavior
 *fill*         0x000000000006669c        0x4 
 .text.ARCOMMANDS_Filter_SetCommonCalibrationStateMagnetoCalibrationStateChangedBehavior
                0x00000000000666a0       0x2c /home/heratom/Firefly-project/out/arsdk-native/build/libARCommands/obj/gen/Sources/ARCOMMANDS_Filter.c.o
                0x00000000000666a0                ARCOMMANDS_Filter_SetCommonCalibrationStateMagnetoCalibrationStateChangedBehavior
 *fill*         0x00000000000666cc        0x4 
 .text.ARCOMMANDS_Filter_SetCommonCalibrationStateMagnetoCalibrationRequiredStateBehavior
                0x00000000000666d0       0x2c /home/heratom/Firefly-project/out/arsdk-native/build/libARCommands/obj/gen/Sources/ARCOMMANDS_Filter.c.o
                0x00000000000666d0                ARCOMMANDS_Filter_SetCommonCalibrationStateMagnetoCalibrationRequiredStateBehavior
 *fill*         0x00000000000666fc        0x4 
 .text.ARCOMMANDS_Filter_SetCommonCalibrationStateMagnetoCalibrationAxisToCalibrateChangedBehavior
                0x0000000000066700       0x2c /home/heratom/Firefly-project/out/arsdk-native/build/libARCommands/obj/gen/Sources/ARCOMMANDS_Filter.c.o
                0x0000000000066700                ARCOMMANDS_Filter_SetCommonCalibrationStateMagnetoCalibrationAxisToCalibrateChangedBehavior
 *fill*         0x000000000006672c        0x4 
 .text.ARCOMMANDS_Filter_SetCommonCalibrationStateMagnetoCalibrationStartedChangedBehavior
                0x0000000000066730       0x2c /home/heratom/Firefly-project/out/arsdk-native/build/libARCommands/obj/gen/Sources/ARCOMMANDS_Filter.c.o
                0x0000000000066730                ARCOMMANDS_Filter_SetCommonCalibrationStateMagnetoCalibrationStartedChangedBehavior
 *fill*         0x000000000006675c        0x4 
 .text.ARCOMMANDS_Filter_SetCommonCameraSettingsStateCameraSettingsChangedBehavior
                0x0000000000066760       0x2c /home/heratom/Firefly-project/out/arsdk-native/build/libARCommands/obj/gen/Sources/ARCOMMANDS_Filter.c.o
                0x0000000000066760                ARCOMMANDS_Filter_SetCommonCameraSettingsStateCameraSettingsChangedBehavior
 *fill*         0x000000000006678c        0x4 
 .text.ARCOMMANDS_Filter_SetCommonFlightPlanStateAvailabilityStateChangedBehavior
                0x0000000000066790       0x2c /home/heratom/Firefly-project/out/arsdk-native/build/libARCommands/obj/gen/Sources/ARCOMMANDS_Filter.c.o
                0x0000000000066790                ARCOMMANDS_Filter_SetCommonFlightPlanStateAvailabilityStateChangedBehavior
 *fill*         0x00000000000667bc        0x4 
 .text.ARCOMMANDS_Filter_SetCommonFlightPlanStateComponentStateListChangedBehavior
                0x00000000000667c0       0x2c /home/heratom/Firefly-project/out/arsdk-native/build/libARCommands/obj/gen/Sources/ARCOMMANDS_Filter.c.o
                0x00000000000667c0                ARCOMMANDS_Filter_SetCommonFlightPlanStateComponentStateListChangedBehavior
 *fill*         0x00000000000667ec        0x4 
 .text.ARCOMMANDS_Filter_SetCommonFlightPlanEventStartingErrorEventBehavior
                0x00000000000667f0       0x2c /home/heratom/Firefly-project/out/arsdk-native/build/libARCommands/obj/gen/Sources/ARCOMMANDS_Filter.c.o
                0x00000000000667f0                ARCOMMANDS_Filter_SetCommonFlightPlanEventStartingErrorEventBehavior
 *fill*         0x000000000006681c        0x4 
 .text.ARCOMMANDS_Filter_SetCommonFlightPlanEventSpeedBridleEventBehavior
                0x0000000000066820       0x2c /home/heratom/Firefly-project/out/arsdk-native/build/libARCommands/obj/gen/Sources/ARCOMMANDS_Filter.c.o
                0x0000000000066820                ARCOMMANDS_Filter_SetCommonFlightPlanEventSpeedBridleEventBehavior
 *fill*         0x000000000006684c        0x4 
 .text.ARCOMMANDS_Filter_SetCommonARLibsVersionsStateControllerLibARCommandsVersionBehavior
                0x0000000000066850       0x2c /home/heratom/Firefly-project/out/arsdk-native/build/libARCommands/obj/gen/Sources/ARCOMMANDS_Filter.c.o
                0x0000000000066850                ARCOMMANDS_Filter_SetCommonARLibsVersionsStateControllerLibARCommandsVersionBehavior
 *fill*         0x000000000006687c        0x4 
 .text.ARCOMMANDS_Filter_SetCommonARLibsVersionsStateSkyControllerLibARCommandsVersionBehavior
                0x0000000000066880       0x2c /home/heratom/Firefly-project/out/arsdk-native/build/libARCommands/obj/gen/Sources/ARCOMMANDS_Filter.c.o
                0x0000000000066880                ARCOMMANDS_Filter_SetCommonARLibsVersionsStateSkyControllerLibARCommandsVersionBehavior
 *fill*         0x00000000000668ac        0x4 
 .text.ARCOMMANDS_Filter_SetCommonARLibsVersionsStateDeviceLibARCommandsVersionBehavior
                0x00000000000668b0       0x2c /home/heratom/Firefly-project/out/arsdk-native/build/libARCommands/obj/gen/Sources/ARCOMMANDS_Filter.c.o
                0x00000000000668b0                ARCOMMANDS_Filter_SetCommonARLibsVersionsStateDeviceLibARCommandsVersionBehavior
 *fill*         0x00000000000668dc        0x4 
 .text.ARCOMMANDS_Filter_SetCommonAudioStateAudioStreamingRunningBehavior
                0x00000000000668e0       0x2c /home/heratom/Firefly-project/out/arsdk-native/build/libARCommands/obj/gen/Sources/ARCOMMANDS_Filter.c.o
                0x00000000000668e0                ARCOMMANDS_Filter_SetCommonAudioStateAudioStreamingRunningBehavior
 *fill*         0x000000000006690c        0x4 
 .text.ARCOMMANDS_Filter_SetCommonHeadlightsStateIntensityChangedBehavior
                0x0000000000066910       0x2c /home/heratom/Firefly-project/out/arsdk-native/build/libARCommands/obj/gen/Sources/ARCOMMANDS_Filter.c.o
                0x0000000000066910                ARCOMMANDS_Filter_SetCommonHeadlightsStateIntensityChangedBehavior
 *fill*         0x000000000006693c        0x4 
 .text.ARCOMMANDS_Filter_SetCommonAnimationsStateListBehavior
                0x0000000000066940       0x2c /home/heratom/Firefly-project/out/arsdk-native/build/libARCommands/obj/gen/Sources/ARCOMMANDS_Filter.c.o
                0x0000000000066940                ARCOMMANDS_Filter_SetCommonAnimationsStateListBehavior
 *fill*         0x000000000006696c        0x4 
 .text.ARCOMMANDS_Filter_SetCommonAccessoryStateSupportedAccessoriesListChangedBehavior
                0x0000000000066970       0x2c /home/heratom/Firefly-project/out/arsdk-native/build/libARCommands/obj/gen/Sources/ARCOMMANDS_Filter.c.o
                0x0000000000066970                ARCOMMANDS_Filter_SetCommonAccessoryStateSupportedAccessoriesListChangedBehavior
 *fill*         0x000000000006699c        0x4 
 .text.ARCOMMANDS_Filter_SetCommonAccessoryStateAccessoryConfigChangedBehavior
                0x00000000000669a0       0x2c /home/heratom/Firefly-project/out/arsdk-native/build/libARCommands/obj/gen/Sources/ARCOMMANDS_Filter.c.o
                0x00000000000669a0                ARCOMMANDS_Filter_SetCommonAccessoryStateAccessoryConfigChangedBehavior
 *fill*         0x00000000000669cc        0x4 
 .text.ARCOMMANDS_Filter_SetCommonAccessoryStateAccessoryConfigModificationEnabledBehavior
                0x00000000000669d0       0x2c /home/heratom/Firefly-project/out/arsdk-native/build/libARCommands/obj/gen/Sources/ARCOMMANDS_Filter.c.o
                0x00000000000669d0                ARCOMMANDS_Filter_SetCommonAccessoryStateAccessoryConfigModificationEnabledBehavior
 *fill*         0x00000000000669fc        0x4 
 .text.ARCOMMANDS_Filter_SetCommonChargerStateMaxChargeRateChangedBehavior
                0x0000000000066a00       0x2c /home/heratom/Firefly-project/out/arsdk-native/build/libARCommands/obj/gen/Sources/ARCOMMANDS_Filter.c.o
                0x0000000000066a00                ARCOMMANDS_Filter_SetCommonChargerStateMaxChargeRateChangedBehavior
 *fill*         0x0000000000066a2c        0x4 
 .text.ARCOMMANDS_Filter_SetCommonChargerStateCurrentChargeStateChangedBehavior
                0x0000000000066a30       0x2c /home/heratom/Firefly-project/out/arsdk-native/build/libARCommands/obj/gen/Sources/ARCOMMANDS_Filter.c.o
                0x0000000000066a30                ARCOMMANDS_Filter_SetCommonChargerStateCurrentChargeStateChangedBehavior
 *fill*         0x0000000000066a5c        0x4 
 .text.ARCOMMANDS_Filter_SetCommonChargerStateLastChargeRateChangedBehavior
                0x0000000000066a60       0x2c /home/heratom/Firefly-project/out/arsdk-native/build/libARCommands/obj/gen/Sources/ARCOMMANDS_Filter.c.o
                0x0000000000066a60                ARCOMMANDS_Filter_SetCommonChargerStateLastChargeRateChangedBehavior
 *fill*         0x0000000000066a8c        0x4 
 .text.ARCOMMANDS_Filter_SetCommonChargerStateChargingInfoBehavior
                0x0000000000066a90       0x2c /home/heratom/Firefly-project/out/arsdk-native/build/libARCommands/obj/gen/Sources/ARCOMMANDS_Filter.c.o
                0x0000000000066a90                ARCOMMANDS_Filter_SetCommonChargerStateChargingInfoBehavior
 *fill*         0x0000000000066abc        0x4 
 .text.ARCOMMANDS_Filter_SetCommonRunStateRunIdChangedBehavior
                0x0000000000066ac0       0x2c /home/heratom/Firefly-project/out/arsdk-native/build/libARCommands/obj/gen/Sources/ARCOMMANDS_Filter.c.o
                0x0000000000066ac0                ARCOMMANDS_Filter_SetCommonRunStateRunIdChangedBehavior
 *fill*         0x0000000000066aec        0x4 
 .text.ARCOMMANDS_Filter_SetCommonDebugBehavior
                0x0000000000066af0       0x56 /home/heratom/Firefly-project/out/arsdk-native/build/libARCommands/obj/gen/Sources/ARCOMMANDS_Filter.c.o
                0x0000000000066af0                ARCOMMANDS_Filter_SetCommonDebugBehavior
 *fill*         0x0000000000066b46        0xa 
 .text.ARCOMMANDS_Filter_SetCommonDebugStatsBehavior
                0x0000000000066b50       0x38 /home/heratom/Firefly-project/out/arsdk-native/build/libARCommands/obj/gen/Sources/ARCOMMANDS_Filter.c.o
                0x0000000000066b50                ARCOMMANDS_Filter_SetCommonDebugStatsBehavior
 *fill*         0x0000000000066b88        0x8 
 .text.ARCOMMANDS_Filter_SetCommonDebugStatsEventBehavior
                0x0000000000066b90       0x2c /home/heratom/Firefly-project/out/arsdk-native/build/libARCommands/obj/gen/Sources/ARCOMMANDS_Filter.c.o
                0x0000000000066b90                ARCOMMANDS_Filter_SetCommonDebugStatsEventBehavior
 *fill*         0x0000000000066bbc        0x4 
 .text.ARCOMMANDS_Filter_SetCommonDebugDebugSettingsBehavior
                0x0000000000066bc0       0x32 /home/heratom/Firefly-project/out/arsdk-native/build/libARCommands/obj/gen/Sources/ARCOMMANDS_Filter.c.o
                0x0000000000066bc0                ARCOMMANDS_Filter_SetCommonDebugDebugSettingsBehavior
 *fill*         0x0000000000066bf2        0xe 
 .text.ARCOMMANDS_Filter_SetCommonDebugDebugSettingsStateBehavior
                0x0000000000066c00       0x32 /home/heratom/Firefly-project/out/arsdk-native/build/libARCommands/obj/gen/Sources/ARCOMMANDS_Filter.c.o
                0x0000000000066c00                ARCOMMANDS_Filter_SetCommonDebugDebugSettingsStateBehavior
 *fill*         0x0000000000066c32        0xe 
 .text.ARCOMMANDS_Filter_SetCommonDebugStatsSendPacketBehavior
                0x0000000000066c40       0x2c /home/heratom/Firefly-project/out/arsdk-native/build/libARCommands/obj/gen/Sources/ARCOMMANDS_Filter.c.o
                0x0000000000066c40                ARCOMMANDS_Filter_SetCommonDebugStatsSendPacketBehavior
 *fill*         0x0000000000066c6c        0x4 
 .text.ARCOMMANDS_Filter_SetCommonDebugStatsStartSendingPacketFromDroneBehavior
                0x0000000000066c70       0x2c /home/heratom/Firefly-project/out/arsdk-native/build/libARCommands/obj/gen/Sources/ARCOMMANDS_Filter.c.o
                0x0000000000066c70                ARCOMMANDS_Filter_SetCommonDebugStatsStartSendingPacketFromDroneBehavior
 *fill*         0x0000000000066c9c        0x4 
 .text.ARCOMMANDS_Filter_SetCommonDebugStatsStopSendingPacketFromDroneBehavior
                0x0000000000066ca0       0x2c /home/heratom/Firefly-project/out/arsdk-native/build/libARCommands/obj/gen/Sources/ARCOMMANDS_Filter.c.o
                0x0000000000066ca0                ARCOMMANDS_Filter_SetCommonDebugStatsStopSendingPacketFromDroneBehavior
 *fill*         0x0000000000066ccc        0x4 
 .text.ARCOMMANDS_Filter_SetCommonDebugDebugSettingsGetAllBehavior
                0x0000000000066cd0       0x2c /home/heratom/Firefly-project/out/arsdk-native/build/libARCommands/obj/gen/Sources/ARCOMMANDS_Filter.c.o
                0x0000000000066cd0                ARCOMMANDS_Filter_SetCommonDebugDebugSettingsGetAllBehavior
 *fill*         0x0000000000066cfc        0x4 
 .text.ARCOMMANDS_Filter_SetCommonDebugDebugSettingsSetBehavior
                0x0000000000066d00       0x2c /home/heratom/Firefly-project/out/arsdk-native/build/libARCommands/obj/gen/Sources/ARCOMMANDS_Filter.c.o
                0x0000000000066d00                ARCOMMANDS_Filter_SetCommonDebugDebugSettingsSetBehavior
 *fill*         0x0000000000066d2c        0x4 
 .text.ARCOMMANDS_Filter_SetCommonDebugStatsEventSendPacketBehavior
                0x0000000000066d30       0x2c /home/heratom/Firefly-project/out/arsdk-native/build/libARCommands/obj/gen/Sources/ARCOMMANDS_Filter.c.o
                0x0000000000066d30                ARCOMMANDS_Filter_SetCommonDebugStatsEventSendPacketBehavior
 *fill*         0x0000000000066d5c        0x4 
 .text.ARCOMMANDS_Filter_SetCommonDebugDebugSettingsStateInfoBehavior
                0x0000000000066d60       0x2c /home/heratom/Firefly-project/out/arsdk-native/build/libARCommands/obj/gen/Sources/ARCOMMANDS_Filter.c.o
                0x0000000000066d60                ARCOMMANDS_Filter_SetCommonDebugDebugSettingsStateInfoBehavior
 *fill*         0x0000000000066d8c        0x4 
 .text.ARCOMMANDS_Filter_SetCommonDebugDebugSettingsStateListChangedBehavior
                0x0000000000066d90       0x2c /home/heratom/Firefly-project/out/arsdk-native/build/libARCommands/obj/gen/Sources/ARCOMMANDS_Filter.c.o
                0x0000000000066d90                ARCOMMANDS_Filter_SetCommonDebugDebugSettingsStateListChangedBehavior
 *fill*         0x0000000000066dbc        0x4 
 .text.ARCOMMANDS_Filter_SetProBehavior
                0x0000000000066dc0       0x4a /home/heratom/Firefly-project/out/arsdk-native/build/libARCommands/obj/gen/Sources/ARCOMMANDS_Filter.c.o
                0x0000000000066dc0                ARCOMMANDS_Filter_SetProBehavior
 *fill*         0x0000000000066e0a        0x6 
 .text.ARCOMMANDS_Filter_SetProProBehavior
                0x0000000000066e10       0x38 /home/heratom/Firefly-project/out/arsdk-native/build/libARCommands/obj/gen/Sources/ARCOMMANDS_Filter.c.o
                0x0000000000066e10                ARCOMMANDS_Filter_SetProProBehavior
 *fill*         0x0000000000066e48        0x8 
 .text.ARCOMMANDS_Filter_SetProProStateBehavior
                0x0000000000066e50       0x32 /home/heratom/Firefly-project/out/arsdk-native/build/libARCommands/obj/gen/Sources/ARCOMMANDS_Filter.c.o
                0x0000000000066e50                ARCOMMANDS_Filter_SetProProStateBehavior
 *fill*         0x0000000000066e82        0xe 
 .text.ARCOMMANDS_Filter_SetProProEventBehavior
                0x0000000000066e90       0x2c /home/heratom/Firefly-project/out/arsdk-native/build/libARCommands/obj/gen/Sources/ARCOMMANDS_Filter.c.o
                0x0000000000066e90                ARCOMMANDS_Filter_SetProProEventBehavior
 *fill*         0x0000000000066ebc        0x4 
 .text.ARCOMMANDS_Filter_SetProProBoughtFeaturesBehavior
                0x0000000000066ec0       0x2c /home/heratom/Firefly-project/out/arsdk-native/build/libARCommands/obj/gen/Sources/ARCOMMANDS_Filter.c.o
                0x0000000000066ec0                ARCOMMANDS_Filter_SetProProBoughtFeaturesBehavior
 *fill*         0x0000000000066eec        0x4 
 .text.ARCOMMANDS_Filter_SetProProResponseBehavior
                0x0000000000066ef0       0x2c /home/heratom/Firefly-project/out/arsdk-native/build/libARCommands/obj/gen/Sources/ARCOMMANDS_Filter.c.o
                0x0000000000066ef0                ARCOMMANDS_Filter_SetProProResponseBehavior
 *fill*         0x0000000000066f1c        0x4 
 .text.ARCOMMANDS_Filter_SetProProActivateFeaturesBehavior
                0x0000000000066f20       0x2c /home/heratom/Firefly-project/out/arsdk-native/build/libARCommands/obj/gen/Sources/ARCOMMANDS_Filter.c.o
                0x0000000000066f20                ARCOMMANDS_Filter_SetProProActivateFeaturesBehavior
 *fill*         0x0000000000066f4c        0x4 
 .text.ARCOMMANDS_Filter_SetProProStateSupportedFeaturesBehavior
                0x0000000000066f50       0x2c /home/heratom/Firefly-project/out/arsdk-native/build/libARCommands/obj/gen/Sources/ARCOMMANDS_Filter.c.o
                0x0000000000066f50                ARCOMMANDS_Filter_SetProProStateSupportedFeaturesBehavior
 *fill*         0x0000000000066f7c        0x4 
 .text.ARCOMMANDS_Filter_SetProProStateFeaturesActivatedBehavior
                0x0000000000066f80       0x2c /home/heratom/Firefly-project/out/arsdk-native/build/libARCommands/obj/gen/Sources/ARCOMMANDS_Filter.c.o
                0x0000000000066f80                ARCOMMANDS_Filter_SetProProStateFeaturesActivatedBehavior
 *fill*         0x0000000000066fac        0x4 
 .text.ARCOMMANDS_Filter_SetProProEventChallengeEventBehavior
                0x0000000000066fb0       0x2c /home/heratom/Firefly-project/out/arsdk-native/build/libARCommands/obj/gen/Sources/ARCOMMANDS_Filter.c.o
                0x0000000000066fb0                ARCOMMANDS_Filter_SetProProEventChallengeEventBehavior
 *fill*         0x0000000000066fdc        0x4 
 .text.ARCOMMANDS_Filter_SetWifiBehavior
                0x0000000000066fe0       0x74 /home/heratom/Firefly-project/out/arsdk-native/build/libARCommands/obj/gen/Sources/ARCOMMANDS_Filter.c.o
                0x0000000000066fe0                ARCOMMANDS_Filter_SetWifiBehavior
 *fill*         0x0000000000067054        0xc 
 .text.ARCOMMANDS_Filter_SetWifiScanBehavior
                0x0000000000067060       0x2c /home/heratom/Firefly-project/out/arsdk-native/build/libARCommands/obj/gen/Sources/ARCOMMANDS_Filter.c.o
                0x0000000000067060                ARCOMMANDS_Filter_SetWifiScanBehavior
 *fill*         0x000000000006708c        0x4 
 .text.ARCOMMANDS_Filter_SetWifiUpdateAuthorizedChannelsBehavior
                0x0000000000067090       0x2c /home/heratom/Firefly-project/out/arsdk-native/build/libARCommands/obj/gen/Sources/ARCOMMANDS_Filter.c.o
                0x0000000000067090                ARCOMMANDS_Filter_SetWifiUpdateAuthorizedChannelsBehavior
 *fill*         0x00000000000670bc        0x4 
 .text.ARCOMMANDS_Filter_SetWifiSetApChannelBehavior
                0x00000000000670c0       0x2c /home/heratom/Firefly-project/out/arsdk-native/build/libARCommands/obj/gen/Sources/ARCOMMANDS_Filter.c.o
                0x00000000000670c0                ARCOMMANDS_Filter_SetWifiSetApChannelBehavior
 *fill*         0x00000000000670ec        0x4 
 .text.ARCOMMANDS_Filter_SetWifiSetSecurityBehavior
                0x00000000000670f0       0x2c /home/heratom/Firefly-project/out/arsdk-native/build/libARCommands/obj/gen/Sources/ARCOMMANDS_Filter.c.o
                0x00000000000670f0                ARCOMMANDS_Filter_SetWifiSetSecurityBehavior
 *fill*         0x000000000006711c        0x4 
 .text.ARCOMMANDS_Filter_SetWifiSetCountryBehavior
                0x0000000000067120       0x2c /home/heratom/Firefly-project/out/arsdk-native/build/libARCommands/obj/gen/Sources/ARCOMMANDS_Filter.c.o
                0x0000000000067120                ARCOMMANDS_Filter_SetWifiSetCountryBehavior
 *fill*         0x000000000006714c        0x4 
 .text.ARCOMMANDS_Filter_SetWifiSetEnvironementBehavior
                0x0000000000067150       0x2c /home/heratom/Firefly-project/out/arsdk-native/build/libARCommands/obj/gen/Sources/ARCOMMANDS_Filter.c.o
                0x0000000000067150                ARCOMMANDS_Filter_SetWifiSetEnvironementBehavior
 *fill*         0x000000000006717c        0x4 
 .text.ARCOMMANDS_Filter_SetWifiScannedItemBehavior
                0x0000000000067180       0x2c /home/heratom/Firefly-project/out/arsdk-native/build/libARCommands/obj/gen/Sources/ARCOMMANDS_Filter.c.o
                0x0000000000067180                ARCOMMANDS_Filter_SetWifiScannedItemBehavior
 *fill*         0x00000000000671ac        0x4 
 .text.ARCOMMANDS_Filter_SetWifiAuthorizedChannelBehavior
                0x00000000000671b0       0x2c /home/heratom/Firefly-project/out/arsdk-native/build/libARCommands/obj/gen/Sources/ARCOMMANDS_Filter.c.o
                0x00000000000671b0                ARCOMMANDS_Filter_SetWifiAuthorizedChannelBehavior
 *fill*         0x00000000000671dc        0x4 
 .text.ARCOMMANDS_Filter_SetWifiApChannelChangedBehavior
                0x00000000000671e0       0x2c /home/heratom/Firefly-project/out/arsdk-native/build/libARCommands/obj/gen/Sources/ARCOMMANDS_Filter.c.o
                0x00000000000671e0                ARCOMMANDS_Filter_SetWifiApChannelChangedBehavior
 *fill*         0x000000000006720c        0x4 
 .text.ARCOMMANDS_Filter_SetWifiSecurityChangedBehavior
                0x0000000000067210       0x2c /home/heratom/Firefly-project/out/arsdk-native/build/libARCommands/obj/gen/Sources/ARCOMMANDS_Filter.c.o
                0x0000000000067210                ARCOMMANDS_Filter_SetWifiSecurityChangedBehavior
 *fill*         0x000000000006723c        0x4 
 .text.ARCOMMANDS_Filter_SetWifiCountryChangedBehavior
                0x0000000000067240       0x2c /home/heratom/Firefly-project/out/arsdk-native/build/libARCommands/obj/gen/Sources/ARCOMMANDS_Filter.c.o
                0x0000000000067240                ARCOMMANDS_Filter_SetWifiCountryChangedBehavior
 *fill*         0x000000000006726c        0x4 
 .text.ARCOMMANDS_Filter_SetWifiEnvironementChangedBehavior
                0x0000000000067270       0x2c /home/heratom/Firefly-project/out/arsdk-native/build/libARCommands/obj/gen/Sources/ARCOMMANDS_Filter.c.o
                0x0000000000067270                ARCOMMANDS_Filter_SetWifiEnvironementChangedBehavior
 *fill*         0x000000000006729c        0x4 
 .text.ARCOMMANDS_Filter_SetWifiRssiChangedBehavior
                0x00000000000672a0       0x2c /home/heratom/Firefly-project/out/arsdk-native/build/libARCommands/obj/gen/Sources/ARCOMMANDS_Filter.c.o
                0x00000000000672a0                ARCOMMANDS_Filter_SetWifiRssiChangedBehavior
 *fill*         0x00000000000672cc        0x4 
 .text.ARCOMMANDS_ReadWrite_AddU8ToBuffer
                0x00000000000672d0       0x16 /home/heratom/Firefly-project/out/arsdk-native/build/libARCommands/obj/gen/Sources/ARCOMMANDS_ReadWrite.c.o
                0x00000000000672d0                ARCOMMANDS_ReadWrite_AddU8ToBuffer
 *fill*         0x00000000000672e6        0xa 
 .text.ARCOMMANDS_ReadWrite_AddU16ToBuffer
                0x00000000000672f0       0x16 /home/heratom/Firefly-project/out/arsdk-native/build/libARCommands/obj/gen/Sources/ARCOMMANDS_ReadWrite.c.o
                0x00000000000672f0                ARCOMMANDS_ReadWrite_AddU16ToBuffer
 *fill*         0x0000000000067306        0xa 
 .text.ARCOMMANDS_ReadWrite_AddU32ToBuffer
                0x0000000000067310       0x16 /home/heratom/Firefly-project/out/arsdk-native/build/libARCommands/obj/gen/Sources/ARCOMMANDS_ReadWrite.c.o
                0x0000000000067310                ARCOMMANDS_ReadWrite_AddU32ToBuffer
 *fill*         0x0000000000067326        0xa 
 .text.ARCOMMANDS_ReadWrite_AddU64ToBuffer
                0x0000000000067330       0x16 /home/heratom/Firefly-project/out/arsdk-native/build/libARCommands/obj/gen/Sources/ARCOMMANDS_ReadWrite.c.o
                0x0000000000067330                ARCOMMANDS_ReadWrite_AddU64ToBuffer
 *fill*         0x0000000000067346        0xa 
 .text.ARCOMMANDS_ReadWrite_AddStringToBuffer
                0x0000000000067350       0x35 /home/heratom/Firefly-project/out/arsdk-native/build/libARCommands/obj/gen/Sources/ARCOMMANDS_ReadWrite.c.o
                0x0000000000067350                ARCOMMANDS_ReadWrite_AddStringToBuffer
 *fill*         0x0000000000067385        0xb 
 .text.ARCOMMANDS_ReadWrite_AddFloatToBuffer
                0x0000000000067390       0x15 /home/heratom/Firefly-project/out/arsdk-native/build/libARCommands/obj/gen/Sources/ARCOMMANDS_ReadWrite.c.o
                0x0000000000067390                ARCOMMANDS_ReadWrite_AddFloatToBuffer
 *fill*         0x00000000000673a5        0xb 
 .text.ARCOMMANDS_ReadWrite_AddDoubleToBuffer
                0x00000000000673b0       0x17 /home/heratom/Firefly-project/out/arsdk-native/build/libARCommands/obj/gen/Sources/ARCOMMANDS_ReadWrite.c.o
                0x00000000000673b0                ARCOMMANDS_ReadWrite_AddDoubleToBuffer
 *fill*         0x00000000000673c7        0x9 
 .text.ARCOMMANDS_ReadWrite_Read8FromBuffer
                0x00000000000673d0       0x29 /home/heratom/Firefly-project/out/arsdk-native/build/libARCommands/obj/gen/Sources/ARCOMMANDS_ReadWrite.c.o
                0x00000000000673d0                ARCOMMANDS_ReadWrite_Read8FromBuffer
 *fill*         0x00000000000673f9        0x7 
 .text.ARCOMMANDS_ReadWrite_Read16FromBuffer
                0x0000000000067400       0x29 /home/heratom/Firefly-project/out/arsdk-native/build/libARCommands/obj/gen/Sources/ARCOMMANDS_ReadWrite.c.o
                0x0000000000067400                ARCOMMANDS_ReadWrite_Read16FromBuffer
 *fill*         0x0000000000067429        0x7 
 .text.ARCOMMANDS_ReadWrite_Read32FromBuffer
                0x0000000000067430       0x29 /home/heratom/Firefly-project/out/arsdk-native/build/libARCommands/obj/gen/Sources/ARCOMMANDS_ReadWrite.c.o
                0x0000000000067430                ARCOMMANDS_ReadWrite_Read32FromBuffer
 *fill*         0x0000000000067459        0x7 
 .text.ARCOMMANDS_ReadWrite_Read64FromBuffer
                0x0000000000067460       0x29 /home/heratom/Firefly-project/out/arsdk-native/build/libARCommands/obj/gen/Sources/ARCOMMANDS_ReadWrite.c.o
                0x0000000000067460                ARCOMMANDS_ReadWrite_Read64FromBuffer
 *fill*         0x0000000000067489        0x7 
 .text.ARCOMMANDS_ReadWrite_ReadFloatFromBuffer
                0x0000000000067490       0x2a /home/heratom/Firefly-project/out/arsdk-native/build/libARCommands/obj/gen/Sources/ARCOMMANDS_ReadWrite.c.o
                0x0000000000067490                ARCOMMANDS_ReadWrite_ReadFloatFromBuffer
 *fill*         0x00000000000674ba        0x6 
 .text.ARCOMMANDS_ReadWrite_ReadDoubleFromBuffer
                0x00000000000674c0       0x2b /home/heratom/Firefly-project/out/arsdk-native/build/libARCommands/obj/gen/Sources/ARCOMMANDS_ReadWrite.c.o
                0x00000000000674c0                ARCOMMANDS_ReadWrite_ReadDoubleFromBuffer
 *fill*         0x00000000000674eb        0x5 
 .text.ARCOMMANDS_ReadWrite_ReadStringFromBuffer
                0x00000000000674f0       0x46 /home/heratom/Firefly-project/out/arsdk-native/build/libARCommands/obj/gen/Sources/ARCOMMANDS_ReadWrite.c.o
                0x00000000000674f0                ARCOMMANDS_ReadWrite_ReadStringFromBuffer
 *fill*         0x0000000000067536        0xa 
 .text.ARCOMMANDS_ReadWrite_WriteString
                0x0000000000067540       0x43 /home/heratom/Firefly-project/out/arsdk-native/build/libARCommands/obj/gen/Sources/ARCOMMANDS_ReadWrite.c.o
                0x0000000000067540                ARCOMMANDS_ReadWrite_WriteString
 *fill*         0x0000000000067583        0xd 
 .text.ARCOMMANDS_ReadWrite_PrintU8
                0x0000000000067590       0x77 /home/heratom/Firefly-project/out/arsdk-native/build/libARCommands/obj/gen/Sources/ARCOMMANDS_ReadWrite.c.o
                0x0000000000067590                ARCOMMANDS_ReadWrite_PrintU8
 *fill*         0x0000000000067607        0x9 
 .text.ARCOMMANDS_ReadWrite_PrintI8
                0x0000000000067610       0x77 /home/heratom/Firefly-project/out/arsdk-native/build/libARCommands/obj/gen/Sources/ARCOMMANDS_ReadWrite.c.o
                0x0000000000067610                ARCOMMANDS_ReadWrite_PrintI8
 *fill*         0x0000000000067687        0x9 
 .text.ARCOMMANDS_ReadWrite_PrintU16
                0x0000000000067690       0x77 /home/heratom/Firefly-project/out/arsdk-native/build/libARCommands/obj/gen/Sources/ARCOMMANDS_ReadWrite.c.o
                0x0000000000067690                ARCOMMANDS_ReadWrite_PrintU16
 *fill*         0x0000000000067707        0x9 
 .text.ARCOMMANDS_ReadWrite_PrintI16
                0x0000000000067710       0x70 /home/heratom/Firefly-project/out/arsdk-native/build/libARCommands/obj/gen/Sources/ARCOMMANDS_ReadWrite.c.o
                0x0000000000067710                ARCOMMANDS_ReadWrite_PrintI16
 .text.ARCOMMANDS_ReadWrite_PrintU32
                0x0000000000067780       0x6f /home/heratom/Firefly-project/out/arsdk-native/build/libARCommands/obj/gen/Sources/ARCOMMANDS_ReadWrite.c.o
                0x0000000000067780                ARCOMMANDS_ReadWrite_PrintU32
 *fill*         0x00000000000677ef        0x1 
 .text.ARCOMMANDS_ReadWrite_PrintI32
                0x00000000000677f0       0x6f /home/heratom/Firefly-project/out/arsdk-native/build/libARCommands/obj/gen/Sources/ARCOMMANDS_ReadWrite.c.o
                0x00000000000677f0                ARCOMMANDS_ReadWrite_PrintI32
 *fill*         0x000000000006785f        0x1 
 .text.ARCOMMANDS_ReadWrite_PrintU64
                0x0000000000067860       0x6f /home/heratom/Firefly-project/out/arsdk-native/build/libARCommands/obj/gen/Sources/ARCOMMANDS_ReadWrite.c.o
                0x0000000000067860                ARCOMMANDS_ReadWrite_PrintU64
 *fill*         0x00000000000678cf        0x1 
 .text.ARCOMMANDS_ReadWrite_PrintFloat
                0x00000000000678d0       0x6e /home/heratom/Firefly-project/out/arsdk-native/build/libARCommands/obj/gen/Sources/ARCOMMANDS_ReadWrite.c.o
                0x00000000000678d0                ARCOMMANDS_ReadWrite_PrintFloat
 *fill*         0x000000000006793e        0x2 
 .text.ARCOMMANDS_ReadWrite_PrintDouble
                0x0000000000067940       0x6b /home/heratom/Firefly-project/out/arsdk-native/build/libARCommands/obj/gen/Sources/ARCOMMANDS_ReadWrite.c.o
                0x0000000000067940                ARCOMMANDS_ReadWrite_PrintDouble
 *fill*         0x00000000000679ab        0x5 
 .text.ARCOMMANDS_ReadWrite_PrintString
                0x00000000000679b0       0x35 /home/heratom/Firefly-project/out/arsdk-native/build/libARCommands/obj/gen/Sources/ARCOMMANDS_ReadWrite.c.o
                0x00000000000679b0                ARCOMMANDS_ReadWrite_PrintString
 *fill*         0x00000000000679e5        0xb 
 .text.ARCOMMANDS_Version_CompareVersions
                0x00000000000679f0       0x1e /home/heratom/Firefly-project/out/arsdk-native/build/libARCommands/obj/Sources/ARCOMMANDS_Version.c.o
                0x00000000000679f0                ARCOMMANDS_Version_CompareVersions
 *fill*         0x0000000000067a0e        0x2 
 .text.ARCOMMANDS_Version_CompareVersionCodes
                0x0000000000067a10       0xc3 /home/heratom/Firefly-project/out/arsdk-native/build/libARCommands/obj/Sources/ARCOMMANDS_Version.c.o
                0x0000000000067a10                ARCOMMANDS_Version_CompareVersionCodes
 *(.gnu.warning)

.fini           0x0000000000067ad4        0x9
 *(SORT(.fini))
 .fini          0x0000000000067ad4        0x4 /usr/lib/gcc/x86_64-linux-gnu/4.8/../../../x86_64-linux-gnu/crti.o
                0x0000000000067ad4                _fini
 .fini          0x0000000000067ad8        0x5 /usr/lib/gcc/x86_64-linux-gnu/4.8/../../../x86_64-linux-gnu/crtn.o
                0x0000000000067add                PROVIDE (__etext, .)
                0x0000000000067add                PROVIDE (_etext, .)
                0x0000000000067add                PROVIDE (etext, .)

.rodata         0x0000000000067ae0     0x817d
 *(.rodata .rodata.* .gnu.linkonce.r.*)
 .rodata        0x0000000000067ae0      0x9e8 /home/heratom/Firefly-project/out/arsdk-native/build/libARCommands/obj/gen/Sources/ARCOMMANDS_Decoder.c.o
 .rodata.str1.1
                0x00000000000684c8     0x1365 /home/heratom/Firefly-project/out/arsdk-native/build/libARCommands/obj/gen/Sources/ARCOMMANDS_Decoder.c.o
 *fill*         0x000000000006982d        0x3 
 .rodata.str1.8
                0x0000000000069830     0x5f20 /home/heratom/Firefly-project/out/arsdk-native/build/libARCommands/obj/gen/Sources/ARCOMMANDS_Decoder.c.o
 .rodata        0x000000000006f750      0x4f4 /home/heratom/Firefly-project/out/arsdk-native/build/libARCommands/obj/gen/Sources/ARCOMMANDS_Filter.c.o
 .rodata.str1.1
                0x000000000006fc44        0xd /home/heratom/Firefly-project/out/arsdk-native/build/libARCommands/obj/gen/Sources/ARCOMMANDS_ReadWrite.c.o
 .rodata.str1.1
                0x000000000006fc51        0xc /home/heratom/Firefly-project/out/arsdk-native/build/libARCommands/obj/Sources/ARCOMMANDS_Version.c.o

.rodata1
 *(.rodata1)

.eh_frame_hdr   0x000000000006fc60     0x2c1c
 *(.eh_frame_hdr)
 .eh_frame_hdr  0x000000000006fc60     0x2c1c /home/heratom/Firefly-project/out/arsdk-native/build/libARCommands/obj/gen/Sources/ARCOMMANDS_Generator.c.o

.eh_frame       0x0000000000072880    0x111ac
 *(.eh_frame)
 .eh_frame      0x0000000000072880       0x40 /usr/lib/gcc/x86_64-linux-gnu/4.8/../../../x86_64-linux-gnu/crti.o
 .eh_frame      0x00000000000728c0     0x7e00 /home/heratom/Firefly-project/out/arsdk-native/build/libARCommands/obj/gen/Sources/ARCOMMANDS_Generator.c.o
                                       0x7a98 (size before relaxing)
 .eh_frame      0x000000000007a6c0     0x5b18 /home/heratom/Firefly-project/out/arsdk-native/build/libARCommands/obj/gen/Sources/ARCOMMANDS_Decoder.c.o
                                       0x54b8 (size before relaxing)
 .eh_frame      0x00000000000801d8     0x3440 /home/heratom/Firefly-project/out/arsdk-native/build/libARCommands/obj/gen/Sources/ARCOMMANDS_Filter.c.o
                                       0x2bb0 (size before relaxing)
 .eh_frame      0x0000000000083618      0x3d8 /home/heratom/Firefly-project/out/arsdk-native/build/libARCommands/obj/gen/Sources/ARCOMMANDS_ReadWrite.c.o
                                        0x3b0 (size before relaxing)
 .eh_frame      0x00000000000839f0       0x38 /home/heratom/Firefly-project/out/arsdk-native/build/libARCommands/obj/Sources/ARCOMMANDS_Version.c.o
                                         0x50 (size before relaxing)
 .eh_frame      0x0000000000083a28        0x4 /usr/lib/gcc/x86_64-linux-gnu/4.8/crtendS.o

.gcc_except_table
 *(.gcc_except_table .gcc_except_table.*)

.exception_ranges
 *(.exception_ranges .exception_ranges*)
                0x0000000000083a2c                . = (ALIGN (0x200000) - ((0x200000 - .) & 0x1fffff))
                0x0000000000283ddc                . = DATA_SEGMENT_ALIGN (0x200000, 0x1000)

.eh_frame
 *(.eh_frame)

.gcc_except_table
 *(.gcc_except_table .gcc_except_table.*)

.exception_ranges
 *(.exception_ranges .exception_ranges*)

.tdata
 *(.tdata .tdata.* .gnu.linkonce.td.*)

.tbss
 *(.tbss .tbss.* .gnu.linkonce.tb.*)
 *(.tcommon)

.preinit_array
 *(.preinit_array)

.init_array     0x0000000000283de0        0x8
 *(SORT(.init_array.*) SORT(.ctors.*))
 *(.init_array EXCLUDE_FILE(*crtend?.o *crtend.o *crtbegin?.o *crtbegin.o) .ctors)
 .init_array    0x0000000000283de0        0x8 /usr/lib/gcc/x86_64-linux-gnu/4.8/crtbeginS.o

.fini_array     0x0000000000283de8        0x8
 *(SORT(.fini_array.*) SORT(.dtors.*))
 *(.fini_array EXCLUDE_FILE(*crtend?.o *crtend.o *crtbegin?.o *crtbegin.o) .dtors)
 .fini_array    0x0000000000283de8        0x8 /usr/lib/gcc/x86_64-linux-gnu/4.8/crtbeginS.o

.ctors
 *crtbegin.o(.ctors)
 *crtbegin?.o(.ctors)
 *(EXCLUDE_FILE(*crtend?.o *crtend.o) .ctors)
 *(SORT(.ctors.*))
 *(.ctors)

.dtors
 *crtbegin.o(.dtors)
 *crtbegin?.o(.dtors)
 *(EXCLUDE_FILE(*crtend?.o *crtend.o) .dtors)
 *(SORT(.dtors.*))
 *(.dtors)

.jcr            0x0000000000283df0        0x8
 *(.jcr)
 .jcr           0x0000000000283df0        0x0 /usr/lib/gcc/x86_64-linux-gnu/4.8/crtbeginS.o
 .jcr           0x0000000000283df0        0x8 /usr/lib/gcc/x86_64-linux-gnu/4.8/crtendS.o

.data.rel.ro
 *(.data.rel.ro.local* .gnu.linkonce.d.rel.ro.local.*)
 *(.data.rel.ro .data.rel.ro.* .gnu.linkonce.d.rel.ro.*)

.dynamic        0x0000000000283df8      0x1e0
 *(.dynamic)
 .dynamic       0x0000000000283df8      0x1e0 /usr/lib/gcc/x86_64-linux-gnu/4.8/../../../x86_64-linux-gnu/crti.o
                0x0000000000283df8                _DYNAMIC

.got            0x0000000000283fd8       0x28
 *(.got)
 .got           0x0000000000283fd8       0x28 /usr/lib/gcc/x86_64-linux-gnu/4.8/../../../x86_64-linux-gnu/crti.o
 *(.igot)
                0x0000000000284fe8                . = DATA_SEGMENT_RELRO_END (., (SIZEOF (.got.plt) >= 0x18)?0x18:0x0)

.got.plt        0x0000000000284000      0x148
 *(.got.plt)
 .got.plt       0x0000000000284000      0x148 /usr/lib/gcc/x86_64-linux-gnu/4.8/../../../x86_64-linux-gnu/crti.o
                0x0000000000284000                _GLOBAL_OFFSET_TABLE_
 *(.igot.plt)

.data           0x0000000000284148        0x8
 *(.data .data.* .gnu.linkonce.d.*)
 .data.rel      0x0000000000284148        0x8 /usr/lib/gcc/x86_64-linux-gnu/4.8/crtbeginS.o
                0x0000000000284148                __dso_handle

.tm_clone_table
                0x0000000000284150        0x0
 .tm_clone_table
                0x0000000000284150        0x0 /usr/lib/gcc/x86_64-linux-gnu/4.8/crtbeginS.o
 .tm_clone_table
                0x0000000000284150        0x0 /usr/lib/gcc/x86_64-linux-gnu/4.8/crtendS.o

.data1
 *(.data1)
                0x0000000000284150                _edata = .
                0x0000000000284150                PROVIDE (edata, .)
                0x0000000000284150                . = .
                0x0000000000284150                __bss_start = .

.bss            0x0000000000284150     0x19e8
 *(.dynbss)
 .dynbss        0x0000000000000000        0x0 /usr/lib/gcc/x86_64-linux-gnu/4.8/../../../x86_64-linux-gnu/crti.o
 *(.bss .bss.* .gnu.linkonce.b.*)
 .bss           0x0000000000284150        0x1 /usr/lib/gcc/x86_64-linux-gnu/4.8/crtbeginS.o
 *fill*         0x0000000000284151        0x7 
 .bss           0x0000000000284158     0x19e0 /home/heratom/Firefly-project/out/arsdk-native/build/libARCommands/obj/gen/Sources/ARCOMMANDS_Decoder.c.o
 *(COMMON)
                0x0000000000285b38                . = ALIGN ((. != 0x0)?0x8:0x1)

.lbss
 *(.dynlbss)
 *(.lbss .lbss.* .gnu.linkonce.lb.*)
 *(LARGE_COMMON)
                0x0000000000285b38                . = ALIGN (0x8)
                0x0000000000285b38                . = SEGMENT_START ("ldata-segment", .)

.lrodata
 *(.lrodata .lrodata.* .gnu.linkonce.lr.*)

.ldata          0x0000000000685b38        0x0
 *(.ldata .ldata.* .gnu.linkonce.l.*)
                0x0000000000685b38                . = ALIGN ((. != 0x0)?0x8:0x1)
                0x0000000000685b38                . = ALIGN (0x8)
                0x0000000000685b38                _end = .
                0x0000000000685b38                PROVIDE (end, .)
                0x0000000000685b38                . = DATA_SEGMENT_END (.)

.stab
 *(.stab)

.stabstr
 *(.stabstr)

.stab.excl
 *(.stab.excl)

.stab.exclstr
 *(.stab.exclstr)

.stab.index
 *(.stab.index)

.stab.indexstr
 *(.stab.indexstr)

.comment        0x0000000000000000       0x2b
 *(.comment)
 .comment       0x0000000000000000       0x2b /usr/lib/gcc/x86_64-linux-gnu/4.8/crtbeginS.o
                                         0x2c (size before relaxing)
 .comment       0x0000000000000000       0x2c /home/heratom/Firefly-project/out/arsdk-native/build/libARCommands/obj/gen/Sources/ARCOMMANDS_Generator.c.o
 .comment       0x0000000000000000       0x2c /home/heratom/Firefly-project/out/arsdk-native/build/libARCommands/obj/gen/Sources/ARCOMMANDS_Decoder.c.o
 .comment       0x0000000000000000       0x2c /home/heratom/Firefly-project/out/arsdk-native/build/libARCommands/obj/gen/Sources/ARCOMMANDS_Filter.c.o
 .comment       0x0000000000000000       0x2c /home/heratom/Firefly-project/out/arsdk-native/build/libARCommands/obj/gen/Sources/ARCOMMANDS_ReadWrite.c.o
 .comment       0x0000000000000000       0x2c /home/heratom/Firefly-project/out/arsdk-native/build/libARCommands/obj/Sources/ARCOMMANDS_Version.c.o
 .comment       0x0000000000000000       0x2c /usr/lib/gcc/x86_64-linux-gnu/4.8/crtendS.o

.debug
 *(.debug)

.line
 *(.line)

.debug_srcinfo
 *(.debug_srcinfo)

.debug_sfnames
 *(.debug_sfnames)

.debug_aranges  0x0000000000000000     0x58c0
 *(.debug_aranges)
 .debug_aranges
                0x0000000000000000     0x19f0 /home/heratom/Firefly-project/out/arsdk-native/build/libARCommands/obj/gen/Sources/ARCOMMANDS_Generator.c.o
 .debug_aranges
                0x00000000000019f0     0x1a20 /home/heratom/Firefly-project/out/arsdk-native/build/libARCommands/obj/gen/Sources/ARCOMMANDS_Decoder.c.o
 .debug_aranges
                0x0000000000003410     0x22c0 /home/heratom/Firefly-project/out/arsdk-native/build/libARCommands/obj/gen/Sources/ARCOMMANDS_Filter.c.o
 .debug_aranges
                0x00000000000056d0      0x1b0 /home/heratom/Firefly-project/out/arsdk-native/build/libARCommands/obj/gen/Sources/ARCOMMANDS_ReadWrite.c.o
 .debug_aranges
                0x0000000000005880       0x40 /home/heratom/Firefly-project/out/arsdk-native/build/libARCommands/obj/Sources/ARCOMMANDS_Version.c.o

.debug_pubnames
 *(.debug_pubnames)

.debug_info     0x0000000000000000    0x71cc0
 *(.debug_info .gnu.linkonce.wi.*)
 .debug_info    0x0000000000000000    0x21556 /home/heratom/Firefly-project/out/arsdk-native/build/libARCommands/obj/gen/Sources/ARCOMMANDS_Generator.c.o
 .debug_info    0x0000000000021556    0x4108e /home/heratom/Firefly-project/out/arsdk-native/build/libARCommands/obj/gen/Sources/ARCOMMANDS_Decoder.c.o
 .debug_info    0x00000000000625e4     0xd5b0 /home/heratom/Firefly-project/out/arsdk-native/build/libARCommands/obj/gen/Sources/ARCOMMANDS_Filter.c.o
 .debug_info    0x000000000006fb94     0x1c9b /home/heratom/Firefly-project/out/arsdk-native/build/libARCommands/obj/gen/Sources/ARCOMMANDS_ReadWrite.c.o
 .debug_info    0x000000000007182f      0x491 /home/heratom/Firefly-project/out/arsdk-native/build/libARCommands/obj/Sources/ARCOMMANDS_Version.c.o

.debug_abbrev   0x0000000000000000      0x97b
 *(.debug_abbrev)
 .debug_abbrev  0x0000000000000000      0x16b /home/heratom/Firefly-project/out/arsdk-native/build/libARCommands/obj/gen/Sources/ARCOMMANDS_Generator.c.o
 .debug_abbrev  0x000000000000016b      0x24b /home/heratom/Firefly-project/out/arsdk-native/build/libARCommands/obj/gen/Sources/ARCOMMANDS_Decoder.c.o
 .debug_abbrev  0x00000000000003b6      0x1ad /home/heratom/Firefly-project/out/arsdk-native/build/libARCommands/obj/gen/Sources/ARCOMMANDS_Filter.c.o
 .debug_abbrev  0x0000000000000563      0x2d2 /home/heratom/Firefly-project/out/arsdk-native/build/libARCommands/obj/gen/Sources/ARCOMMANDS_ReadWrite.c.o
 .debug_abbrev  0x0000000000000835      0x146 /home/heratom/Firefly-project/out/arsdk-native/build/libARCommands/obj/Sources/ARCOMMANDS_Version.c.o

.debug_line     0x0000000000000000    0x138b4
 *(.debug_line .debug_line.* .debug_line_end)
 .debug_line    0x0000000000000000     0x4f87 /home/heratom/Firefly-project/out/arsdk-native/build/libARCommands/obj/gen/Sources/ARCOMMANDS_Generator.c.o
 .debug_line    0x0000000000004f87     0x8177 /home/heratom/Firefly-project/out/arsdk-native/build/libARCommands/obj/gen/Sources/ARCOMMANDS_Decoder.c.o
 .debug_line    0x000000000000d0fe     0x60c2 /home/heratom/Firefly-project/out/arsdk-native/build/libARCommands/obj/gen/Sources/ARCOMMANDS_Filter.c.o
 .debug_line    0x00000000000131c0      0x5d7 /home/heratom/Firefly-project/out/arsdk-native/build/libARCommands/obj/gen/Sources/ARCOMMANDS_ReadWrite.c.o
 .debug_line    0x0000000000013797      0x11d /home/heratom/Firefly-project/out/arsdk-native/build/libARCommands/obj/Sources/ARCOMMANDS_Version.c.o

.debug_frame
 *(.debug_frame)

.debug_str      0x0000000000000000    0x44c96
 *(.debug_str)
 .debug_str     0x0000000000000000    0x1c2bb /home/heratom/Firefly-project/out/arsdk-native/build/libARCommands/obj/gen/Sources/ARCOMMANDS_Generator.c.o
                                      0x1c381 (size before relaxing)
 .debug_str     0x000000000001c2bb    0x1abb4 /home/heratom/Firefly-project/out/arsdk-native/build/libARCommands/obj/gen/Sources/ARCOMMANDS_Decoder.c.o
                                      0x2ff97 (size before relaxing)
 .debug_str     0x0000000000036e6f     0xdc81 /home/heratom/Firefly-project/out/arsdk-native/build/libARCommands/obj/gen/Sources/ARCOMMANDS_Filter.c.o
                                      0x15529 (size before relaxing)
 .debug_str     0x0000000000044af0      0x118 /home/heratom/Firefly-project/out/arsdk-native/build/libARCommands/obj/gen/Sources/ARCOMMANDS_ReadWrite.c.o
                                        0x7d3 (size before relaxing)
 .debug_str     0x0000000000044c08       0x8e /home/heratom/Firefly-project/out/arsdk-native/build/libARCommands/obj/Sources/ARCOMMANDS_Version.c.o
                                        0x337 (size before relaxing)

.debug_loc      0x0000000000000000    0xae916
 *(.debug_loc)
 .debug_loc     0x0000000000000000    0x4c548 /home/heratom/Firefly-project/out/arsdk-native/build/libARCommands/obj/gen/Sources/ARCOMMANDS_Generator.c.o
 .debug_loc     0x000000000004c548    0x4dc33 /home/heratom/Firefly-project/out/arsdk-native/build/libARCommands/obj/gen/Sources/ARCOMMANDS_Decoder.c.o
 .debug_loc     0x000000000009a17b    0x117b5 /home/heratom/Firefly-project/out/arsdk-native/build/libARCommands/obj/gen/Sources/ARCOMMANDS_Filter.c.o
 .debug_loc     0x00000000000ab930     0x2ea1 /home/heratom/Firefly-project/out/arsdk-native/build/libARCommands/obj/gen/Sources/ARCOMMANDS_ReadWrite.c.o
 .debug_loc     0x00000000000ae7d1      0x145 /home/heratom/Firefly-project/out/arsdk-native/build/libARCommands/obj/Sources/ARCOMMANDS_Version.c.o

.debug_macinfo
 *(.debug_macinfo)

.debug_weaknames
 *(.debug_weaknames)

.debug_funcnames
 *(.debug_funcnames)

.debug_typenames
 *(.debug_typenames)

.debug_varnames
 *(.debug_varnames)

.debug_pubtypes
 *(.debug_pubtypes)

.debug_ranges   0x0000000000000000     0xb3a0
 *(.debug_ranges)
 .debug_ranges  0x0000000000000000     0x19e0 /home/heratom/Firefly-project/out/arsdk-native/build/libARCommands/obj/gen/Sources/ARCOMMANDS_Generator.c.o
 .debug_ranges  0x00000000000019e0     0x72f0 /home/heratom/Firefly-project/out/arsdk-native/build/libARCommands/obj/gen/Sources/ARCOMMANDS_Decoder.c.o
 .debug_ranges  0x0000000000008cd0     0x22b0 /home/heratom/Firefly-project/out/arsdk-native/build/libARCommands/obj/gen/Sources/ARCOMMANDS_Filter.c.o
 .debug_ranges  0x000000000000af80      0x3f0 /home/heratom/Firefly-project/out/arsdk-native/build/libARCommands/obj/gen/Sources/ARCOMMANDS_ReadWrite.c.o
 .debug_ranges  0x000000000000b370       0x30 /home/heratom/Firefly-project/out/arsdk-native/build/libARCommands/obj/Sources/ARCOMMANDS_Version.c.o

.debug_macro
 *(.debug_macro)

.gnu.attributes
 *(.gnu.attributes)

/DISCARD/
 *(.note.GNU-stack)
 *(.gnu_debuglink)
 *(.gnu.lto_*)
OUTPUT(/home/heratom/Firefly-project/out/arsdk-native/build/libARCommands/libarcommands.so elf64-x86-64)
